
FreeRTOS_08-TaskDelay.elf:     file format elf32-littlearm

Sections:
Idx Name          Size      VMA       LMA       File off  Algn
  0 .isr_vector   000001a8  08000000  08000000  00010000  2**0
                  CONTENTS, ALLOC, LOAD, READONLY, DATA
  1 .text         000058c4  080001b0  080001b0  000101b0  2**4
                  CONTENTS, ALLOC, LOAD, READONLY, CODE
  2 .rodata       0000015c  08005a74  08005a74  00015a74  2**2
                  CONTENTS, ALLOC, LOAD, READONLY, DATA
  3 .ARM.extab    00000000  08005bd0  08005bd0  00020074  2**0
                  CONTENTS
  4 .ARM          00000008  08005bd0  08005bd0  00015bd0  2**2
                  CONTENTS, ALLOC, LOAD, READONLY, DATA
  5 .preinit_array 00000000  08005bd8  08005bd8  00020074  2**0
                  CONTENTS, ALLOC, LOAD, DATA
  6 .init_array   00000004  08005bd8  08005bd8  00015bd8  2**2
                  CONTENTS, ALLOC, LOAD, DATA
  7 .fini_array   00000004  08005bdc  08005bdc  00015bdc  2**2
                  CONTENTS, ALLOC, LOAD, DATA
  8 .data         00000074  20000000  08005be0  00020000  2**2
                  CONTENTS, ALLOC, LOAD, DATA
  9 .bss          000156d8  20000074  08005c54  00020074  2**2
                  ALLOC
 10 ._user_heap_stack 00000604  2001574c  08005c54  0002574c  2**0
                  ALLOC
 11 .ARM.attributes 00000030  00000000  00000000  00020074  2**0
                  CONTENTS, READONLY
 12 .debug_info   00017188  00000000  00000000  000200a4  2**0
                  CONTENTS, READONLY, DEBUGGING
 13 .debug_abbrev 00002d74  00000000  00000000  0003722c  2**0
                  CONTENTS, READONLY, DEBUGGING
 14 .debug_aranges 00000fc8  00000000  00000000  00039fa0  2**3
                  CONTENTS, READONLY, DEBUGGING
 15 .debug_ranges 00000e50  00000000  00000000  0003af68  2**3
                  CONTENTS, READONLY, DEBUGGING
 16 .debug_macro  00022ffb  00000000  00000000  0003bdb8  2**0
                  CONTENTS, READONLY, DEBUGGING
 17 .debug_line   00013eef  00000000  00000000  0005edb3  2**0
                  CONTENTS, READONLY, DEBUGGING
 18 .debug_str    000cfd9d  00000000  00000000  00072ca2  2**0
                  CONTENTS, READONLY, DEBUGGING
 19 .comment      0000007b  00000000  00000000  00142a3f  2**0
                  CONTENTS, READONLY
 20 .debug_frame  00004330  00000000  00000000  00142abc  2**2
                  CONTENTS, READONLY, DEBUGGING

Disassembly of section .text:

080001b0 <__do_global_dtors_aux>:
 80001b0:	b510      	push	{r4, lr}
 80001b2:	4c05      	ldr	r4, [pc, #20]	; (80001c8 <__do_global_dtors_aux+0x18>)
 80001b4:	7823      	ldrb	r3, [r4, #0]
 80001b6:	b933      	cbnz	r3, 80001c6 <__do_global_dtors_aux+0x16>
 80001b8:	4b04      	ldr	r3, [pc, #16]	; (80001cc <__do_global_dtors_aux+0x1c>)
 80001ba:	b113      	cbz	r3, 80001c2 <__do_global_dtors_aux+0x12>
 80001bc:	4804      	ldr	r0, [pc, #16]	; (80001d0 <__do_global_dtors_aux+0x20>)
 80001be:	f3af 8000 	nop.w
 80001c2:	2301      	movs	r3, #1
 80001c4:	7023      	strb	r3, [r4, #0]
 80001c6:	bd10      	pop	{r4, pc}
 80001c8:	20000074 	.word	0x20000074
 80001cc:	00000000 	.word	0x00000000
 80001d0:	08005a5c 	.word	0x08005a5c

080001d4 <frame_dummy>:
 80001d4:	b508      	push	{r3, lr}
 80001d6:	4b03      	ldr	r3, [pc, #12]	; (80001e4 <frame_dummy+0x10>)
 80001d8:	b11b      	cbz	r3, 80001e2 <frame_dummy+0xe>
 80001da:	4903      	ldr	r1, [pc, #12]	; (80001e8 <frame_dummy+0x14>)
 80001dc:	4803      	ldr	r0, [pc, #12]	; (80001ec <frame_dummy+0x18>)
 80001de:	f3af 8000 	nop.w
 80001e2:	bd08      	pop	{r3, pc}
 80001e4:	00000000 	.word	0x00000000
 80001e8:	20000078 	.word	0x20000078
 80001ec:	08005a5c 	.word	0x08005a5c

080001f0 <SEGGER_RTT_ASM_WriteSkipNoLock>:
 80001f0:	b4f0      	push	{r4, r5, r6, r7}
 80001f2:	eb00 0340 	add.w	r3, r0, r0, lsl #1
 80001f6:	f8df 0080 	ldr.w	r0, [pc, #128]	; 8000278 <_Case3+0x6>
 80001fa:	eb00 00c3 	add.w	r0, r0, r3, lsl #3
 80001fe:	f100 0618 	add.w	r6, r0, #24
 8000202:	6930      	ldr	r0, [r6, #16]
 8000204:	68f7      	ldr	r7, [r6, #12]
 8000206:	6875      	ldr	r5, [r6, #4]
 8000208:	4287      	cmp	r7, r0
 800020a:	d32e      	bcc.n	800026a <_CheckCase4>
 800020c:	68b3      	ldr	r3, [r6, #8]
 800020e:	1bdc      	subs	r4, r3, r7
 8000210:	1e63      	subs	r3, r4, #1
 8000212:	4293      	cmp	r3, r2
 8000214:	d312      	bcc.n	800023c <_CheckCase2>

08000216 <_Case4>:
 8000216:	197d      	adds	r5, r7, r5
 8000218:	19d0      	adds	r0, r2, r7
 800021a:	bf00      	nop

0800021c <_LoopCopyStraight>:
 800021c:	f811 3b01 	ldrb.w	r3, [r1], #1
 8000220:	f805 3b01 	strb.w	r3, [r5], #1
 8000224:	3a01      	subs	r2, #1
 8000226:	d005      	beq.n	8000234 <_CSDone>
 8000228:	f811 3b01 	ldrb.w	r3, [r1], #1
 800022c:	f805 3b01 	strb.w	r3, [r5], #1
 8000230:	3a01      	subs	r2, #1
 8000232:	d1f3      	bne.n	800021c <_LoopCopyStraight>

08000234 <_CSDone>:
 8000234:	60f0      	str	r0, [r6, #12]
 8000236:	2001      	movs	r0, #1
 8000238:	bcf0      	pop	{r4, r5, r6, r7}
 800023a:	4770      	bx	lr

0800023c <_CheckCase2>:
 800023c:	18c0      	adds	r0, r0, r3
 800023e:	4290      	cmp	r0, r2
 8000240:	d317      	bcc.n	8000272 <_Case3>
 8000242:	1978      	adds	r0, r7, r5
 8000244:	1b12      	subs	r2, r2, r4

08000246 <_LoopCopyBeforeWrapAround>:
 8000246:	f811 3b01 	ldrb.w	r3, [r1], #1
 800024a:	f800 3b01 	strb.w	r3, [r0], #1
 800024e:	3c01      	subs	r4, #1
 8000250:	d1f9      	bne.n	8000246 <_LoopCopyBeforeWrapAround>
 8000252:	1c14      	adds	r4, r2, #0
 8000254:	d005      	beq.n	8000262 <_No2ChunkNeeded>

08000256 <_LoopCopyAfterWrapAround>:
 8000256:	f811 3b01 	ldrb.w	r3, [r1], #1
 800025a:	f805 3b01 	strb.w	r3, [r5], #1
 800025e:	3a01      	subs	r2, #1
 8000260:	d1f9      	bne.n	8000256 <_LoopCopyAfterWrapAround>

08000262 <_No2ChunkNeeded>:
 8000262:	60f4      	str	r4, [r6, #12]
 8000264:	2001      	movs	r0, #1
 8000266:	bcf0      	pop	{r4, r5, r6, r7}
 8000268:	4770      	bx	lr

0800026a <_CheckCase4>:
 800026a:	1bc0      	subs	r0, r0, r7
 800026c:	3801      	subs	r0, #1
 800026e:	4290      	cmp	r0, r2
 8000270:	d2d1      	bcs.n	8000216 <_Case4>

08000272 <_Case3>:
 8000272:	2000      	movs	r0, #0
 8000274:	bcf0      	pop	{r4, r5, r6, r7}
 8000276:	4770      	bx	lr
 8000278:	200156a0 	.word	0x200156a0

0800027c <strlen>:
 800027c:	4603      	mov	r3, r0
 800027e:	f813 2b01 	ldrb.w	r2, [r3], #1
 8000282:	2a00      	cmp	r2, #0
 8000284:	d1fb      	bne.n	800027e <strlen+0x2>
 8000286:	1a18      	subs	r0, r3, r0
 8000288:	3801      	subs	r0, #1
 800028a:	4770      	bx	lr
 800028c:	0000      	movs	r0, r0
	...

08000290 <memchr>:
 8000290:	f001 01ff 	and.w	r1, r1, #255	; 0xff
 8000294:	2a10      	cmp	r2, #16
 8000296:	db2b      	blt.n	80002f0 <memchr+0x60>
 8000298:	f010 0f07 	tst.w	r0, #7
 800029c:	d008      	beq.n	80002b0 <memchr+0x20>
 800029e:	f810 3b01 	ldrb.w	r3, [r0], #1
 80002a2:	3a01      	subs	r2, #1
 80002a4:	428b      	cmp	r3, r1
 80002a6:	d02d      	beq.n	8000304 <memchr+0x74>
 80002a8:	f010 0f07 	tst.w	r0, #7
 80002ac:	b342      	cbz	r2, 8000300 <memchr+0x70>
 80002ae:	d1f6      	bne.n	800029e <memchr+0xe>
 80002b0:	b4f0      	push	{r4, r5, r6, r7}
 80002b2:	ea41 2101 	orr.w	r1, r1, r1, lsl #8
 80002b6:	ea41 4101 	orr.w	r1, r1, r1, lsl #16
 80002ba:	f022 0407 	bic.w	r4, r2, #7
 80002be:	f07f 0700 	mvns.w	r7, #0
 80002c2:	2300      	movs	r3, #0
 80002c4:	e8f0 5602 	ldrd	r5, r6, [r0], #8
 80002c8:	3c08      	subs	r4, #8
 80002ca:	ea85 0501 	eor.w	r5, r5, r1
 80002ce:	ea86 0601 	eor.w	r6, r6, r1
 80002d2:	fa85 f547 	uadd8	r5, r5, r7
 80002d6:	faa3 f587 	sel	r5, r3, r7
 80002da:	fa86 f647 	uadd8	r6, r6, r7
 80002de:	faa5 f687 	sel	r6, r5, r7
 80002e2:	b98e      	cbnz	r6, 8000308 <memchr+0x78>
 80002e4:	d1ee      	bne.n	80002c4 <memchr+0x34>
 80002e6:	bcf0      	pop	{r4, r5, r6, r7}
 80002e8:	f001 01ff 	and.w	r1, r1, #255	; 0xff
 80002ec:	f002 0207 	and.w	r2, r2, #7
 80002f0:	b132      	cbz	r2, 8000300 <memchr+0x70>
 80002f2:	f810 3b01 	ldrb.w	r3, [r0], #1
 80002f6:	3a01      	subs	r2, #1
 80002f8:	ea83 0301 	eor.w	r3, r3, r1
 80002fc:	b113      	cbz	r3, 8000304 <memchr+0x74>
 80002fe:	d1f8      	bne.n	80002f2 <memchr+0x62>
 8000300:	2000      	movs	r0, #0
 8000302:	4770      	bx	lr
 8000304:	3801      	subs	r0, #1
 8000306:	4770      	bx	lr
 8000308:	2d00      	cmp	r5, #0
 800030a:	bf06      	itte	eq
 800030c:	4635      	moveq	r5, r6
 800030e:	3803      	subeq	r0, #3
 8000310:	3807      	subne	r0, #7
 8000312:	f015 0f01 	tst.w	r5, #1
 8000316:	d107      	bne.n	8000328 <memchr+0x98>
 8000318:	3001      	adds	r0, #1
 800031a:	f415 7f80 	tst.w	r5, #256	; 0x100
 800031e:	bf02      	ittt	eq
 8000320:	3001      	addeq	r0, #1
 8000322:	f415 3fc0 	tsteq.w	r5, #98304	; 0x18000
 8000326:	3001      	addeq	r0, #1
 8000328:	bcf0      	pop	{r4, r5, r6, r7}
 800032a:	3801      	subs	r0, #1
 800032c:	4770      	bx	lr
 800032e:	bf00      	nop

08000330 <__aeabi_uldivmod>:
 8000330:	b953      	cbnz	r3, 8000348 <__aeabi_uldivmod+0x18>
 8000332:	b94a      	cbnz	r2, 8000348 <__aeabi_uldivmod+0x18>
 8000334:	2900      	cmp	r1, #0
 8000336:	bf08      	it	eq
 8000338:	2800      	cmpeq	r0, #0
 800033a:	bf1c      	itt	ne
 800033c:	f04f 31ff 	movne.w	r1, #4294967295
 8000340:	f04f 30ff 	movne.w	r0, #4294967295
 8000344:	f000 b972 	b.w	800062c <__aeabi_idiv0>
 8000348:	f1ad 0c08 	sub.w	ip, sp, #8
 800034c:	e96d ce04 	strd	ip, lr, [sp, #-16]!
 8000350:	f000 f806 	bl	8000360 <__udivmoddi4>
 8000354:	f8dd e004 	ldr.w	lr, [sp, #4]
 8000358:	e9dd 2302 	ldrd	r2, r3, [sp, #8]
 800035c:	b004      	add	sp, #16
 800035e:	4770      	bx	lr

08000360 <__udivmoddi4>:
 8000360:	e92d 47f0 	stmdb	sp!, {r4, r5, r6, r7, r8, r9, sl, lr}
 8000364:	9e08      	ldr	r6, [sp, #32]
 8000366:	4604      	mov	r4, r0
 8000368:	4688      	mov	r8, r1
 800036a:	2b00      	cmp	r3, #0
 800036c:	d14b      	bne.n	8000406 <__udivmoddi4+0xa6>
 800036e:	428a      	cmp	r2, r1
 8000370:	4615      	mov	r5, r2
 8000372:	d967      	bls.n	8000444 <__udivmoddi4+0xe4>
 8000374:	fab2 f282 	clz	r2, r2
 8000378:	b14a      	cbz	r2, 800038e <__udivmoddi4+0x2e>
 800037a:	f1c2 0720 	rsb	r7, r2, #32
 800037e:	fa01 f302 	lsl.w	r3, r1, r2
 8000382:	fa20 f707 	lsr.w	r7, r0, r7
 8000386:	4095      	lsls	r5, r2
 8000388:	ea47 0803 	orr.w	r8, r7, r3
 800038c:	4094      	lsls	r4, r2
 800038e:	ea4f 4e15 	mov.w	lr, r5, lsr #16
 8000392:	0c23      	lsrs	r3, r4, #16
 8000394:	fbb8 f7fe 	udiv	r7, r8, lr
 8000398:	fa1f fc85 	uxth.w	ip, r5
 800039c:	fb0e 8817 	mls	r8, lr, r7, r8
 80003a0:	ea43 4308 	orr.w	r3, r3, r8, lsl #16
 80003a4:	fb07 f10c 	mul.w	r1, r7, ip
 80003a8:	4299      	cmp	r1, r3
 80003aa:	d909      	bls.n	80003c0 <__udivmoddi4+0x60>
 80003ac:	18eb      	adds	r3, r5, r3
 80003ae:	f107 30ff 	add.w	r0, r7, #4294967295
 80003b2:	f080 811b 	bcs.w	80005ec <__udivmoddi4+0x28c>
 80003b6:	4299      	cmp	r1, r3
 80003b8:	f240 8118 	bls.w	80005ec <__udivmoddi4+0x28c>
 80003bc:	3f02      	subs	r7, #2
 80003be:	442b      	add	r3, r5
 80003c0:	1a5b      	subs	r3, r3, r1
 80003c2:	b2a4      	uxth	r4, r4
 80003c4:	fbb3 f0fe 	udiv	r0, r3, lr
 80003c8:	fb0e 3310 	mls	r3, lr, r0, r3
 80003cc:	ea44 4403 	orr.w	r4, r4, r3, lsl #16
 80003d0:	fb00 fc0c 	mul.w	ip, r0, ip
 80003d4:	45a4      	cmp	ip, r4
 80003d6:	d909      	bls.n	80003ec <__udivmoddi4+0x8c>
 80003d8:	192c      	adds	r4, r5, r4
 80003da:	f100 33ff 	add.w	r3, r0, #4294967295
 80003de:	f080 8107 	bcs.w	80005f0 <__udivmoddi4+0x290>
 80003e2:	45a4      	cmp	ip, r4
 80003e4:	f240 8104 	bls.w	80005f0 <__udivmoddi4+0x290>
 80003e8:	3802      	subs	r0, #2
 80003ea:	442c      	add	r4, r5
 80003ec:	ea40 4007 	orr.w	r0, r0, r7, lsl #16
 80003f0:	eba4 040c 	sub.w	r4, r4, ip
 80003f4:	2700      	movs	r7, #0
 80003f6:	b11e      	cbz	r6, 8000400 <__udivmoddi4+0xa0>
 80003f8:	40d4      	lsrs	r4, r2
 80003fa:	2300      	movs	r3, #0
 80003fc:	e9c6 4300 	strd	r4, r3, [r6]
 8000400:	4639      	mov	r1, r7
 8000402:	e8bd 87f0 	ldmia.w	sp!, {r4, r5, r6, r7, r8, r9, sl, pc}
 8000406:	428b      	cmp	r3, r1
 8000408:	d909      	bls.n	800041e <__udivmoddi4+0xbe>
 800040a:	2e00      	cmp	r6, #0
 800040c:	f000 80eb 	beq.w	80005e6 <__udivmoddi4+0x286>
 8000410:	2700      	movs	r7, #0
 8000412:	e9c6 0100 	strd	r0, r1, [r6]
 8000416:	4638      	mov	r0, r7
 8000418:	4639      	mov	r1, r7
 800041a:	e8bd 87f0 	ldmia.w	sp!, {r4, r5, r6, r7, r8, r9, sl, pc}
 800041e:	fab3 f783 	clz	r7, r3
 8000422:	2f00      	cmp	r7, #0
 8000424:	d147      	bne.n	80004b6 <__udivmoddi4+0x156>
 8000426:	428b      	cmp	r3, r1
 8000428:	d302      	bcc.n	8000430 <__udivmoddi4+0xd0>
 800042a:	4282      	cmp	r2, r0
 800042c:	f200 80fa 	bhi.w	8000624 <__udivmoddi4+0x2c4>
 8000430:	1a84      	subs	r4, r0, r2
 8000432:	eb61 0303 	sbc.w	r3, r1, r3
 8000436:	2001      	movs	r0, #1
 8000438:	4698      	mov	r8, r3
 800043a:	2e00      	cmp	r6, #0
 800043c:	d0e0      	beq.n	8000400 <__udivmoddi4+0xa0>
 800043e:	e9c6 4800 	strd	r4, r8, [r6]
 8000442:	e7dd      	b.n	8000400 <__udivmoddi4+0xa0>
 8000444:	b902      	cbnz	r2, 8000448 <__udivmoddi4+0xe8>
 8000446:	deff      	udf	#255	; 0xff
 8000448:	fab2 f282 	clz	r2, r2
 800044c:	2a00      	cmp	r2, #0
 800044e:	f040 808f 	bne.w	8000570 <__udivmoddi4+0x210>
 8000452:	1b49      	subs	r1, r1, r5
 8000454:	ea4f 4e15 	mov.w	lr, r5, lsr #16
 8000458:	fa1f f885 	uxth.w	r8, r5
 800045c:	2701      	movs	r7, #1
 800045e:	fbb1 fcfe 	udiv	ip, r1, lr
 8000462:	0c23      	lsrs	r3, r4, #16
 8000464:	fb0e 111c 	mls	r1, lr, ip, r1
 8000468:	ea43 4301 	orr.w	r3, r3, r1, lsl #16
 800046c:	fb08 f10c 	mul.w	r1, r8, ip
 8000470:	4299      	cmp	r1, r3
 8000472:	d907      	bls.n	8000484 <__udivmoddi4+0x124>
 8000474:	18eb      	adds	r3, r5, r3
 8000476:	f10c 30ff 	add.w	r0, ip, #4294967295
 800047a:	d202      	bcs.n	8000482 <__udivmoddi4+0x122>
 800047c:	4299      	cmp	r1, r3
 800047e:	f200 80cd 	bhi.w	800061c <__udivmoddi4+0x2bc>
 8000482:	4684      	mov	ip, r0
 8000484:	1a59      	subs	r1, r3, r1
 8000486:	b2a3      	uxth	r3, r4
 8000488:	fbb1 f0fe 	udiv	r0, r1, lr
 800048c:	fb0e 1410 	mls	r4, lr, r0, r1
 8000490:	ea43 4404 	orr.w	r4, r3, r4, lsl #16
 8000494:	fb08 f800 	mul.w	r8, r8, r0
 8000498:	45a0      	cmp	r8, r4
 800049a:	d907      	bls.n	80004ac <__udivmoddi4+0x14c>
 800049c:	192c      	adds	r4, r5, r4
 800049e:	f100 33ff 	add.w	r3, r0, #4294967295
 80004a2:	d202      	bcs.n	80004aa <__udivmoddi4+0x14a>
 80004a4:	45a0      	cmp	r8, r4
 80004a6:	f200 80b6 	bhi.w	8000616 <__udivmoddi4+0x2b6>
 80004aa:	4618      	mov	r0, r3
 80004ac:	eba4 0408 	sub.w	r4, r4, r8
 80004b0:	ea40 400c 	orr.w	r0, r0, ip, lsl #16
 80004b4:	e79f      	b.n	80003f6 <__udivmoddi4+0x96>
 80004b6:	f1c7 0c20 	rsb	ip, r7, #32
 80004ba:	40bb      	lsls	r3, r7
 80004bc:	fa22 fe0c 	lsr.w	lr, r2, ip
 80004c0:	ea4e 0e03 	orr.w	lr, lr, r3
 80004c4:	fa01 f407 	lsl.w	r4, r1, r7
 80004c8:	fa20 f50c 	lsr.w	r5, r0, ip
 80004cc:	fa21 f30c 	lsr.w	r3, r1, ip
 80004d0:	ea4f 481e 	mov.w	r8, lr, lsr #16
 80004d4:	4325      	orrs	r5, r4
 80004d6:	fbb3 f9f8 	udiv	r9, r3, r8
 80004da:	0c2c      	lsrs	r4, r5, #16
 80004dc:	fb08 3319 	mls	r3, r8, r9, r3
 80004e0:	fa1f fa8e 	uxth.w	sl, lr
 80004e4:	ea44 4303 	orr.w	r3, r4, r3, lsl #16
 80004e8:	fb09 f40a 	mul.w	r4, r9, sl
 80004ec:	429c      	cmp	r4, r3
 80004ee:	fa02 f207 	lsl.w	r2, r2, r7
 80004f2:	fa00 f107 	lsl.w	r1, r0, r7
 80004f6:	d90b      	bls.n	8000510 <__udivmoddi4+0x1b0>
 80004f8:	eb1e 0303 	adds.w	r3, lr, r3
 80004fc:	f109 30ff 	add.w	r0, r9, #4294967295
 8000500:	f080 8087 	bcs.w	8000612 <__udivmoddi4+0x2b2>
 8000504:	429c      	cmp	r4, r3
 8000506:	f240 8084 	bls.w	8000612 <__udivmoddi4+0x2b2>
 800050a:	f1a9 0902 	sub.w	r9, r9, #2
 800050e:	4473      	add	r3, lr
 8000510:	1b1b      	subs	r3, r3, r4
 8000512:	b2ad      	uxth	r5, r5
 8000514:	fbb3 f0f8 	udiv	r0, r3, r8
 8000518:	fb08 3310 	mls	r3, r8, r0, r3
 800051c:	ea45 4403 	orr.w	r4, r5, r3, lsl #16
 8000520:	fb00 fa0a 	mul.w	sl, r0, sl
 8000524:	45a2      	cmp	sl, r4
 8000526:	d908      	bls.n	800053a <__udivmoddi4+0x1da>
 8000528:	eb1e 0404 	adds.w	r4, lr, r4
 800052c:	f100 33ff 	add.w	r3, r0, #4294967295
 8000530:	d26b      	bcs.n	800060a <__udivmoddi4+0x2aa>
 8000532:	45a2      	cmp	sl, r4
 8000534:	d969      	bls.n	800060a <__udivmoddi4+0x2aa>
 8000536:	3802      	subs	r0, #2
 8000538:	4474      	add	r4, lr
 800053a:	ea40 4009 	orr.w	r0, r0, r9, lsl #16
 800053e:	fba0 8902 	umull	r8, r9, r0, r2
 8000542:	eba4 040a 	sub.w	r4, r4, sl
 8000546:	454c      	cmp	r4, r9
 8000548:	46c2      	mov	sl, r8
 800054a:	464b      	mov	r3, r9
 800054c:	d354      	bcc.n	80005f8 <__udivmoddi4+0x298>
 800054e:	d051      	beq.n	80005f4 <__udivmoddi4+0x294>
 8000550:	2e00      	cmp	r6, #0
 8000552:	d069      	beq.n	8000628 <__udivmoddi4+0x2c8>
 8000554:	ebb1 050a 	subs.w	r5, r1, sl
 8000558:	eb64 0403 	sbc.w	r4, r4, r3
 800055c:	fa04 fc0c 	lsl.w	ip, r4, ip
 8000560:	40fd      	lsrs	r5, r7
 8000562:	40fc      	lsrs	r4, r7
 8000564:	ea4c 0505 	orr.w	r5, ip, r5
 8000568:	e9c6 5400 	strd	r5, r4, [r6]
 800056c:	2700      	movs	r7, #0
 800056e:	e747      	b.n	8000400 <__udivmoddi4+0xa0>
 8000570:	f1c2 0320 	rsb	r3, r2, #32
 8000574:	fa20 f703 	lsr.w	r7, r0, r3
 8000578:	4095      	lsls	r5, r2
 800057a:	fa01 f002 	lsl.w	r0, r1, r2
 800057e:	fa21 f303 	lsr.w	r3, r1, r3
 8000582:	ea4f 4e15 	mov.w	lr, r5, lsr #16
 8000586:	4338      	orrs	r0, r7
 8000588:	0c01      	lsrs	r1, r0, #16
 800058a:	fbb3 f7fe 	udiv	r7, r3, lr
 800058e:	fa1f f885 	uxth.w	r8, r5
 8000592:	fb0e 3317 	mls	r3, lr, r7, r3
 8000596:	ea41 4103 	orr.w	r1, r1, r3, lsl #16
 800059a:	fb07 f308 	mul.w	r3, r7, r8
 800059e:	428b      	cmp	r3, r1
 80005a0:	fa04 f402 	lsl.w	r4, r4, r2
 80005a4:	d907      	bls.n	80005b6 <__udivmoddi4+0x256>
 80005a6:	1869      	adds	r1, r5, r1
 80005a8:	f107 3cff 	add.w	ip, r7, #4294967295
 80005ac:	d22f      	bcs.n	800060e <__udivmoddi4+0x2ae>
 80005ae:	428b      	cmp	r3, r1
 80005b0:	d92d      	bls.n	800060e <__udivmoddi4+0x2ae>
 80005b2:	3f02      	subs	r7, #2
 80005b4:	4429      	add	r1, r5
 80005b6:	1acb      	subs	r3, r1, r3
 80005b8:	b281      	uxth	r1, r0
 80005ba:	fbb3 f0fe 	udiv	r0, r3, lr
 80005be:	fb0e 3310 	mls	r3, lr, r0, r3
 80005c2:	ea41 4103 	orr.w	r1, r1, r3, lsl #16
 80005c6:	fb00 f308 	mul.w	r3, r0, r8
 80005ca:	428b      	cmp	r3, r1
 80005cc:	d907      	bls.n	80005de <__udivmoddi4+0x27e>
 80005ce:	1869      	adds	r1, r5, r1
 80005d0:	f100 3cff 	add.w	ip, r0, #4294967295
 80005d4:	d217      	bcs.n	8000606 <__udivmoddi4+0x2a6>
 80005d6:	428b      	cmp	r3, r1
 80005d8:	d915      	bls.n	8000606 <__udivmoddi4+0x2a6>
 80005da:	3802      	subs	r0, #2
 80005dc:	4429      	add	r1, r5
 80005de:	1ac9      	subs	r1, r1, r3
 80005e0:	ea40 4707 	orr.w	r7, r0, r7, lsl #16
 80005e4:	e73b      	b.n	800045e <__udivmoddi4+0xfe>
 80005e6:	4637      	mov	r7, r6
 80005e8:	4630      	mov	r0, r6
 80005ea:	e709      	b.n	8000400 <__udivmoddi4+0xa0>
 80005ec:	4607      	mov	r7, r0
 80005ee:	e6e7      	b.n	80003c0 <__udivmoddi4+0x60>
 80005f0:	4618      	mov	r0, r3
 80005f2:	e6fb      	b.n	80003ec <__udivmoddi4+0x8c>
 80005f4:	4541      	cmp	r1, r8
 80005f6:	d2ab      	bcs.n	8000550 <__udivmoddi4+0x1f0>
 80005f8:	ebb8 0a02 	subs.w	sl, r8, r2
 80005fc:	eb69 020e 	sbc.w	r2, r9, lr
 8000600:	3801      	subs	r0, #1
 8000602:	4613      	mov	r3, r2
 8000604:	e7a4      	b.n	8000550 <__udivmoddi4+0x1f0>
 8000606:	4660      	mov	r0, ip
 8000608:	e7e9      	b.n	80005de <__udivmoddi4+0x27e>
 800060a:	4618      	mov	r0, r3
 800060c:	e795      	b.n	800053a <__udivmoddi4+0x1da>
 800060e:	4667      	mov	r7, ip
 8000610:	e7d1      	b.n	80005b6 <__udivmoddi4+0x256>
 8000612:	4681      	mov	r9, r0
 8000614:	e77c      	b.n	8000510 <__udivmoddi4+0x1b0>
 8000616:	3802      	subs	r0, #2
 8000618:	442c      	add	r4, r5
 800061a:	e747      	b.n	80004ac <__udivmoddi4+0x14c>
 800061c:	f1ac 0c02 	sub.w	ip, ip, #2
 8000620:	442b      	add	r3, r5
 8000622:	e72f      	b.n	8000484 <__udivmoddi4+0x124>
 8000624:	4638      	mov	r0, r7
 8000626:	e708      	b.n	800043a <__udivmoddi4+0xda>
 8000628:	4637      	mov	r7, r6
 800062a:	e6e9      	b.n	8000400 <__udivmoddi4+0xa0>

0800062c <__aeabi_idiv0>:
 800062c:	4770      	bx	lr
 800062e:	bf00      	nop

08000630 <USART2_UART_Init>:
 8000630:	b580      	push	{r7, lr}
 8000632:	af00      	add	r7, sp, #0
 8000634:	4b11      	ldr	r3, [pc, #68]	; (800067c <USART2_UART_Init+0x4c>)
 8000636:	4a12      	ldr	r2, [pc, #72]	; (8000680 <USART2_UART_Init+0x50>)
 8000638:	601a      	str	r2, [r3, #0]
 800063a:	4b10      	ldr	r3, [pc, #64]	; (800067c <USART2_UART_Init+0x4c>)
 800063c:	f44f 32e1 	mov.w	r2, #115200	; 0x1c200
 8000640:	605a      	str	r2, [r3, #4]
 8000642:	4b0e      	ldr	r3, [pc, #56]	; (800067c <USART2_UART_Init+0x4c>)
 8000644:	2200      	movs	r2, #0
 8000646:	609a      	str	r2, [r3, #8]
 8000648:	4b0c      	ldr	r3, [pc, #48]	; (800067c <USART2_UART_Init+0x4c>)
 800064a:	2200      	movs	r2, #0
 800064c:	60da      	str	r2, [r3, #12]
 800064e:	4b0b      	ldr	r3, [pc, #44]	; (800067c <USART2_UART_Init+0x4c>)
 8000650:	2200      	movs	r2, #0
 8000652:	611a      	str	r2, [r3, #16]
 8000654:	4b09      	ldr	r3, [pc, #36]	; (800067c <USART2_UART_Init+0x4c>)
 8000656:	220c      	movs	r2, #12
 8000658:	615a      	str	r2, [r3, #20]
 800065a:	4b08      	ldr	r3, [pc, #32]	; (800067c <USART2_UART_Init+0x4c>)
 800065c:	2200      	movs	r2, #0
 800065e:	619a      	str	r2, [r3, #24]
 8000660:	4b06      	ldr	r3, [pc, #24]	; (800067c <USART2_UART_Init+0x4c>)
 8000662:	2200      	movs	r2, #0
 8000664:	61da      	str	r2, [r3, #28]
 8000666:	4805      	ldr	r0, [pc, #20]	; (800067c <USART2_UART_Init+0x4c>)
 8000668:	f001 fa82 	bl	8001b70 <HAL_UART_Init>
 800066c:	4603      	mov	r3, r0
 800066e:	2b00      	cmp	r3, #0
 8000670:	d001      	beq.n	8000676 <USART2_UART_Init+0x46>
 8000672:	f000 f945 	bl	8000900 <Error_Handler>
 8000676:	bf00      	nop
 8000678:	bd80      	pop	{r7, pc}
 800067a:	bf00      	nop
 800067c:	200155f8 	.word	0x200155f8
 8000680:	40004400 	.word	0x40004400

08000684 <UART2_write>:
 8000684:	b580      	push	{r7, lr}
 8000686:	b082      	sub	sp, #8
 8000688:	af00      	add	r7, sp, #0
 800068a:	6078      	str	r0, [r7, #4]
 800068c:	6878      	ldr	r0, [r7, #4]
 800068e:	f7ff fdf5 	bl	800027c <strlen>
 8000692:	4603      	mov	r3, r0
 8000694:	b29a      	uxth	r2, r3
 8000696:	f04f 33ff 	mov.w	r3, #4294967295
 800069a:	6879      	ldr	r1, [r7, #4]
 800069c:	4803      	ldr	r0, [pc, #12]	; (80006ac <UART2_write+0x28>)
 800069e:	f001 fab4 	bl	8001c0a <HAL_UART_Transmit>
 80006a2:	bf00      	nop
 80006a4:	3708      	adds	r7, #8
 80006a6:	46bd      	mov	sp, r7
 80006a8:	bd80      	pop	{r7, pc}
 80006aa:	bf00      	nop
 80006ac:	200155f8 	.word	0x200155f8

080006b0 <main>:
/**
  * @brief  The application entry point.
  * @retval int
  */
int main(void)
{
 80006b0:	b580      	push	{r7, lr}
 80006b2:	b082      	sub	sp, #8
 80006b4:	af02      	add	r7, sp, #8
	//Habilito el contador de ciclo DWT
	DWT->CTRL |= (1<<0);
 80006b6:	4b17      	ldr	r3, [pc, #92]	; (8000714 <main+0x64>)
 80006b8:	681b      	ldr	r3, [r3, #0]
 80006ba:	4a16      	ldr	r2, [pc, #88]	; (8000714 <main+0x64>)
 80006bc:	f043 0301 	orr.w	r3, r3, #1
 80006c0:	6013      	str	r3, [r2, #0]

	/* Reset of all peripherals, Initializes the Flash interface and the Systick. */
	HAL_Init();
 80006c2:	f000 f9d3 	bl	8000a6c <HAL_Init>

	/* Configure the system clock */
	SystemClock_Config();
 80006c6:	f000 f835 	bl	8000734 <SystemClock_Config>

	/* Configure the peripherals */
	GPIO_Init();
 80006ca:	f000 f893 	bl	80007f4 <GPIO_Init>
	USART2_UART_Init();
 80006ce:	f7ff ffaf 	bl	8000630 <USART2_UART_Init>

	/* Configure the system clock */
	SEGGER_SYSVIEW_Conf();
 80006d2:	f003 f9f3 	bl	8003abc <SEGGER_SYSVIEW_Conf>
	SEGGER_SYSVIEW_Start();
 80006d6:	f003 ffb9 	bl	800464c <SEGGER_SYSVIEW_Start>

	/* Create a taskk */
	//Tarea 1
	xTaskCreate(vtask1_Handler,"task1",500,NULL,2,&xTaskHandler1);
 80006da:	4b0f      	ldr	r3, [pc, #60]	; (8000718 <main+0x68>)
 80006dc:	9301      	str	r3, [sp, #4]
 80006de:	2302      	movs	r3, #2
 80006e0:	9300      	str	r3, [sp, #0]
 80006e2:	2300      	movs	r3, #0
 80006e4:	f44f 72fa 	mov.w	r2, #500	; 0x1f4
 80006e8:	490c      	ldr	r1, [pc, #48]	; (800071c <main+0x6c>)
 80006ea:	480d      	ldr	r0, [pc, #52]	; (8000720 <main+0x70>)
 80006ec:	f002 f843 	bl	8002776 <xTaskCreate>
	//tarea 2
	xTaskCreate(vtask2_Handler,"task2",500,NULL,3,&xTaskHandler2);
 80006f0:	4b0c      	ldr	r3, [pc, #48]	; (8000724 <main+0x74>)
 80006f2:	9301      	str	r3, [sp, #4]
 80006f4:	2303      	movs	r3, #3
 80006f6:	9300      	str	r3, [sp, #0]
 80006f8:	2300      	movs	r3, #0
 80006fa:	f44f 72fa 	mov.w	r2, #500	; 0x1f4
 80006fe:	490a      	ldr	r1, [pc, #40]	; (8000728 <main+0x78>)
 8000700:	480a      	ldr	r0, [pc, #40]	; (800072c <main+0x7c>)
 8000702:	f002 f838 	bl	8002776 <xTaskCreate>

	/* Start Message */
	//HAL_UART_Transmit(&huart2,(uint8_t*) "FreeRTOS Init\n", sizeof("FreeRTOS Init\n"), HAL_MAX_DELAY);
	UART2_write("FreeRTOS Init\n");
 8000706:	480a      	ldr	r0, [pc, #40]	; (8000730 <main+0x80>)
 8000708:	f7ff ffbc 	bl	8000684 <UART2_write>
	/* Init scheduler */
	//osKernelInitialize();

	/* Start scheduler */
	//osKernelStart();
	vTaskStartScheduler();
 800070c:	f002 f9c2 	bl	8002a94 <vTaskStartScheduler>

	while (1);
 8000710:	e7fe      	b.n	8000710 <main+0x60>
 8000712:	bf00      	nop
 8000714:	e0001000 	.word	0xe0001000
 8000718:	20000090 	.word	0x20000090
 800071c:	08005a74 	.word	0x08005a74
 8000720:	080008a9 	.word	0x080008a9
 8000724:	20000094 	.word	0x20000094
 8000728:	08005a7c 	.word	0x08005a7c
 800072c:	080008e1 	.word	0x080008e1
 8000730:	08005a84 	.word	0x08005a84

08000734 <SystemClock_Config>:
/**
  * @brief System Clock Configuration
  * @retval None
  */
void SystemClock_Config(void)
{
 8000734:	b580      	push	{r7, lr}
 8000736:	b096      	sub	sp, #88	; 0x58
 8000738:	af00      	add	r7, sp, #0
  RCC_OscInitTypeDef RCC_OscInitStruct = {0};
 800073a:	f107 0328 	add.w	r3, r7, #40	; 0x28
 800073e:	2230      	movs	r2, #48	; 0x30
 8000740:	2100      	movs	r1, #0
 8000742:	4618      	mov	r0, r3
 8000744:	f004 fd86 	bl	8005254 <memset>
  RCC_ClkInitTypeDef RCC_ClkInitStruct = {0};
 8000748:	f107 0314 	add.w	r3, r7, #20
 800074c:	2200      	movs	r2, #0
 800074e:	601a      	str	r2, [r3, #0]
 8000750:	605a      	str	r2, [r3, #4]
 8000752:	609a      	str	r2, [r3, #8]
 8000754:	60da      	str	r2, [r3, #12]
 8000756:	611a      	str	r2, [r3, #16]
  RCC_PeriphCLKInitTypeDef PeriphClkInitStruct = {0};
 8000758:	1d3b      	adds	r3, r7, #4
 800075a:	2200      	movs	r2, #0
 800075c:	601a      	str	r2, [r3, #0]
 800075e:	605a      	str	r2, [r3, #4]
 8000760:	609a      	str	r2, [r3, #8]
 8000762:	60da      	str	r2, [r3, #12]

  /** Initializes the CPU, AHB and APB busses clocks
  */
  RCC_OscInitStruct.OscillatorType = RCC_OSCILLATORTYPE_HSE;
 8000764:	2301      	movs	r3, #1
 8000766:	62bb      	str	r3, [r7, #40]	; 0x28
  RCC_OscInitStruct.HSEState = RCC_HSE_ON;
 8000768:	f44f 3380 	mov.w	r3, #65536	; 0x10000
 800076c:	62fb      	str	r3, [r7, #44]	; 0x2c
  RCC_OscInitStruct.PLL.PLLState = RCC_PLL_ON;
 800076e:	2302      	movs	r3, #2
 8000770:	643b      	str	r3, [r7, #64]	; 0x40
  RCC_OscInitStruct.PLL.PLLSource = RCC_PLLSOURCE_HSE;
 8000772:	f44f 0380 	mov.w	r3, #4194304	; 0x400000
 8000776:	647b      	str	r3, [r7, #68]	; 0x44
  RCC_OscInitStruct.PLL.PLLM = 8;
 8000778:	2308      	movs	r3, #8
 800077a:	64bb      	str	r3, [r7, #72]	; 0x48
  RCC_OscInitStruct.PLL.PLLN = 336;
 800077c:	f44f 73a8 	mov.w	r3, #336	; 0x150
 8000780:	64fb      	str	r3, [r7, #76]	; 0x4c
  RCC_OscInitStruct.PLL.PLLP = RCC_PLLP_DIV2;
 8000782:	2302      	movs	r3, #2
 8000784:	653b      	str	r3, [r7, #80]	; 0x50
  RCC_OscInitStruct.PLL.PLLQ = 7;
 8000786:	2307      	movs	r3, #7
 8000788:	657b      	str	r3, [r7, #84]	; 0x54
  if (HAL_RCC_OscConfig(&RCC_OscInitStruct) != HAL_OK)
 800078a:	f107 0328 	add.w	r3, r7, #40	; 0x28
 800078e:	4618      	mov	r0, r3
 8000790:	f000 fcaa 	bl	80010e8 <HAL_RCC_OscConfig>
 8000794:	4603      	mov	r3, r0
 8000796:	2b00      	cmp	r3, #0
 8000798:	d001      	beq.n	800079e <SystemClock_Config+0x6a>
  {
    Error_Handler();
 800079a:	f000 f8b1 	bl	8000900 <Error_Handler>
  }
  /** Initializes the CPU, AHB and APB busses clocks
  */
  RCC_ClkInitStruct.ClockType = RCC_CLOCKTYPE_HCLK|RCC_CLOCKTYPE_SYSCLK
 800079e:	230f      	movs	r3, #15
 80007a0:	617b      	str	r3, [r7, #20]
                              |RCC_CLOCKTYPE_PCLK1|RCC_CLOCKTYPE_PCLK2;
  RCC_ClkInitStruct.SYSCLKSource = RCC_SYSCLKSOURCE_PLLCLK;
 80007a2:	2302      	movs	r3, #2
 80007a4:	61bb      	str	r3, [r7, #24]
  RCC_ClkInitStruct.AHBCLKDivider = RCC_SYSCLK_DIV1;
 80007a6:	2300      	movs	r3, #0
 80007a8:	61fb      	str	r3, [r7, #28]
  RCC_ClkInitStruct.APB1CLKDivider = RCC_HCLK_DIV4;
 80007aa:	f44f 53a0 	mov.w	r3, #5120	; 0x1400
 80007ae:	623b      	str	r3, [r7, #32]
  RCC_ClkInitStruct.APB2CLKDivider = RCC_HCLK_DIV2;
 80007b0:	f44f 5380 	mov.w	r3, #4096	; 0x1000
 80007b4:	627b      	str	r3, [r7, #36]	; 0x24

  if (HAL_RCC_ClockConfig(&RCC_ClkInitStruct, FLASH_LATENCY_5) != HAL_OK)
 80007b6:	f107 0314 	add.w	r3, r7, #20
 80007ba:	2105      	movs	r1, #5
 80007bc:	4618      	mov	r0, r3
 80007be:	f000 ff03 	bl	80015c8 <HAL_RCC_ClockConfig>
 80007c2:	4603      	mov	r3, r0
 80007c4:	2b00      	cmp	r3, #0
 80007c6:	d001      	beq.n	80007cc <SystemClock_Config+0x98>
  {
    Error_Handler();
 80007c8:	f000 f89a 	bl	8000900 <Error_Handler>
  }
  PeriphClkInitStruct.PeriphClockSelection = RCC_PERIPHCLK_I2S;
 80007cc:	2301      	movs	r3, #1
 80007ce:	607b      	str	r3, [r7, #4]
  PeriphClkInitStruct.PLLI2S.PLLI2SN = 192;
 80007d0:	23c0      	movs	r3, #192	; 0xc0
 80007d2:	60bb      	str	r3, [r7, #8]
  PeriphClkInitStruct.PLLI2S.PLLI2SR = 2;
 80007d4:	2302      	movs	r3, #2
 80007d6:	60fb      	str	r3, [r7, #12]
  if (HAL_RCCEx_PeriphCLKConfig(&PeriphClkInitStruct) != HAL_OK)
 80007d8:	1d3b      	adds	r3, r7, #4
 80007da:	4618      	mov	r0, r3
 80007dc:	f001 f8e6 	bl	80019ac <HAL_RCCEx_PeriphCLKConfig>
 80007e0:	4603      	mov	r3, r0
 80007e2:	2b00      	cmp	r3, #0
 80007e4:	d001      	beq.n	80007ea <SystemClock_Config+0xb6>
  {
    Error_Handler();
 80007e6:	f000 f88b 	bl	8000900 <Error_Handler>
  }
}
 80007ea:	bf00      	nop
 80007ec:	3758      	adds	r7, #88	; 0x58
 80007ee:	46bd      	mov	sp, r7
 80007f0:	bd80      	pop	{r7, pc}
	...

080007f4 <GPIO_Init>:

/**
  * @brief  Function of gpio init.
  * @retval None
  */
void GPIO_Init(void){
 80007f4:	b580      	push	{r7, lr}
 80007f6:	b088      	sub	sp, #32
 80007f8:	af00      	add	r7, sp, #0

GPIO_InitTypeDef GPIO_InitStruct = {0};
 80007fa:	f107 030c 	add.w	r3, r7, #12
 80007fe:	2200      	movs	r2, #0
 8000800:	601a      	str	r2, [r3, #0]
 8000802:	605a      	str	r2, [r3, #4]
 8000804:	609a      	str	r2, [r3, #8]
 8000806:	60da      	str	r2, [r3, #12]
 8000808:	611a      	str	r2, [r3, #16]

/* GPIO Ports Clock Enable */
__HAL_RCC_GPIOD_CLK_ENABLE();
 800080a:	2300      	movs	r3, #0
 800080c:	60bb      	str	r3, [r7, #8]
 800080e:	4b23      	ldr	r3, [pc, #140]	; (800089c <GPIO_Init+0xa8>)
 8000810:	6b1b      	ldr	r3, [r3, #48]	; 0x30
 8000812:	4a22      	ldr	r2, [pc, #136]	; (800089c <GPIO_Init+0xa8>)
 8000814:	f043 0308 	orr.w	r3, r3, #8
 8000818:	6313      	str	r3, [r2, #48]	; 0x30
 800081a:	4b20      	ldr	r3, [pc, #128]	; (800089c <GPIO_Init+0xa8>)
 800081c:	6b1b      	ldr	r3, [r3, #48]	; 0x30
 800081e:	f003 0308 	and.w	r3, r3, #8
 8000822:	60bb      	str	r3, [r7, #8]
 8000824:	68bb      	ldr	r3, [r7, #8]
__HAL_RCC_GPIOA_CLK_ENABLE();
 8000826:	2300      	movs	r3, #0
 8000828:	607b      	str	r3, [r7, #4]
 800082a:	4b1c      	ldr	r3, [pc, #112]	; (800089c <GPIO_Init+0xa8>)
 800082c:	6b1b      	ldr	r3, [r3, #48]	; 0x30
 800082e:	4a1b      	ldr	r2, [pc, #108]	; (800089c <GPIO_Init+0xa8>)
 8000830:	f043 0301 	orr.w	r3, r3, #1
 8000834:	6313      	str	r3, [r2, #48]	; 0x30
 8000836:	4b19      	ldr	r3, [pc, #100]	; (800089c <GPIO_Init+0xa8>)
 8000838:	6b1b      	ldr	r3, [r3, #48]	; 0x30
 800083a:	f003 0301 	and.w	r3, r3, #1
 800083e:	607b      	str	r3, [r7, #4]
 8000840:	687b      	ldr	r3, [r7, #4]


/*Configure GPIO pin Output Level */
HAL_GPIO_WritePin(LED_GREEN_PORT, LED_GREEN_PIN, GPIO_PIN_RESET);
 8000842:	2200      	movs	r2, #0
 8000844:	f44f 4180 	mov.w	r1, #16384	; 0x4000
 8000848:	4815      	ldr	r0, [pc, #84]	; (80008a0 <GPIO_Init+0xac>)
 800084a:	f000 fc19 	bl	8001080 <HAL_GPIO_WritePin>
HAL_GPIO_WritePin(BUTTON_PORT, BUTTON_PIN, GPIO_PIN_RESET);
 800084e:	2200      	movs	r2, #0
 8000850:	2101      	movs	r1, #1
 8000852:	4814      	ldr	r0, [pc, #80]	; (80008a4 <GPIO_Init+0xb0>)
 8000854:	f000 fc14 	bl	8001080 <HAL_GPIO_WritePin>


/*Configure GPIO pins LED: LED_GREEN_PIN */
GPIO_InitStruct.Pin = LED_GREEN_PIN;
 8000858:	f44f 4380 	mov.w	r3, #16384	; 0x4000
 800085c:	60fb      	str	r3, [r7, #12]
GPIO_InitStruct.Mode = GPIO_MODE_OUTPUT_PP;
 800085e:	2301      	movs	r3, #1
 8000860:	613b      	str	r3, [r7, #16]
GPIO_InitStruct.Pull = GPIO_NOPULL;
 8000862:	2300      	movs	r3, #0
 8000864:	617b      	str	r3, [r7, #20]
GPIO_InitStruct.Speed = GPIO_SPEED_FREQ_LOW;
 8000866:	2300      	movs	r3, #0
 8000868:	61bb      	str	r3, [r7, #24]
HAL_GPIO_Init(LED_GREEN_PORT, &GPIO_InitStruct);
 800086a:	f107 030c 	add.w	r3, r7, #12
 800086e:	4619      	mov	r1, r3
 8000870:	480b      	ldr	r0, [pc, #44]	; (80008a0 <GPIO_Init+0xac>)
 8000872:	f000 fa53 	bl	8000d1c <HAL_GPIO_Init>

/*Configure GPIO pins BUTTON */
GPIO_InitStruct.Pin = BUTTON_PIN;
 8000876:	2301      	movs	r3, #1
 8000878:	60fb      	str	r3, [r7, #12]
GPIO_InitStruct.Mode = GPIO_MODE_OUTPUT_PP;
 800087a:	2301      	movs	r3, #1
 800087c:	613b      	str	r3, [r7, #16]
GPIO_InitStruct.Pull = GPIO_NOPULL;
 800087e:	2300      	movs	r3, #0
 8000880:	617b      	str	r3, [r7, #20]
GPIO_InitStruct.Speed = GPIO_SPEED_FREQ_LOW;
 8000882:	2300      	movs	r3, #0
 8000884:	61bb      	str	r3, [r7, #24]
HAL_GPIO_Init(BUTTON_PORT, &GPIO_InitStruct);
 8000886:	f107 030c 	add.w	r3, r7, #12
 800088a:	4619      	mov	r1, r3
 800088c:	4805      	ldr	r0, [pc, #20]	; (80008a4 <GPIO_Init+0xb0>)
 800088e:	f000 fa45 	bl	8000d1c <HAL_GPIO_Init>

}
 8000892:	bf00      	nop
 8000894:	3720      	adds	r7, #32
 8000896:	46bd      	mov	sp, r7
 8000898:	bd80      	pop	{r7, pc}
 800089a:	bf00      	nop
 800089c:	40023800 	.word	0x40023800
 80008a0:	40020c00 	.word	0x40020c00
 80008a4:	40020000 	.word	0x40020000

080008a8 <vtask1_Handler>:

/**
  * @brief  Function of task1.
  * @retval None
  */
void vtask1_Handler(void *params){
 80008a8:	b580      	push	{r7, lr}
 80008aa:	b082      	sub	sp, #8
 80008ac:	af00      	add	r7, sp, #0
 80008ae:	6078      	str	r0, [r7, #4]
	while(1){

		//Realizo e imprimo lectura de boton
		sprintf(msg,"Tarea 1. Lectura: %d\n",HAL_GPIO_ReadPin(BUTTON_PORT, BUTTON_PIN));
 80008b0:	2101      	movs	r1, #1
 80008b2:	4808      	ldr	r0, [pc, #32]	; (80008d4 <vtask1_Handler+0x2c>)
 80008b4:	f000 fbcc 	bl	8001050 <HAL_GPIO_ReadPin>
 80008b8:	4603      	mov	r3, r0
 80008ba:	461a      	mov	r2, r3
 80008bc:	4906      	ldr	r1, [pc, #24]	; (80008d8 <vtask1_Handler+0x30>)
 80008be:	4807      	ldr	r0, [pc, #28]	; (80008dc <vtask1_Handler+0x34>)
 80008c0:	f004 fcd0 	bl	8005264 <siprintf>
		UART2_write(msg);
 80008c4:	4805      	ldr	r0, [pc, #20]	; (80008dc <vtask1_Handler+0x34>)
 80008c6:	f7ff fedd 	bl	8000684 <UART2_write>

		//Genero delay de 1000ms
		vTaskDelay(pdMS_TO_TICKS(1000));
 80008ca:	f44f 707a 	mov.w	r0, #1000	; 0x3e8
 80008ce:	f002 f8a9 	bl	8002a24 <vTaskDelay>
		sprintf(msg,"Tarea 1. Lectura: %d\n",HAL_GPIO_ReadPin(BUTTON_PORT, BUTTON_PIN));
 80008d2:	e7ed      	b.n	80008b0 <vtask1_Handler+0x8>
 80008d4:	40020000 	.word	0x40020000
 80008d8:	08005a94 	.word	0x08005a94
 80008dc:	20015638 	.word	0x20015638

080008e0 <vtask2_Handler>:

/**
  * @brief  Function of task2.
  * @retval None
  */
void vtask2_Handler(void *params){
 80008e0:	b580      	push	{r7, lr}
 80008e2:	b082      	sub	sp, #8
 80008e4:	af00      	add	r7, sp, #0
 80008e6:	6078      	str	r0, [r7, #4]
	while(1){

		//Genero intermitencia en señal de boton
		HAL_GPIO_TogglePin(BUTTON_PORT, BUTTON_PIN);
 80008e8:	2101      	movs	r1, #1
 80008ea:	4804      	ldr	r0, [pc, #16]	; (80008fc <vtask2_Handler+0x1c>)
 80008ec:	f000 fbe1 	bl	80010b2 <HAL_GPIO_TogglePin>
		//Genero delay de 1000ms
		vTaskDelay(pdMS_TO_TICKS(1000));
 80008f0:	f44f 707a 	mov.w	r0, #1000	; 0x3e8
 80008f4:	f002 f896 	bl	8002a24 <vTaskDelay>
		HAL_GPIO_TogglePin(BUTTON_PORT, BUTTON_PIN);
 80008f8:	e7f6      	b.n	80008e8 <vtask2_Handler+0x8>
 80008fa:	bf00      	nop
 80008fc:	40020000 	.word	0x40020000

08000900 <Error_Handler>:
/**
  * @brief  This function is executed in case of error occurrence.
  * @retval None
  */
void Error_Handler(void)
{
 8000900:	b480      	push	{r7}
 8000902:	af00      	add	r7, sp, #0
	while(1);
 8000904:	e7fe      	b.n	8000904 <Error_Handler+0x4>

08000906 <HAL_MspInit>:
 8000906:	b580      	push	{r7, lr}
 8000908:	af00      	add	r7, sp, #0
 800090a:	2003      	movs	r0, #3
 800090c:	f000 f9d2 	bl	8000cb4 <HAL_NVIC_SetPriorityGrouping>
 8000910:	2200      	movs	r2, #0
 8000912:	210f      	movs	r1, #15
 8000914:	f06f 0001 	mvn.w	r0, #1
 8000918:	f000 f9d7 	bl	8000cca <HAL_NVIC_SetPriority>
 800091c:	bf00      	nop
 800091e:	bd80      	pop	{r7, pc}

08000920 <HAL_UART_MspInit>:
 8000920:	b580      	push	{r7, lr}
 8000922:	b08a      	sub	sp, #40	; 0x28
 8000924:	af00      	add	r7, sp, #0
 8000926:	6078      	str	r0, [r7, #4]
 8000928:	f107 0314 	add.w	r3, r7, #20
 800092c:	2200      	movs	r2, #0
 800092e:	601a      	str	r2, [r3, #0]
 8000930:	605a      	str	r2, [r3, #4]
 8000932:	609a      	str	r2, [r3, #8]
 8000934:	60da      	str	r2, [r3, #12]
 8000936:	611a      	str	r2, [r3, #16]
 8000938:	687b      	ldr	r3, [r7, #4]
 800093a:	681b      	ldr	r3, [r3, #0]
 800093c:	4a19      	ldr	r2, [pc, #100]	; (80009a4 <HAL_UART_MspInit+0x84>)
 800093e:	4293      	cmp	r3, r2
 8000940:	d12b      	bne.n	800099a <HAL_UART_MspInit+0x7a>
 8000942:	2300      	movs	r3, #0
 8000944:	613b      	str	r3, [r7, #16]
 8000946:	4b18      	ldr	r3, [pc, #96]	; (80009a8 <HAL_UART_MspInit+0x88>)
 8000948:	6c1b      	ldr	r3, [r3, #64]	; 0x40
 800094a:	4a17      	ldr	r2, [pc, #92]	; (80009a8 <HAL_UART_MspInit+0x88>)
 800094c:	f443 3300 	orr.w	r3, r3, #131072	; 0x20000
 8000950:	6413      	str	r3, [r2, #64]	; 0x40
 8000952:	4b15      	ldr	r3, [pc, #84]	; (80009a8 <HAL_UART_MspInit+0x88>)
 8000954:	6c1b      	ldr	r3, [r3, #64]	; 0x40
 8000956:	f403 3300 	and.w	r3, r3, #131072	; 0x20000
 800095a:	613b      	str	r3, [r7, #16]
 800095c:	693b      	ldr	r3, [r7, #16]
 800095e:	2300      	movs	r3, #0
 8000960:	60fb      	str	r3, [r7, #12]
 8000962:	4b11      	ldr	r3, [pc, #68]	; (80009a8 <HAL_UART_MspInit+0x88>)
 8000964:	6b1b      	ldr	r3, [r3, #48]	; 0x30
 8000966:	4a10      	ldr	r2, [pc, #64]	; (80009a8 <HAL_UART_MspInit+0x88>)
 8000968:	f043 0301 	orr.w	r3, r3, #1
 800096c:	6313      	str	r3, [r2, #48]	; 0x30
 800096e:	4b0e      	ldr	r3, [pc, #56]	; (80009a8 <HAL_UART_MspInit+0x88>)
 8000970:	6b1b      	ldr	r3, [r3, #48]	; 0x30
 8000972:	f003 0301 	and.w	r3, r3, #1
 8000976:	60fb      	str	r3, [r7, #12]
 8000978:	68fb      	ldr	r3, [r7, #12]
 800097a:	230c      	movs	r3, #12
 800097c:	617b      	str	r3, [r7, #20]
 800097e:	2302      	movs	r3, #2
 8000980:	61bb      	str	r3, [r7, #24]
 8000982:	2300      	movs	r3, #0
 8000984:	61fb      	str	r3, [r7, #28]
 8000986:	2303      	movs	r3, #3
 8000988:	623b      	str	r3, [r7, #32]
 800098a:	2307      	movs	r3, #7
 800098c:	627b      	str	r3, [r7, #36]	; 0x24
 800098e:	f107 0314 	add.w	r3, r7, #20
 8000992:	4619      	mov	r1, r3
 8000994:	4805      	ldr	r0, [pc, #20]	; (80009ac <HAL_UART_MspInit+0x8c>)
 8000996:	f000 f9c1 	bl	8000d1c <HAL_GPIO_Init>
 800099a:	bf00      	nop
 800099c:	3728      	adds	r7, #40	; 0x28
 800099e:	46bd      	mov	sp, r7
 80009a0:	bd80      	pop	{r7, pc}
 80009a2:	bf00      	nop
 80009a4:	40004400 	.word	0x40004400
 80009a8:	40023800 	.word	0x40023800
 80009ac:	40020000 	.word	0x40020000

080009b0 <NMI_Handler>:
 80009b0:	b480      	push	{r7}
 80009b2:	af00      	add	r7, sp, #0
 80009b4:	bf00      	nop
 80009b6:	46bd      	mov	sp, r7
 80009b8:	f85d 7b04 	ldr.w	r7, [sp], #4
 80009bc:	4770      	bx	lr

080009be <HardFault_Handler>:
 80009be:	b480      	push	{r7}
 80009c0:	af00      	add	r7, sp, #0
 80009c2:	e7fe      	b.n	80009c2 <HardFault_Handler+0x4>

080009c4 <MemManage_Handler>:
 80009c4:	b480      	push	{r7}
 80009c6:	af00      	add	r7, sp, #0
 80009c8:	e7fe      	b.n	80009c8 <MemManage_Handler+0x4>

080009ca <BusFault_Handler>:
 80009ca:	b480      	push	{r7}
 80009cc:	af00      	add	r7, sp, #0
 80009ce:	e7fe      	b.n	80009ce <BusFault_Handler+0x4>

080009d0 <UsageFault_Handler>:
 80009d0:	b480      	push	{r7}
 80009d2:	af00      	add	r7, sp, #0
 80009d4:	e7fe      	b.n	80009d4 <UsageFault_Handler+0x4>

080009d6 <SysTick_Handler>:
 80009d6:	b580      	push	{r7, lr}
 80009d8:	af00      	add	r7, sp, #0
 80009da:	f000 f899 	bl	8000b10 <HAL_IncTick>
 80009de:	f002 fdab 	bl	8003538 <xPortSysTickHandler>
 80009e2:	bf00      	nop
 80009e4:	bd80      	pop	{r7, pc}
	...

080009e8 <_sbrk>:
 80009e8:	b580      	push	{r7, lr}
 80009ea:	b084      	sub	sp, #16
 80009ec:	af00      	add	r7, sp, #0
 80009ee:	6078      	str	r0, [r7, #4]
 80009f0:	4b11      	ldr	r3, [pc, #68]	; (8000a38 <_sbrk+0x50>)
 80009f2:	681b      	ldr	r3, [r3, #0]
 80009f4:	2b00      	cmp	r3, #0
 80009f6:	d102      	bne.n	80009fe <_sbrk+0x16>
 80009f8:	4b0f      	ldr	r3, [pc, #60]	; (8000a38 <_sbrk+0x50>)
 80009fa:	4a10      	ldr	r2, [pc, #64]	; (8000a3c <_sbrk+0x54>)
 80009fc:	601a      	str	r2, [r3, #0]
 80009fe:	4b0e      	ldr	r3, [pc, #56]	; (8000a38 <_sbrk+0x50>)
 8000a00:	681b      	ldr	r3, [r3, #0]
 8000a02:	60fb      	str	r3, [r7, #12]
 8000a04:	4b0c      	ldr	r3, [pc, #48]	; (8000a38 <_sbrk+0x50>)
 8000a06:	681a      	ldr	r2, [r3, #0]
 8000a08:	687b      	ldr	r3, [r7, #4]
 8000a0a:	4413      	add	r3, r2
 8000a0c:	466a      	mov	r2, sp
 8000a0e:	4293      	cmp	r3, r2
 8000a10:	d907      	bls.n	8000a22 <_sbrk+0x3a>
 8000a12:	f004 fbdb 	bl	80051cc <__errno>
 8000a16:	4602      	mov	r2, r0
 8000a18:	230c      	movs	r3, #12
 8000a1a:	6013      	str	r3, [r2, #0]
 8000a1c:	f04f 33ff 	mov.w	r3, #4294967295
 8000a20:	e006      	b.n	8000a30 <_sbrk+0x48>
 8000a22:	4b05      	ldr	r3, [pc, #20]	; (8000a38 <_sbrk+0x50>)
 8000a24:	681a      	ldr	r2, [r3, #0]
 8000a26:	687b      	ldr	r3, [r7, #4]
 8000a28:	4413      	add	r3, r2
 8000a2a:	4a03      	ldr	r2, [pc, #12]	; (8000a38 <_sbrk+0x50>)
 8000a2c:	6013      	str	r3, [r2, #0]
 8000a2e:	68fb      	ldr	r3, [r7, #12]
 8000a30:	4618      	mov	r0, r3
 8000a32:	3710      	adds	r7, #16
 8000a34:	46bd      	mov	sp, r7
 8000a36:	bd80      	pop	{r7, pc}
 8000a38:	20000098 	.word	0x20000098
 8000a3c:	20015750 	.word	0x20015750

08000a40 <SystemInit>:
 8000a40:	b480      	push	{r7}
 8000a42:	af00      	add	r7, sp, #0
 8000a44:	4b08      	ldr	r3, [pc, #32]	; (8000a68 <SystemInit+0x28>)
 8000a46:	f8d3 3088 	ldr.w	r3, [r3, #136]	; 0x88
 8000a4a:	4a07      	ldr	r2, [pc, #28]	; (8000a68 <SystemInit+0x28>)
 8000a4c:	f443 0370 	orr.w	r3, r3, #15728640	; 0xf00000
 8000a50:	f8c2 3088 	str.w	r3, [r2, #136]	; 0x88
 8000a54:	4b04      	ldr	r3, [pc, #16]	; (8000a68 <SystemInit+0x28>)
 8000a56:	f04f 6200 	mov.w	r2, #134217728	; 0x8000000
 8000a5a:	609a      	str	r2, [r3, #8]
 8000a5c:	bf00      	nop
 8000a5e:	46bd      	mov	sp, r7
 8000a60:	f85d 7b04 	ldr.w	r7, [sp], #4
 8000a64:	4770      	bx	lr
 8000a66:	bf00      	nop
 8000a68:	e000ed00 	.word	0xe000ed00

08000a6c <HAL_Init>:
 8000a6c:	b580      	push	{r7, lr}
 8000a6e:	af00      	add	r7, sp, #0
 8000a70:	4b0e      	ldr	r3, [pc, #56]	; (8000aac <HAL_Init+0x40>)
 8000a72:	681b      	ldr	r3, [r3, #0]
 8000a74:	4a0d      	ldr	r2, [pc, #52]	; (8000aac <HAL_Init+0x40>)
 8000a76:	f443 7300 	orr.w	r3, r3, #512	; 0x200
 8000a7a:	6013      	str	r3, [r2, #0]
 8000a7c:	4b0b      	ldr	r3, [pc, #44]	; (8000aac <HAL_Init+0x40>)
 8000a7e:	681b      	ldr	r3, [r3, #0]
 8000a80:	4a0a      	ldr	r2, [pc, #40]	; (8000aac <HAL_Init+0x40>)
 8000a82:	f443 6380 	orr.w	r3, r3, #1024	; 0x400
 8000a86:	6013      	str	r3, [r2, #0]
 8000a88:	4b08      	ldr	r3, [pc, #32]	; (8000aac <HAL_Init+0x40>)
 8000a8a:	681b      	ldr	r3, [r3, #0]
 8000a8c:	4a07      	ldr	r2, [pc, #28]	; (8000aac <HAL_Init+0x40>)
 8000a8e:	f443 7380 	orr.w	r3, r3, #256	; 0x100
 8000a92:	6013      	str	r3, [r2, #0]
 8000a94:	2003      	movs	r0, #3
 8000a96:	f000 f90d 	bl	8000cb4 <HAL_NVIC_SetPriorityGrouping>
 8000a9a:	200f      	movs	r0, #15
 8000a9c:	f000 f808 	bl	8000ab0 <HAL_InitTick>
 8000aa0:	f7ff ff31 	bl	8000906 <HAL_MspInit>
 8000aa4:	2300      	movs	r3, #0
 8000aa6:	4618      	mov	r0, r3
 8000aa8:	bd80      	pop	{r7, pc}
 8000aaa:	bf00      	nop
 8000aac:	40023c00 	.word	0x40023c00

08000ab0 <HAL_InitTick>:
 8000ab0:	b580      	push	{r7, lr}
 8000ab2:	b082      	sub	sp, #8
 8000ab4:	af00      	add	r7, sp, #0
 8000ab6:	6078      	str	r0, [r7, #4]
 8000ab8:	4b12      	ldr	r3, [pc, #72]	; (8000b04 <HAL_InitTick+0x54>)
 8000aba:	681a      	ldr	r2, [r3, #0]
 8000abc:	4b12      	ldr	r3, [pc, #72]	; (8000b08 <HAL_InitTick+0x58>)
 8000abe:	781b      	ldrb	r3, [r3, #0]
 8000ac0:	4619      	mov	r1, r3
 8000ac2:	f44f 737a 	mov.w	r3, #1000	; 0x3e8
 8000ac6:	fbb3 f3f1 	udiv	r3, r3, r1
 8000aca:	fbb2 f3f3 	udiv	r3, r2, r3
 8000ace:	4618      	mov	r0, r3
 8000ad0:	f000 f917 	bl	8000d02 <HAL_SYSTICK_Config>
 8000ad4:	4603      	mov	r3, r0
 8000ad6:	2b00      	cmp	r3, #0
 8000ad8:	d001      	beq.n	8000ade <HAL_InitTick+0x2e>
 8000ada:	2301      	movs	r3, #1
 8000adc:	e00e      	b.n	8000afc <HAL_InitTick+0x4c>
 8000ade:	687b      	ldr	r3, [r7, #4]
 8000ae0:	2b0f      	cmp	r3, #15
 8000ae2:	d80a      	bhi.n	8000afa <HAL_InitTick+0x4a>
 8000ae4:	2200      	movs	r2, #0
 8000ae6:	6879      	ldr	r1, [r7, #4]
 8000ae8:	f04f 30ff 	mov.w	r0, #4294967295
 8000aec:	f000 f8ed 	bl	8000cca <HAL_NVIC_SetPriority>
 8000af0:	4a06      	ldr	r2, [pc, #24]	; (8000b0c <HAL_InitTick+0x5c>)
 8000af2:	687b      	ldr	r3, [r7, #4]
 8000af4:	6013      	str	r3, [r2, #0]
 8000af6:	2300      	movs	r3, #0
 8000af8:	e000      	b.n	8000afc <HAL_InitTick+0x4c>
 8000afa:	2301      	movs	r3, #1
 8000afc:	4618      	mov	r0, r3
 8000afe:	3708      	adds	r7, #8
 8000b00:	46bd      	mov	sp, r7
 8000b02:	bd80      	pop	{r7, pc}
 8000b04:	20000000 	.word	0x20000000
 8000b08:	20000008 	.word	0x20000008
 8000b0c:	20000004 	.word	0x20000004

08000b10 <HAL_IncTick>:
 8000b10:	b480      	push	{r7}
 8000b12:	af00      	add	r7, sp, #0
 8000b14:	4b06      	ldr	r3, [pc, #24]	; (8000b30 <HAL_IncTick+0x20>)
 8000b16:	781b      	ldrb	r3, [r3, #0]
 8000b18:	461a      	mov	r2, r3
 8000b1a:	4b06      	ldr	r3, [pc, #24]	; (8000b34 <HAL_IncTick+0x24>)
 8000b1c:	681b      	ldr	r3, [r3, #0]
 8000b1e:	4413      	add	r3, r2
 8000b20:	4a04      	ldr	r2, [pc, #16]	; (8000b34 <HAL_IncTick+0x24>)
 8000b22:	6013      	str	r3, [r2, #0]
 8000b24:	bf00      	nop
 8000b26:	46bd      	mov	sp, r7
 8000b28:	f85d 7b04 	ldr.w	r7, [sp], #4
 8000b2c:	4770      	bx	lr
 8000b2e:	bf00      	nop
 8000b30:	20000008 	.word	0x20000008
 8000b34:	2001569c 	.word	0x2001569c

08000b38 <HAL_GetTick>:
 8000b38:	b480      	push	{r7}
 8000b3a:	af00      	add	r7, sp, #0
 8000b3c:	4b03      	ldr	r3, [pc, #12]	; (8000b4c <HAL_GetTick+0x14>)
 8000b3e:	681b      	ldr	r3, [r3, #0]
 8000b40:	4618      	mov	r0, r3
 8000b42:	46bd      	mov	sp, r7
 8000b44:	f85d 7b04 	ldr.w	r7, [sp], #4
 8000b48:	4770      	bx	lr
 8000b4a:	bf00      	nop
 8000b4c:	2001569c 	.word	0x2001569c

08000b50 <__NVIC_SetPriorityGrouping>:
 8000b50:	b480      	push	{r7}
 8000b52:	b085      	sub	sp, #20
 8000b54:	af00      	add	r7, sp, #0
 8000b56:	6078      	str	r0, [r7, #4]
 8000b58:	687b      	ldr	r3, [r7, #4]
 8000b5a:	f003 0307 	and.w	r3, r3, #7
 8000b5e:	60fb      	str	r3, [r7, #12]
 8000b60:	4b0c      	ldr	r3, [pc, #48]	; (8000b94 <__NVIC_SetPriorityGrouping+0x44>)
 8000b62:	68db      	ldr	r3, [r3, #12]
 8000b64:	60bb      	str	r3, [r7, #8]
 8000b66:	68ba      	ldr	r2, [r7, #8]
 8000b68:	f64f 03ff 	movw	r3, #63743	; 0xf8ff
 8000b6c:	4013      	ands	r3, r2
 8000b6e:	60bb      	str	r3, [r7, #8]
 8000b70:	68fb      	ldr	r3, [r7, #12]
 8000b72:	021a      	lsls	r2, r3, #8
 8000b74:	68bb      	ldr	r3, [r7, #8]
 8000b76:	4313      	orrs	r3, r2
 8000b78:	f043 63bf 	orr.w	r3, r3, #100139008	; 0x5f80000
 8000b7c:	f443 3300 	orr.w	r3, r3, #131072	; 0x20000
 8000b80:	60bb      	str	r3, [r7, #8]
 8000b82:	4a04      	ldr	r2, [pc, #16]	; (8000b94 <__NVIC_SetPriorityGrouping+0x44>)
 8000b84:	68bb      	ldr	r3, [r7, #8]
 8000b86:	60d3      	str	r3, [r2, #12]
 8000b88:	bf00      	nop
 8000b8a:	3714      	adds	r7, #20
 8000b8c:	46bd      	mov	sp, r7
 8000b8e:	f85d 7b04 	ldr.w	r7, [sp], #4
 8000b92:	4770      	bx	lr
 8000b94:	e000ed00 	.word	0xe000ed00

08000b98 <__NVIC_GetPriorityGrouping>:
 8000b98:	b480      	push	{r7}
 8000b9a:	af00      	add	r7, sp, #0
 8000b9c:	4b04      	ldr	r3, [pc, #16]	; (8000bb0 <__NVIC_GetPriorityGrouping+0x18>)
 8000b9e:	68db      	ldr	r3, [r3, #12]
 8000ba0:	0a1b      	lsrs	r3, r3, #8
 8000ba2:	f003 0307 	and.w	r3, r3, #7
 8000ba6:	4618      	mov	r0, r3
 8000ba8:	46bd      	mov	sp, r7
 8000baa:	f85d 7b04 	ldr.w	r7, [sp], #4
 8000bae:	4770      	bx	lr
 8000bb0:	e000ed00 	.word	0xe000ed00

08000bb4 <__NVIC_SetPriority>:
 8000bb4:	b480      	push	{r7}
 8000bb6:	b083      	sub	sp, #12
 8000bb8:	af00      	add	r7, sp, #0
 8000bba:	4603      	mov	r3, r0
 8000bbc:	6039      	str	r1, [r7, #0]
 8000bbe:	71fb      	strb	r3, [r7, #7]
 8000bc0:	f997 3007 	ldrsb.w	r3, [r7, #7]
 8000bc4:	2b00      	cmp	r3, #0
 8000bc6:	db0a      	blt.n	8000bde <__NVIC_SetPriority+0x2a>
 8000bc8:	683b      	ldr	r3, [r7, #0]
 8000bca:	b2da      	uxtb	r2, r3
 8000bcc:	490c      	ldr	r1, [pc, #48]	; (8000c00 <__NVIC_SetPriority+0x4c>)
 8000bce:	f997 3007 	ldrsb.w	r3, [r7, #7]
 8000bd2:	0112      	lsls	r2, r2, #4
 8000bd4:	b2d2      	uxtb	r2, r2
 8000bd6:	440b      	add	r3, r1
 8000bd8:	f883 2300 	strb.w	r2, [r3, #768]	; 0x300
 8000bdc:	e00a      	b.n	8000bf4 <__NVIC_SetPriority+0x40>
 8000bde:	683b      	ldr	r3, [r7, #0]
 8000be0:	b2da      	uxtb	r2, r3
 8000be2:	4908      	ldr	r1, [pc, #32]	; (8000c04 <__NVIC_SetPriority+0x50>)
 8000be4:	79fb      	ldrb	r3, [r7, #7]
 8000be6:	f003 030f 	and.w	r3, r3, #15
 8000bea:	3b04      	subs	r3, #4
 8000bec:	0112      	lsls	r2, r2, #4
 8000bee:	b2d2      	uxtb	r2, r2
 8000bf0:	440b      	add	r3, r1
 8000bf2:	761a      	strb	r2, [r3, #24]
 8000bf4:	bf00      	nop
 8000bf6:	370c      	adds	r7, #12
 8000bf8:	46bd      	mov	sp, r7
 8000bfa:	f85d 7b04 	ldr.w	r7, [sp], #4
 8000bfe:	4770      	bx	lr
 8000c00:	e000e100 	.word	0xe000e100
 8000c04:	e000ed00 	.word	0xe000ed00

08000c08 <NVIC_EncodePriority>:
 8000c08:	b480      	push	{r7}
 8000c0a:	b089      	sub	sp, #36	; 0x24
 8000c0c:	af00      	add	r7, sp, #0
 8000c0e:	60f8      	str	r0, [r7, #12]
 8000c10:	60b9      	str	r1, [r7, #8]
 8000c12:	607a      	str	r2, [r7, #4]
 8000c14:	68fb      	ldr	r3, [r7, #12]
 8000c16:	f003 0307 	and.w	r3, r3, #7
 8000c1a:	61fb      	str	r3, [r7, #28]
 8000c1c:	69fb      	ldr	r3, [r7, #28]
 8000c1e:	f1c3 0307 	rsb	r3, r3, #7
 8000c22:	2b04      	cmp	r3, #4
 8000c24:	bf28      	it	cs
 8000c26:	2304      	movcs	r3, #4
 8000c28:	61bb      	str	r3, [r7, #24]
 8000c2a:	69fb      	ldr	r3, [r7, #28]
 8000c2c:	3304      	adds	r3, #4
 8000c2e:	2b06      	cmp	r3, #6
 8000c30:	d902      	bls.n	8000c38 <NVIC_EncodePriority+0x30>
 8000c32:	69fb      	ldr	r3, [r7, #28]
 8000c34:	3b03      	subs	r3, #3
 8000c36:	e000      	b.n	8000c3a <NVIC_EncodePriority+0x32>
 8000c38:	2300      	movs	r3, #0
 8000c3a:	617b      	str	r3, [r7, #20]
 8000c3c:	f04f 32ff 	mov.w	r2, #4294967295
 8000c40:	69bb      	ldr	r3, [r7, #24]
 8000c42:	fa02 f303 	lsl.w	r3, r2, r3
 8000c46:	43da      	mvns	r2, r3
 8000c48:	68bb      	ldr	r3, [r7, #8]
 8000c4a:	401a      	ands	r2, r3
 8000c4c:	697b      	ldr	r3, [r7, #20]
 8000c4e:	409a      	lsls	r2, r3
 8000c50:	f04f 31ff 	mov.w	r1, #4294967295
 8000c54:	697b      	ldr	r3, [r7, #20]
 8000c56:	fa01 f303 	lsl.w	r3, r1, r3
 8000c5a:	43d9      	mvns	r1, r3
 8000c5c:	687b      	ldr	r3, [r7, #4]
 8000c5e:	400b      	ands	r3, r1
 8000c60:	4313      	orrs	r3, r2
 8000c62:	4618      	mov	r0, r3
 8000c64:	3724      	adds	r7, #36	; 0x24
 8000c66:	46bd      	mov	sp, r7
 8000c68:	f85d 7b04 	ldr.w	r7, [sp], #4
 8000c6c:	4770      	bx	lr
	...

08000c70 <SysTick_Config>:
 8000c70:	b580      	push	{r7, lr}
 8000c72:	b082      	sub	sp, #8
 8000c74:	af00      	add	r7, sp, #0
 8000c76:	6078      	str	r0, [r7, #4]
 8000c78:	687b      	ldr	r3, [r7, #4]
 8000c7a:	3b01      	subs	r3, #1
 8000c7c:	f1b3 7f80 	cmp.w	r3, #16777216	; 0x1000000
 8000c80:	d301      	bcc.n	8000c86 <SysTick_Config+0x16>
 8000c82:	2301      	movs	r3, #1
 8000c84:	e00f      	b.n	8000ca6 <SysTick_Config+0x36>
 8000c86:	4a0a      	ldr	r2, [pc, #40]	; (8000cb0 <SysTick_Config+0x40>)
 8000c88:	687b      	ldr	r3, [r7, #4]
 8000c8a:	3b01      	subs	r3, #1
 8000c8c:	6053      	str	r3, [r2, #4]
 8000c8e:	210f      	movs	r1, #15
 8000c90:	f04f 30ff 	mov.w	r0, #4294967295
 8000c94:	f7ff ff8e 	bl	8000bb4 <__NVIC_SetPriority>
 8000c98:	4b05      	ldr	r3, [pc, #20]	; (8000cb0 <SysTick_Config+0x40>)
 8000c9a:	2200      	movs	r2, #0
 8000c9c:	609a      	str	r2, [r3, #8]
 8000c9e:	4b04      	ldr	r3, [pc, #16]	; (8000cb0 <SysTick_Config+0x40>)
 8000ca0:	2207      	movs	r2, #7
 8000ca2:	601a      	str	r2, [r3, #0]
 8000ca4:	2300      	movs	r3, #0
 8000ca6:	4618      	mov	r0, r3
 8000ca8:	3708      	adds	r7, #8
 8000caa:	46bd      	mov	sp, r7
 8000cac:	bd80      	pop	{r7, pc}
 8000cae:	bf00      	nop
 8000cb0:	e000e010 	.word	0xe000e010

08000cb4 <HAL_NVIC_SetPriorityGrouping>:
 8000cb4:	b580      	push	{r7, lr}
 8000cb6:	b082      	sub	sp, #8
 8000cb8:	af00      	add	r7, sp, #0
 8000cba:	6078      	str	r0, [r7, #4]
 8000cbc:	6878      	ldr	r0, [r7, #4]
 8000cbe:	f7ff ff47 	bl	8000b50 <__NVIC_SetPriorityGrouping>
 8000cc2:	bf00      	nop
 8000cc4:	3708      	adds	r7, #8
 8000cc6:	46bd      	mov	sp, r7
 8000cc8:	bd80      	pop	{r7, pc}

08000cca <HAL_NVIC_SetPriority>:
 8000cca:	b580      	push	{r7, lr}
 8000ccc:	b086      	sub	sp, #24
 8000cce:	af00      	add	r7, sp, #0
 8000cd0:	4603      	mov	r3, r0
 8000cd2:	60b9      	str	r1, [r7, #8]
 8000cd4:	607a      	str	r2, [r7, #4]
 8000cd6:	73fb      	strb	r3, [r7, #15]
 8000cd8:	2300      	movs	r3, #0
 8000cda:	617b      	str	r3, [r7, #20]
 8000cdc:	f7ff ff5c 	bl	8000b98 <__NVIC_GetPriorityGrouping>
 8000ce0:	6178      	str	r0, [r7, #20]
 8000ce2:	687a      	ldr	r2, [r7, #4]
 8000ce4:	68b9      	ldr	r1, [r7, #8]
 8000ce6:	6978      	ldr	r0, [r7, #20]
 8000ce8:	f7ff ff8e 	bl	8000c08 <NVIC_EncodePriority>
 8000cec:	4602      	mov	r2, r0
 8000cee:	f997 300f 	ldrsb.w	r3, [r7, #15]
 8000cf2:	4611      	mov	r1, r2
 8000cf4:	4618      	mov	r0, r3
 8000cf6:	f7ff ff5d 	bl	8000bb4 <__NVIC_SetPriority>
 8000cfa:	bf00      	nop
 8000cfc:	3718      	adds	r7, #24
 8000cfe:	46bd      	mov	sp, r7
 8000d00:	bd80      	pop	{r7, pc}

08000d02 <HAL_SYSTICK_Config>:
 8000d02:	b580      	push	{r7, lr}
 8000d04:	b082      	sub	sp, #8
 8000d06:	af00      	add	r7, sp, #0
 8000d08:	6078      	str	r0, [r7, #4]
 8000d0a:	6878      	ldr	r0, [r7, #4]
 8000d0c:	f7ff ffb0 	bl	8000c70 <SysTick_Config>
 8000d10:	4603      	mov	r3, r0
 8000d12:	4618      	mov	r0, r3
 8000d14:	3708      	adds	r7, #8
 8000d16:	46bd      	mov	sp, r7
 8000d18:	bd80      	pop	{r7, pc}
	...

08000d1c <HAL_GPIO_Init>:
 8000d1c:	b480      	push	{r7}
 8000d1e:	b089      	sub	sp, #36	; 0x24
 8000d20:	af00      	add	r7, sp, #0
 8000d22:	6078      	str	r0, [r7, #4]
 8000d24:	6039      	str	r1, [r7, #0]
 8000d26:	2300      	movs	r3, #0
 8000d28:	617b      	str	r3, [r7, #20]
 8000d2a:	2300      	movs	r3, #0
 8000d2c:	613b      	str	r3, [r7, #16]
 8000d2e:	2300      	movs	r3, #0
 8000d30:	61bb      	str	r3, [r7, #24]
 8000d32:	2300      	movs	r3, #0
 8000d34:	61fb      	str	r3, [r7, #28]
 8000d36:	e16b      	b.n	8001010 <HAL_GPIO_Init+0x2f4>
 8000d38:	2201      	movs	r2, #1
 8000d3a:	69fb      	ldr	r3, [r7, #28]
 8000d3c:	fa02 f303 	lsl.w	r3, r2, r3
 8000d40:	617b      	str	r3, [r7, #20]
 8000d42:	683b      	ldr	r3, [r7, #0]
 8000d44:	681b      	ldr	r3, [r3, #0]
 8000d46:	697a      	ldr	r2, [r7, #20]
 8000d48:	4013      	ands	r3, r2
 8000d4a:	613b      	str	r3, [r7, #16]
 8000d4c:	693a      	ldr	r2, [r7, #16]
 8000d4e:	697b      	ldr	r3, [r7, #20]
 8000d50:	429a      	cmp	r2, r3
 8000d52:	f040 815a 	bne.w	800100a <HAL_GPIO_Init+0x2ee>
 8000d56:	683b      	ldr	r3, [r7, #0]
 8000d58:	685b      	ldr	r3, [r3, #4]
 8000d5a:	2b01      	cmp	r3, #1
 8000d5c:	d00b      	beq.n	8000d76 <HAL_GPIO_Init+0x5a>
 8000d5e:	683b      	ldr	r3, [r7, #0]
 8000d60:	685b      	ldr	r3, [r3, #4]
 8000d62:	2b02      	cmp	r3, #2
 8000d64:	d007      	beq.n	8000d76 <HAL_GPIO_Init+0x5a>
 8000d66:	683b      	ldr	r3, [r7, #0]
 8000d68:	685b      	ldr	r3, [r3, #4]
 8000d6a:	2b11      	cmp	r3, #17
 8000d6c:	d003      	beq.n	8000d76 <HAL_GPIO_Init+0x5a>
 8000d6e:	683b      	ldr	r3, [r7, #0]
 8000d70:	685b      	ldr	r3, [r3, #4]
 8000d72:	2b12      	cmp	r3, #18
 8000d74:	d130      	bne.n	8000dd8 <HAL_GPIO_Init+0xbc>
 8000d76:	687b      	ldr	r3, [r7, #4]
 8000d78:	689b      	ldr	r3, [r3, #8]
 8000d7a:	61bb      	str	r3, [r7, #24]
 8000d7c:	69fb      	ldr	r3, [r7, #28]
 8000d7e:	005b      	lsls	r3, r3, #1
 8000d80:	2203      	movs	r2, #3
 8000d82:	fa02 f303 	lsl.w	r3, r2, r3
 8000d86:	43db      	mvns	r3, r3
 8000d88:	69ba      	ldr	r2, [r7, #24]
 8000d8a:	4013      	ands	r3, r2
 8000d8c:	61bb      	str	r3, [r7, #24]
 8000d8e:	683b      	ldr	r3, [r7, #0]
 8000d90:	68da      	ldr	r2, [r3, #12]
 8000d92:	69fb      	ldr	r3, [r7, #28]
 8000d94:	005b      	lsls	r3, r3, #1
 8000d96:	fa02 f303 	lsl.w	r3, r2, r3
 8000d9a:	69ba      	ldr	r2, [r7, #24]
 8000d9c:	4313      	orrs	r3, r2
 8000d9e:	61bb      	str	r3, [r7, #24]
 8000da0:	687b      	ldr	r3, [r7, #4]
 8000da2:	69ba      	ldr	r2, [r7, #24]
 8000da4:	609a      	str	r2, [r3, #8]
 8000da6:	687b      	ldr	r3, [r7, #4]
 8000da8:	685b      	ldr	r3, [r3, #4]
 8000daa:	61bb      	str	r3, [r7, #24]
 8000dac:	2201      	movs	r2, #1
 8000dae:	69fb      	ldr	r3, [r7, #28]
 8000db0:	fa02 f303 	lsl.w	r3, r2, r3
 8000db4:	43db      	mvns	r3, r3
 8000db6:	69ba      	ldr	r2, [r7, #24]
 8000db8:	4013      	ands	r3, r2
 8000dba:	61bb      	str	r3, [r7, #24]
 8000dbc:	683b      	ldr	r3, [r7, #0]
 8000dbe:	685b      	ldr	r3, [r3, #4]
 8000dc0:	091b      	lsrs	r3, r3, #4
 8000dc2:	f003 0201 	and.w	r2, r3, #1
 8000dc6:	69fb      	ldr	r3, [r7, #28]
 8000dc8:	fa02 f303 	lsl.w	r3, r2, r3
 8000dcc:	69ba      	ldr	r2, [r7, #24]
 8000dce:	4313      	orrs	r3, r2
 8000dd0:	61bb      	str	r3, [r7, #24]
 8000dd2:	687b      	ldr	r3, [r7, #4]
 8000dd4:	69ba      	ldr	r2, [r7, #24]
 8000dd6:	605a      	str	r2, [r3, #4]
 8000dd8:	687b      	ldr	r3, [r7, #4]
 8000dda:	68db      	ldr	r3, [r3, #12]
 8000ddc:	61bb      	str	r3, [r7, #24]
 8000dde:	69fb      	ldr	r3, [r7, #28]
 8000de0:	005b      	lsls	r3, r3, #1
 8000de2:	2203      	movs	r2, #3
 8000de4:	fa02 f303 	lsl.w	r3, r2, r3
 8000de8:	43db      	mvns	r3, r3
 8000dea:	69ba      	ldr	r2, [r7, #24]
 8000dec:	4013      	ands	r3, r2
 8000dee:	61bb      	str	r3, [r7, #24]
 8000df0:	683b      	ldr	r3, [r7, #0]
 8000df2:	689a      	ldr	r2, [r3, #8]
 8000df4:	69fb      	ldr	r3, [r7, #28]
 8000df6:	005b      	lsls	r3, r3, #1
 8000df8:	fa02 f303 	lsl.w	r3, r2, r3
 8000dfc:	69ba      	ldr	r2, [r7, #24]
 8000dfe:	4313      	orrs	r3, r2
 8000e00:	61bb      	str	r3, [r7, #24]
 8000e02:	687b      	ldr	r3, [r7, #4]
 8000e04:	69ba      	ldr	r2, [r7, #24]
 8000e06:	60da      	str	r2, [r3, #12]
 8000e08:	683b      	ldr	r3, [r7, #0]
 8000e0a:	685b      	ldr	r3, [r3, #4]
 8000e0c:	2b02      	cmp	r3, #2
 8000e0e:	d003      	beq.n	8000e18 <HAL_GPIO_Init+0xfc>
 8000e10:	683b      	ldr	r3, [r7, #0]
 8000e12:	685b      	ldr	r3, [r3, #4]
 8000e14:	2b12      	cmp	r3, #18
 8000e16:	d123      	bne.n	8000e60 <HAL_GPIO_Init+0x144>
 8000e18:	69fb      	ldr	r3, [r7, #28]
 8000e1a:	08da      	lsrs	r2, r3, #3
 8000e1c:	687b      	ldr	r3, [r7, #4]
 8000e1e:	3208      	adds	r2, #8
 8000e20:	f853 3022 	ldr.w	r3, [r3, r2, lsl #2]
 8000e24:	61bb      	str	r3, [r7, #24]
 8000e26:	69fb      	ldr	r3, [r7, #28]
 8000e28:	f003 0307 	and.w	r3, r3, #7
 8000e2c:	009b      	lsls	r3, r3, #2
 8000e2e:	220f      	movs	r2, #15
 8000e30:	fa02 f303 	lsl.w	r3, r2, r3
 8000e34:	43db      	mvns	r3, r3
 8000e36:	69ba      	ldr	r2, [r7, #24]
 8000e38:	4013      	ands	r3, r2
 8000e3a:	61bb      	str	r3, [r7, #24]
 8000e3c:	683b      	ldr	r3, [r7, #0]
 8000e3e:	691a      	ldr	r2, [r3, #16]
 8000e40:	69fb      	ldr	r3, [r7, #28]
 8000e42:	f003 0307 	and.w	r3, r3, #7
 8000e46:	009b      	lsls	r3, r3, #2
 8000e48:	fa02 f303 	lsl.w	r3, r2, r3
 8000e4c:	69ba      	ldr	r2, [r7, #24]
 8000e4e:	4313      	orrs	r3, r2
 8000e50:	61bb      	str	r3, [r7, #24]
 8000e52:	69fb      	ldr	r3, [r7, #28]
 8000e54:	08da      	lsrs	r2, r3, #3
 8000e56:	687b      	ldr	r3, [r7, #4]
 8000e58:	3208      	adds	r2, #8
 8000e5a:	69b9      	ldr	r1, [r7, #24]
 8000e5c:	f843 1022 	str.w	r1, [r3, r2, lsl #2]
 8000e60:	687b      	ldr	r3, [r7, #4]
 8000e62:	681b      	ldr	r3, [r3, #0]
 8000e64:	61bb      	str	r3, [r7, #24]
 8000e66:	69fb      	ldr	r3, [r7, #28]
 8000e68:	005b      	lsls	r3, r3, #1
 8000e6a:	2203      	movs	r2, #3
 8000e6c:	fa02 f303 	lsl.w	r3, r2, r3
 8000e70:	43db      	mvns	r3, r3
 8000e72:	69ba      	ldr	r2, [r7, #24]
 8000e74:	4013      	ands	r3, r2
 8000e76:	61bb      	str	r3, [r7, #24]
 8000e78:	683b      	ldr	r3, [r7, #0]
 8000e7a:	685b      	ldr	r3, [r3, #4]
 8000e7c:	f003 0203 	and.w	r2, r3, #3
 8000e80:	69fb      	ldr	r3, [r7, #28]
 8000e82:	005b      	lsls	r3, r3, #1
 8000e84:	fa02 f303 	lsl.w	r3, r2, r3
 8000e88:	69ba      	ldr	r2, [r7, #24]
 8000e8a:	4313      	orrs	r3, r2
 8000e8c:	61bb      	str	r3, [r7, #24]
 8000e8e:	687b      	ldr	r3, [r7, #4]
 8000e90:	69ba      	ldr	r2, [r7, #24]
 8000e92:	601a      	str	r2, [r3, #0]
 8000e94:	683b      	ldr	r3, [r7, #0]
 8000e96:	685b      	ldr	r3, [r3, #4]
 8000e98:	f003 5380 	and.w	r3, r3, #268435456	; 0x10000000
 8000e9c:	2b00      	cmp	r3, #0
 8000e9e:	f000 80b4 	beq.w	800100a <HAL_GPIO_Init+0x2ee>
 8000ea2:	2300      	movs	r3, #0
 8000ea4:	60fb      	str	r3, [r7, #12]
 8000ea6:	4b5f      	ldr	r3, [pc, #380]	; (8001024 <HAL_GPIO_Init+0x308>)
 8000ea8:	6c5b      	ldr	r3, [r3, #68]	; 0x44
 8000eaa:	4a5e      	ldr	r2, [pc, #376]	; (8001024 <HAL_GPIO_Init+0x308>)
 8000eac:	f443 4380 	orr.w	r3, r3, #16384	; 0x4000
 8000eb0:	6453      	str	r3, [r2, #68]	; 0x44
 8000eb2:	4b5c      	ldr	r3, [pc, #368]	; (8001024 <HAL_GPIO_Init+0x308>)
 8000eb4:	6c5b      	ldr	r3, [r3, #68]	; 0x44
 8000eb6:	f403 4380 	and.w	r3, r3, #16384	; 0x4000
 8000eba:	60fb      	str	r3, [r7, #12]
 8000ebc:	68fb      	ldr	r3, [r7, #12]
 8000ebe:	4a5a      	ldr	r2, [pc, #360]	; (8001028 <HAL_GPIO_Init+0x30c>)
 8000ec0:	69fb      	ldr	r3, [r7, #28]
 8000ec2:	089b      	lsrs	r3, r3, #2
 8000ec4:	3302      	adds	r3, #2
 8000ec6:	f852 3023 	ldr.w	r3, [r2, r3, lsl #2]
 8000eca:	61bb      	str	r3, [r7, #24]
 8000ecc:	69fb      	ldr	r3, [r7, #28]
 8000ece:	f003 0303 	and.w	r3, r3, #3
 8000ed2:	009b      	lsls	r3, r3, #2
 8000ed4:	220f      	movs	r2, #15
 8000ed6:	fa02 f303 	lsl.w	r3, r2, r3
 8000eda:	43db      	mvns	r3, r3
 8000edc:	69ba      	ldr	r2, [r7, #24]
 8000ede:	4013      	ands	r3, r2
 8000ee0:	61bb      	str	r3, [r7, #24]
 8000ee2:	687b      	ldr	r3, [r7, #4]
 8000ee4:	4a51      	ldr	r2, [pc, #324]	; (800102c <HAL_GPIO_Init+0x310>)
 8000ee6:	4293      	cmp	r3, r2
 8000ee8:	d02b      	beq.n	8000f42 <HAL_GPIO_Init+0x226>
 8000eea:	687b      	ldr	r3, [r7, #4]
 8000eec:	4a50      	ldr	r2, [pc, #320]	; (8001030 <HAL_GPIO_Init+0x314>)
 8000eee:	4293      	cmp	r3, r2
 8000ef0:	d025      	beq.n	8000f3e <HAL_GPIO_Init+0x222>
 8000ef2:	687b      	ldr	r3, [r7, #4]
 8000ef4:	4a4f      	ldr	r2, [pc, #316]	; (8001034 <HAL_GPIO_Init+0x318>)
 8000ef6:	4293      	cmp	r3, r2
 8000ef8:	d01f      	beq.n	8000f3a <HAL_GPIO_Init+0x21e>
 8000efa:	687b      	ldr	r3, [r7, #4]
 8000efc:	4a4e      	ldr	r2, [pc, #312]	; (8001038 <HAL_GPIO_Init+0x31c>)
 8000efe:	4293      	cmp	r3, r2
 8000f00:	d019      	beq.n	8000f36 <HAL_GPIO_Init+0x21a>
 8000f02:	687b      	ldr	r3, [r7, #4]
 8000f04:	4a4d      	ldr	r2, [pc, #308]	; (800103c <HAL_GPIO_Init+0x320>)
 8000f06:	4293      	cmp	r3, r2
 8000f08:	d013      	beq.n	8000f32 <HAL_GPIO_Init+0x216>
 8000f0a:	687b      	ldr	r3, [r7, #4]
 8000f0c:	4a4c      	ldr	r2, [pc, #304]	; (8001040 <HAL_GPIO_Init+0x324>)
 8000f0e:	4293      	cmp	r3, r2
 8000f10:	d00d      	beq.n	8000f2e <HAL_GPIO_Init+0x212>
 8000f12:	687b      	ldr	r3, [r7, #4]
 8000f14:	4a4b      	ldr	r2, [pc, #300]	; (8001044 <HAL_GPIO_Init+0x328>)
 8000f16:	4293      	cmp	r3, r2
 8000f18:	d007      	beq.n	8000f2a <HAL_GPIO_Init+0x20e>
 8000f1a:	687b      	ldr	r3, [r7, #4]
 8000f1c:	4a4a      	ldr	r2, [pc, #296]	; (8001048 <HAL_GPIO_Init+0x32c>)
 8000f1e:	4293      	cmp	r3, r2
 8000f20:	d101      	bne.n	8000f26 <HAL_GPIO_Init+0x20a>
 8000f22:	2307      	movs	r3, #7
 8000f24:	e00e      	b.n	8000f44 <HAL_GPIO_Init+0x228>
 8000f26:	2308      	movs	r3, #8
 8000f28:	e00c      	b.n	8000f44 <HAL_GPIO_Init+0x228>
 8000f2a:	2306      	movs	r3, #6
 8000f2c:	e00a      	b.n	8000f44 <HAL_GPIO_Init+0x228>
 8000f2e:	2305      	movs	r3, #5
 8000f30:	e008      	b.n	8000f44 <HAL_GPIO_Init+0x228>
 8000f32:	2304      	movs	r3, #4
 8000f34:	e006      	b.n	8000f44 <HAL_GPIO_Init+0x228>
 8000f36:	2303      	movs	r3, #3
 8000f38:	e004      	b.n	8000f44 <HAL_GPIO_Init+0x228>
 8000f3a:	2302      	movs	r3, #2
 8000f3c:	e002      	b.n	8000f44 <HAL_GPIO_Init+0x228>
 8000f3e:	2301      	movs	r3, #1
 8000f40:	e000      	b.n	8000f44 <HAL_GPIO_Init+0x228>
 8000f42:	2300      	movs	r3, #0
 8000f44:	69fa      	ldr	r2, [r7, #28]
 8000f46:	f002 0203 	and.w	r2, r2, #3
 8000f4a:	0092      	lsls	r2, r2, #2
 8000f4c:	4093      	lsls	r3, r2
 8000f4e:	69ba      	ldr	r2, [r7, #24]
 8000f50:	4313      	orrs	r3, r2
 8000f52:	61bb      	str	r3, [r7, #24]
 8000f54:	4934      	ldr	r1, [pc, #208]	; (8001028 <HAL_GPIO_Init+0x30c>)
 8000f56:	69fb      	ldr	r3, [r7, #28]
 8000f58:	089b      	lsrs	r3, r3, #2
 8000f5a:	3302      	adds	r3, #2
 8000f5c:	69ba      	ldr	r2, [r7, #24]
 8000f5e:	f841 2023 	str.w	r2, [r1, r3, lsl #2]
 8000f62:	4b3a      	ldr	r3, [pc, #232]	; (800104c <HAL_GPIO_Init+0x330>)
 8000f64:	681b      	ldr	r3, [r3, #0]
 8000f66:	61bb      	str	r3, [r7, #24]
 8000f68:	693b      	ldr	r3, [r7, #16]
 8000f6a:	43db      	mvns	r3, r3
 8000f6c:	69ba      	ldr	r2, [r7, #24]
 8000f6e:	4013      	ands	r3, r2
 8000f70:	61bb      	str	r3, [r7, #24]
 8000f72:	683b      	ldr	r3, [r7, #0]
 8000f74:	685b      	ldr	r3, [r3, #4]
 8000f76:	f403 3380 	and.w	r3, r3, #65536	; 0x10000
 8000f7a:	2b00      	cmp	r3, #0
 8000f7c:	d003      	beq.n	8000f86 <HAL_GPIO_Init+0x26a>
 8000f7e:	69ba      	ldr	r2, [r7, #24]
 8000f80:	693b      	ldr	r3, [r7, #16]
 8000f82:	4313      	orrs	r3, r2
 8000f84:	61bb      	str	r3, [r7, #24]
 8000f86:	4a31      	ldr	r2, [pc, #196]	; (800104c <HAL_GPIO_Init+0x330>)
 8000f88:	69bb      	ldr	r3, [r7, #24]
 8000f8a:	6013      	str	r3, [r2, #0]
 8000f8c:	4b2f      	ldr	r3, [pc, #188]	; (800104c <HAL_GPIO_Init+0x330>)
 8000f8e:	685b      	ldr	r3, [r3, #4]
 8000f90:	61bb      	str	r3, [r7, #24]
 8000f92:	693b      	ldr	r3, [r7, #16]
 8000f94:	43db      	mvns	r3, r3
 8000f96:	69ba      	ldr	r2, [r7, #24]
 8000f98:	4013      	ands	r3, r2
 8000f9a:	61bb      	str	r3, [r7, #24]
 8000f9c:	683b      	ldr	r3, [r7, #0]
 8000f9e:	685b      	ldr	r3, [r3, #4]
 8000fa0:	f403 3300 	and.w	r3, r3, #131072	; 0x20000
 8000fa4:	2b00      	cmp	r3, #0
 8000fa6:	d003      	beq.n	8000fb0 <HAL_GPIO_Init+0x294>
 8000fa8:	69ba      	ldr	r2, [r7, #24]
 8000faa:	693b      	ldr	r3, [r7, #16]
 8000fac:	4313      	orrs	r3, r2
 8000fae:	61bb      	str	r3, [r7, #24]
 8000fb0:	4a26      	ldr	r2, [pc, #152]	; (800104c <HAL_GPIO_Init+0x330>)
 8000fb2:	69bb      	ldr	r3, [r7, #24]
 8000fb4:	6053      	str	r3, [r2, #4]
 8000fb6:	4b25      	ldr	r3, [pc, #148]	; (800104c <HAL_GPIO_Init+0x330>)
 8000fb8:	689b      	ldr	r3, [r3, #8]
 8000fba:	61bb      	str	r3, [r7, #24]
 8000fbc:	693b      	ldr	r3, [r7, #16]
 8000fbe:	43db      	mvns	r3, r3
 8000fc0:	69ba      	ldr	r2, [r7, #24]
 8000fc2:	4013      	ands	r3, r2
 8000fc4:	61bb      	str	r3, [r7, #24]
 8000fc6:	683b      	ldr	r3, [r7, #0]
 8000fc8:	685b      	ldr	r3, [r3, #4]
 8000fca:	f403 1380 	and.w	r3, r3, #1048576	; 0x100000
 8000fce:	2b00      	cmp	r3, #0
 8000fd0:	d003      	beq.n	8000fda <HAL_GPIO_Init+0x2be>
 8000fd2:	69ba      	ldr	r2, [r7, #24]
 8000fd4:	693b      	ldr	r3, [r7, #16]
 8000fd6:	4313      	orrs	r3, r2
 8000fd8:	61bb      	str	r3, [r7, #24]
 8000fda:	4a1c      	ldr	r2, [pc, #112]	; (800104c <HAL_GPIO_Init+0x330>)
 8000fdc:	69bb      	ldr	r3, [r7, #24]
 8000fde:	6093      	str	r3, [r2, #8]
 8000fe0:	4b1a      	ldr	r3, [pc, #104]	; (800104c <HAL_GPIO_Init+0x330>)
 8000fe2:	68db      	ldr	r3, [r3, #12]
 8000fe4:	61bb      	str	r3, [r7, #24]
 8000fe6:	693b      	ldr	r3, [r7, #16]
 8000fe8:	43db      	mvns	r3, r3
 8000fea:	69ba      	ldr	r2, [r7, #24]
 8000fec:	4013      	ands	r3, r2
 8000fee:	61bb      	str	r3, [r7, #24]
 8000ff0:	683b      	ldr	r3, [r7, #0]
 8000ff2:	685b      	ldr	r3, [r3, #4]
 8000ff4:	f403 1300 	and.w	r3, r3, #2097152	; 0x200000
 8000ff8:	2b00      	cmp	r3, #0
 8000ffa:	d003      	beq.n	8001004 <HAL_GPIO_Init+0x2e8>
 8000ffc:	69ba      	ldr	r2, [r7, #24]
 8000ffe:	693b      	ldr	r3, [r7, #16]
 8001000:	4313      	orrs	r3, r2
 8001002:	61bb      	str	r3, [r7, #24]
 8001004:	4a11      	ldr	r2, [pc, #68]	; (800104c <HAL_GPIO_Init+0x330>)
 8001006:	69bb      	ldr	r3, [r7, #24]
 8001008:	60d3      	str	r3, [r2, #12]
 800100a:	69fb      	ldr	r3, [r7, #28]
 800100c:	3301      	adds	r3, #1
 800100e:	61fb      	str	r3, [r7, #28]
 8001010:	69fb      	ldr	r3, [r7, #28]
 8001012:	2b0f      	cmp	r3, #15
 8001014:	f67f ae90 	bls.w	8000d38 <HAL_GPIO_Init+0x1c>
 8001018:	bf00      	nop
 800101a:	3724      	adds	r7, #36	; 0x24
 800101c:	46bd      	mov	sp, r7
 800101e:	f85d 7b04 	ldr.w	r7, [sp], #4
 8001022:	4770      	bx	lr
 8001024:	40023800 	.word	0x40023800
 8001028:	40013800 	.word	0x40013800
 800102c:	40020000 	.word	0x40020000
 8001030:	40020400 	.word	0x40020400
 8001034:	40020800 	.word	0x40020800
 8001038:	40020c00 	.word	0x40020c00
 800103c:	40021000 	.word	0x40021000
 8001040:	40021400 	.word	0x40021400
 8001044:	40021800 	.word	0x40021800
 8001048:	40021c00 	.word	0x40021c00
 800104c:	40013c00 	.word	0x40013c00

08001050 <HAL_GPIO_ReadPin>:
 8001050:	b480      	push	{r7}
 8001052:	b085      	sub	sp, #20
 8001054:	af00      	add	r7, sp, #0
 8001056:	6078      	str	r0, [r7, #4]
 8001058:	460b      	mov	r3, r1
 800105a:	807b      	strh	r3, [r7, #2]
 800105c:	687b      	ldr	r3, [r7, #4]
 800105e:	691a      	ldr	r2, [r3, #16]
 8001060:	887b      	ldrh	r3, [r7, #2]
 8001062:	4013      	ands	r3, r2
 8001064:	2b00      	cmp	r3, #0
 8001066:	d002      	beq.n	800106e <HAL_GPIO_ReadPin+0x1e>
 8001068:	2301      	movs	r3, #1
 800106a:	73fb      	strb	r3, [r7, #15]
 800106c:	e001      	b.n	8001072 <HAL_GPIO_ReadPin+0x22>
 800106e:	2300      	movs	r3, #0
 8001070:	73fb      	strb	r3, [r7, #15]
 8001072:	7bfb      	ldrb	r3, [r7, #15]
 8001074:	4618      	mov	r0, r3
 8001076:	3714      	adds	r7, #20
 8001078:	46bd      	mov	sp, r7
 800107a:	f85d 7b04 	ldr.w	r7, [sp], #4
 800107e:	4770      	bx	lr

08001080 <HAL_GPIO_WritePin>:
 8001080:	b480      	push	{r7}
 8001082:	b083      	sub	sp, #12
 8001084:	af00      	add	r7, sp, #0
 8001086:	6078      	str	r0, [r7, #4]
 8001088:	460b      	mov	r3, r1
 800108a:	807b      	strh	r3, [r7, #2]
 800108c:	4613      	mov	r3, r2
 800108e:	707b      	strb	r3, [r7, #1]
 8001090:	787b      	ldrb	r3, [r7, #1]
 8001092:	2b00      	cmp	r3, #0
 8001094:	d003      	beq.n	800109e <HAL_GPIO_WritePin+0x1e>
 8001096:	887a      	ldrh	r2, [r7, #2]
 8001098:	687b      	ldr	r3, [r7, #4]
 800109a:	619a      	str	r2, [r3, #24]
 800109c:	e003      	b.n	80010a6 <HAL_GPIO_WritePin+0x26>
 800109e:	887b      	ldrh	r3, [r7, #2]
 80010a0:	041a      	lsls	r2, r3, #16
 80010a2:	687b      	ldr	r3, [r7, #4]
 80010a4:	619a      	str	r2, [r3, #24]
 80010a6:	bf00      	nop
 80010a8:	370c      	adds	r7, #12
 80010aa:	46bd      	mov	sp, r7
 80010ac:	f85d 7b04 	ldr.w	r7, [sp], #4
 80010b0:	4770      	bx	lr

080010b2 <HAL_GPIO_TogglePin>:
 80010b2:	b480      	push	{r7}
 80010b4:	b083      	sub	sp, #12
 80010b6:	af00      	add	r7, sp, #0
 80010b8:	6078      	str	r0, [r7, #4]
 80010ba:	460b      	mov	r3, r1
 80010bc:	807b      	strh	r3, [r7, #2]
 80010be:	687b      	ldr	r3, [r7, #4]
 80010c0:	695a      	ldr	r2, [r3, #20]
 80010c2:	887b      	ldrh	r3, [r7, #2]
 80010c4:	401a      	ands	r2, r3
 80010c6:	887b      	ldrh	r3, [r7, #2]
 80010c8:	429a      	cmp	r2, r3
 80010ca:	d104      	bne.n	80010d6 <HAL_GPIO_TogglePin+0x24>
 80010cc:	887b      	ldrh	r3, [r7, #2]
 80010ce:	041a      	lsls	r2, r3, #16
 80010d0:	687b      	ldr	r3, [r7, #4]
 80010d2:	619a      	str	r2, [r3, #24]
 80010d4:	e002      	b.n	80010dc <HAL_GPIO_TogglePin+0x2a>
 80010d6:	887a      	ldrh	r2, [r7, #2]
 80010d8:	687b      	ldr	r3, [r7, #4]
 80010da:	619a      	str	r2, [r3, #24]
 80010dc:	bf00      	nop
 80010de:	370c      	adds	r7, #12
 80010e0:	46bd      	mov	sp, r7
 80010e2:	f85d 7b04 	ldr.w	r7, [sp], #4
 80010e6:	4770      	bx	lr

080010e8 <HAL_RCC_OscConfig>:
 80010e8:	b580      	push	{r7, lr}
 80010ea:	b086      	sub	sp, #24
 80010ec:	af00      	add	r7, sp, #0
 80010ee:	6078      	str	r0, [r7, #4]
 80010f0:	687b      	ldr	r3, [r7, #4]
 80010f2:	2b00      	cmp	r3, #0
 80010f4:	d101      	bne.n	80010fa <HAL_RCC_OscConfig+0x12>
 80010f6:	2301      	movs	r3, #1
 80010f8:	e25b      	b.n	80015b2 <HAL_RCC_OscConfig+0x4ca>
 80010fa:	687b      	ldr	r3, [r7, #4]
 80010fc:	681b      	ldr	r3, [r3, #0]
 80010fe:	f003 0301 	and.w	r3, r3, #1
 8001102:	2b00      	cmp	r3, #0
 8001104:	d075      	beq.n	80011f2 <HAL_RCC_OscConfig+0x10a>
 8001106:	4ba3      	ldr	r3, [pc, #652]	; (8001394 <HAL_RCC_OscConfig+0x2ac>)
 8001108:	689b      	ldr	r3, [r3, #8]
 800110a:	f003 030c 	and.w	r3, r3, #12
 800110e:	2b04      	cmp	r3, #4
 8001110:	d00c      	beq.n	800112c <HAL_RCC_OscConfig+0x44>
 8001112:	4ba0      	ldr	r3, [pc, #640]	; (8001394 <HAL_RCC_OscConfig+0x2ac>)
 8001114:	689b      	ldr	r3, [r3, #8]
 8001116:	f003 030c 	and.w	r3, r3, #12
 800111a:	2b08      	cmp	r3, #8
 800111c:	d112      	bne.n	8001144 <HAL_RCC_OscConfig+0x5c>
 800111e:	4b9d      	ldr	r3, [pc, #628]	; (8001394 <HAL_RCC_OscConfig+0x2ac>)
 8001120:	685b      	ldr	r3, [r3, #4]
 8001122:	f403 0380 	and.w	r3, r3, #4194304	; 0x400000
 8001126:	f5b3 0f80 	cmp.w	r3, #4194304	; 0x400000
 800112a:	d10b      	bne.n	8001144 <HAL_RCC_OscConfig+0x5c>
 800112c:	4b99      	ldr	r3, [pc, #612]	; (8001394 <HAL_RCC_OscConfig+0x2ac>)
 800112e:	681b      	ldr	r3, [r3, #0]
 8001130:	f403 3300 	and.w	r3, r3, #131072	; 0x20000
 8001134:	2b00      	cmp	r3, #0
 8001136:	d05b      	beq.n	80011f0 <HAL_RCC_OscConfig+0x108>
 8001138:	687b      	ldr	r3, [r7, #4]
 800113a:	685b      	ldr	r3, [r3, #4]
 800113c:	2b00      	cmp	r3, #0
 800113e:	d157      	bne.n	80011f0 <HAL_RCC_OscConfig+0x108>
 8001140:	2301      	movs	r3, #1
 8001142:	e236      	b.n	80015b2 <HAL_RCC_OscConfig+0x4ca>
 8001144:	687b      	ldr	r3, [r7, #4]
 8001146:	685b      	ldr	r3, [r3, #4]
 8001148:	f5b3 3f80 	cmp.w	r3, #65536	; 0x10000
 800114c:	d106      	bne.n	800115c <HAL_RCC_OscConfig+0x74>
 800114e:	4b91      	ldr	r3, [pc, #580]	; (8001394 <HAL_RCC_OscConfig+0x2ac>)
 8001150:	681b      	ldr	r3, [r3, #0]
 8001152:	4a90      	ldr	r2, [pc, #576]	; (8001394 <HAL_RCC_OscConfig+0x2ac>)
 8001154:	f443 3380 	orr.w	r3, r3, #65536	; 0x10000
 8001158:	6013      	str	r3, [r2, #0]
 800115a:	e01d      	b.n	8001198 <HAL_RCC_OscConfig+0xb0>
 800115c:	687b      	ldr	r3, [r7, #4]
 800115e:	685b      	ldr	r3, [r3, #4]
 8001160:	f5b3 2fa0 	cmp.w	r3, #327680	; 0x50000
 8001164:	d10c      	bne.n	8001180 <HAL_RCC_OscConfig+0x98>
 8001166:	4b8b      	ldr	r3, [pc, #556]	; (8001394 <HAL_RCC_OscConfig+0x2ac>)
 8001168:	681b      	ldr	r3, [r3, #0]
 800116a:	4a8a      	ldr	r2, [pc, #552]	; (8001394 <HAL_RCC_OscConfig+0x2ac>)
 800116c:	f443 2380 	orr.w	r3, r3, #262144	; 0x40000
 8001170:	6013      	str	r3, [r2, #0]
 8001172:	4b88      	ldr	r3, [pc, #544]	; (8001394 <HAL_RCC_OscConfig+0x2ac>)
 8001174:	681b      	ldr	r3, [r3, #0]
 8001176:	4a87      	ldr	r2, [pc, #540]	; (8001394 <HAL_RCC_OscConfig+0x2ac>)
 8001178:	f443 3380 	orr.w	r3, r3, #65536	; 0x10000
 800117c:	6013      	str	r3, [r2, #0]
 800117e:	e00b      	b.n	8001198 <HAL_RCC_OscConfig+0xb0>
 8001180:	4b84      	ldr	r3, [pc, #528]	; (8001394 <HAL_RCC_OscConfig+0x2ac>)
 8001182:	681b      	ldr	r3, [r3, #0]
 8001184:	4a83      	ldr	r2, [pc, #524]	; (8001394 <HAL_RCC_OscConfig+0x2ac>)
 8001186:	f423 3380 	bic.w	r3, r3, #65536	; 0x10000
 800118a:	6013      	str	r3, [r2, #0]
 800118c:	4b81      	ldr	r3, [pc, #516]	; (8001394 <HAL_RCC_OscConfig+0x2ac>)
 800118e:	681b      	ldr	r3, [r3, #0]
 8001190:	4a80      	ldr	r2, [pc, #512]	; (8001394 <HAL_RCC_OscConfig+0x2ac>)
 8001192:	f423 2380 	bic.w	r3, r3, #262144	; 0x40000
 8001196:	6013      	str	r3, [r2, #0]
 8001198:	687b      	ldr	r3, [r7, #4]
 800119a:	685b      	ldr	r3, [r3, #4]
 800119c:	2b00      	cmp	r3, #0
 800119e:	d013      	beq.n	80011c8 <HAL_RCC_OscConfig+0xe0>
 80011a0:	f7ff fcca 	bl	8000b38 <HAL_GetTick>
 80011a4:	6138      	str	r0, [r7, #16]
 80011a6:	e008      	b.n	80011ba <HAL_RCC_OscConfig+0xd2>
 80011a8:	f7ff fcc6 	bl	8000b38 <HAL_GetTick>
 80011ac:	4602      	mov	r2, r0
 80011ae:	693b      	ldr	r3, [r7, #16]
 80011b0:	1ad3      	subs	r3, r2, r3
 80011b2:	2b64      	cmp	r3, #100	; 0x64
 80011b4:	d901      	bls.n	80011ba <HAL_RCC_OscConfig+0xd2>
 80011b6:	2303      	movs	r3, #3
 80011b8:	e1fb      	b.n	80015b2 <HAL_RCC_OscConfig+0x4ca>
 80011ba:	4b76      	ldr	r3, [pc, #472]	; (8001394 <HAL_RCC_OscConfig+0x2ac>)
 80011bc:	681b      	ldr	r3, [r3, #0]
 80011be:	f403 3300 	and.w	r3, r3, #131072	; 0x20000
 80011c2:	2b00      	cmp	r3, #0
 80011c4:	d0f0      	beq.n	80011a8 <HAL_RCC_OscConfig+0xc0>
 80011c6:	e014      	b.n	80011f2 <HAL_RCC_OscConfig+0x10a>
 80011c8:	f7ff fcb6 	bl	8000b38 <HAL_GetTick>
 80011cc:	6138      	str	r0, [r7, #16]
 80011ce:	e008      	b.n	80011e2 <HAL_RCC_OscConfig+0xfa>
 80011d0:	f7ff fcb2 	bl	8000b38 <HAL_GetTick>
 80011d4:	4602      	mov	r2, r0
 80011d6:	693b      	ldr	r3, [r7, #16]
 80011d8:	1ad3      	subs	r3, r2, r3
 80011da:	2b64      	cmp	r3, #100	; 0x64
 80011dc:	d901      	bls.n	80011e2 <HAL_RCC_OscConfig+0xfa>
 80011de:	2303      	movs	r3, #3
 80011e0:	e1e7      	b.n	80015b2 <HAL_RCC_OscConfig+0x4ca>
 80011e2:	4b6c      	ldr	r3, [pc, #432]	; (8001394 <HAL_RCC_OscConfig+0x2ac>)
 80011e4:	681b      	ldr	r3, [r3, #0]
 80011e6:	f403 3300 	and.w	r3, r3, #131072	; 0x20000
 80011ea:	2b00      	cmp	r3, #0
 80011ec:	d1f0      	bne.n	80011d0 <HAL_RCC_OscConfig+0xe8>
 80011ee:	e000      	b.n	80011f2 <HAL_RCC_OscConfig+0x10a>
 80011f0:	bf00      	nop
 80011f2:	687b      	ldr	r3, [r7, #4]
 80011f4:	681b      	ldr	r3, [r3, #0]
 80011f6:	f003 0302 	and.w	r3, r3, #2
 80011fa:	2b00      	cmp	r3, #0
 80011fc:	d063      	beq.n	80012c6 <HAL_RCC_OscConfig+0x1de>
 80011fe:	4b65      	ldr	r3, [pc, #404]	; (8001394 <HAL_RCC_OscConfig+0x2ac>)
 8001200:	689b      	ldr	r3, [r3, #8]
 8001202:	f003 030c 	and.w	r3, r3, #12
 8001206:	2b00      	cmp	r3, #0
 8001208:	d00b      	beq.n	8001222 <HAL_RCC_OscConfig+0x13a>
 800120a:	4b62      	ldr	r3, [pc, #392]	; (8001394 <HAL_RCC_OscConfig+0x2ac>)
 800120c:	689b      	ldr	r3, [r3, #8]
 800120e:	f003 030c 	and.w	r3, r3, #12
 8001212:	2b08      	cmp	r3, #8
 8001214:	d11c      	bne.n	8001250 <HAL_RCC_OscConfig+0x168>
 8001216:	4b5f      	ldr	r3, [pc, #380]	; (8001394 <HAL_RCC_OscConfig+0x2ac>)
 8001218:	685b      	ldr	r3, [r3, #4]
 800121a:	f403 0380 	and.w	r3, r3, #4194304	; 0x400000
 800121e:	2b00      	cmp	r3, #0
 8001220:	d116      	bne.n	8001250 <HAL_RCC_OscConfig+0x168>
 8001222:	4b5c      	ldr	r3, [pc, #368]	; (8001394 <HAL_RCC_OscConfig+0x2ac>)
 8001224:	681b      	ldr	r3, [r3, #0]
 8001226:	f003 0302 	and.w	r3, r3, #2
 800122a:	2b00      	cmp	r3, #0
 800122c:	d005      	beq.n	800123a <HAL_RCC_OscConfig+0x152>
 800122e:	687b      	ldr	r3, [r7, #4]
 8001230:	68db      	ldr	r3, [r3, #12]
 8001232:	2b01      	cmp	r3, #1
 8001234:	d001      	beq.n	800123a <HAL_RCC_OscConfig+0x152>
 8001236:	2301      	movs	r3, #1
 8001238:	e1bb      	b.n	80015b2 <HAL_RCC_OscConfig+0x4ca>
 800123a:	4b56      	ldr	r3, [pc, #344]	; (8001394 <HAL_RCC_OscConfig+0x2ac>)
 800123c:	681b      	ldr	r3, [r3, #0]
 800123e:	f023 02f8 	bic.w	r2, r3, #248	; 0xf8
 8001242:	687b      	ldr	r3, [r7, #4]
 8001244:	691b      	ldr	r3, [r3, #16]
 8001246:	00db      	lsls	r3, r3, #3
 8001248:	4952      	ldr	r1, [pc, #328]	; (8001394 <HAL_RCC_OscConfig+0x2ac>)
 800124a:	4313      	orrs	r3, r2
 800124c:	600b      	str	r3, [r1, #0]
 800124e:	e03a      	b.n	80012c6 <HAL_RCC_OscConfig+0x1de>
 8001250:	687b      	ldr	r3, [r7, #4]
 8001252:	68db      	ldr	r3, [r3, #12]
 8001254:	2b00      	cmp	r3, #0
 8001256:	d020      	beq.n	800129a <HAL_RCC_OscConfig+0x1b2>
 8001258:	4b4f      	ldr	r3, [pc, #316]	; (8001398 <HAL_RCC_OscConfig+0x2b0>)
 800125a:	2201      	movs	r2, #1
 800125c:	601a      	str	r2, [r3, #0]
 800125e:	f7ff fc6b 	bl	8000b38 <HAL_GetTick>
 8001262:	6138      	str	r0, [r7, #16]
 8001264:	e008      	b.n	8001278 <HAL_RCC_OscConfig+0x190>
 8001266:	f7ff fc67 	bl	8000b38 <HAL_GetTick>
 800126a:	4602      	mov	r2, r0
 800126c:	693b      	ldr	r3, [r7, #16]
 800126e:	1ad3      	subs	r3, r2, r3
 8001270:	2b02      	cmp	r3, #2
 8001272:	d901      	bls.n	8001278 <HAL_RCC_OscConfig+0x190>
 8001274:	2303      	movs	r3, #3
 8001276:	e19c      	b.n	80015b2 <HAL_RCC_OscConfig+0x4ca>
 8001278:	4b46      	ldr	r3, [pc, #280]	; (8001394 <HAL_RCC_OscConfig+0x2ac>)
 800127a:	681b      	ldr	r3, [r3, #0]
 800127c:	f003 0302 	and.w	r3, r3, #2
 8001280:	2b00      	cmp	r3, #0
 8001282:	d0f0      	beq.n	8001266 <HAL_RCC_OscConfig+0x17e>
 8001284:	4b43      	ldr	r3, [pc, #268]	; (8001394 <HAL_RCC_OscConfig+0x2ac>)
 8001286:	681b      	ldr	r3, [r3, #0]
 8001288:	f023 02f8 	bic.w	r2, r3, #248	; 0xf8
 800128c:	687b      	ldr	r3, [r7, #4]
 800128e:	691b      	ldr	r3, [r3, #16]
 8001290:	00db      	lsls	r3, r3, #3
 8001292:	4940      	ldr	r1, [pc, #256]	; (8001394 <HAL_RCC_OscConfig+0x2ac>)
 8001294:	4313      	orrs	r3, r2
 8001296:	600b      	str	r3, [r1, #0]
 8001298:	e015      	b.n	80012c6 <HAL_RCC_OscConfig+0x1de>
 800129a:	4b3f      	ldr	r3, [pc, #252]	; (8001398 <HAL_RCC_OscConfig+0x2b0>)
 800129c:	2200      	movs	r2, #0
 800129e:	601a      	str	r2, [r3, #0]
 80012a0:	f7ff fc4a 	bl	8000b38 <HAL_GetTick>
 80012a4:	6138      	str	r0, [r7, #16]
 80012a6:	e008      	b.n	80012ba <HAL_RCC_OscConfig+0x1d2>
 80012a8:	f7ff fc46 	bl	8000b38 <HAL_GetTick>
 80012ac:	4602      	mov	r2, r0
 80012ae:	693b      	ldr	r3, [r7, #16]
 80012b0:	1ad3      	subs	r3, r2, r3
 80012b2:	2b02      	cmp	r3, #2
 80012b4:	d901      	bls.n	80012ba <HAL_RCC_OscConfig+0x1d2>
 80012b6:	2303      	movs	r3, #3
 80012b8:	e17b      	b.n	80015b2 <HAL_RCC_OscConfig+0x4ca>
 80012ba:	4b36      	ldr	r3, [pc, #216]	; (8001394 <HAL_RCC_OscConfig+0x2ac>)
 80012bc:	681b      	ldr	r3, [r3, #0]
 80012be:	f003 0302 	and.w	r3, r3, #2
 80012c2:	2b00      	cmp	r3, #0
 80012c4:	d1f0      	bne.n	80012a8 <HAL_RCC_OscConfig+0x1c0>
 80012c6:	687b      	ldr	r3, [r7, #4]
 80012c8:	681b      	ldr	r3, [r3, #0]
 80012ca:	f003 0308 	and.w	r3, r3, #8
 80012ce:	2b00      	cmp	r3, #0
 80012d0:	d030      	beq.n	8001334 <HAL_RCC_OscConfig+0x24c>
 80012d2:	687b      	ldr	r3, [r7, #4]
 80012d4:	695b      	ldr	r3, [r3, #20]
 80012d6:	2b00      	cmp	r3, #0
 80012d8:	d016      	beq.n	8001308 <HAL_RCC_OscConfig+0x220>
 80012da:	4b30      	ldr	r3, [pc, #192]	; (800139c <HAL_RCC_OscConfig+0x2b4>)
 80012dc:	2201      	movs	r2, #1
 80012de:	601a      	str	r2, [r3, #0]
 80012e0:	f7ff fc2a 	bl	8000b38 <HAL_GetTick>
 80012e4:	6138      	str	r0, [r7, #16]
 80012e6:	e008      	b.n	80012fa <HAL_RCC_OscConfig+0x212>
 80012e8:	f7ff fc26 	bl	8000b38 <HAL_GetTick>
 80012ec:	4602      	mov	r2, r0
 80012ee:	693b      	ldr	r3, [r7, #16]
 80012f0:	1ad3      	subs	r3, r2, r3
 80012f2:	2b02      	cmp	r3, #2
 80012f4:	d901      	bls.n	80012fa <HAL_RCC_OscConfig+0x212>
 80012f6:	2303      	movs	r3, #3
 80012f8:	e15b      	b.n	80015b2 <HAL_RCC_OscConfig+0x4ca>
 80012fa:	4b26      	ldr	r3, [pc, #152]	; (8001394 <HAL_RCC_OscConfig+0x2ac>)
 80012fc:	6f5b      	ldr	r3, [r3, #116]	; 0x74
 80012fe:	f003 0302 	and.w	r3, r3, #2
 8001302:	2b00      	cmp	r3, #0
 8001304:	d0f0      	beq.n	80012e8 <HAL_RCC_OscConfig+0x200>
 8001306:	e015      	b.n	8001334 <HAL_RCC_OscConfig+0x24c>
 8001308:	4b24      	ldr	r3, [pc, #144]	; (800139c <HAL_RCC_OscConfig+0x2b4>)
 800130a:	2200      	movs	r2, #0
 800130c:	601a      	str	r2, [r3, #0]
 800130e:	f7ff fc13 	bl	8000b38 <HAL_GetTick>
 8001312:	6138      	str	r0, [r7, #16]
 8001314:	e008      	b.n	8001328 <HAL_RCC_OscConfig+0x240>
 8001316:	f7ff fc0f 	bl	8000b38 <HAL_GetTick>
 800131a:	4602      	mov	r2, r0
 800131c:	693b      	ldr	r3, [r7, #16]
 800131e:	1ad3      	subs	r3, r2, r3
 8001320:	2b02      	cmp	r3, #2
 8001322:	d901      	bls.n	8001328 <HAL_RCC_OscConfig+0x240>
 8001324:	2303      	movs	r3, #3
 8001326:	e144      	b.n	80015b2 <HAL_RCC_OscConfig+0x4ca>
 8001328:	4b1a      	ldr	r3, [pc, #104]	; (8001394 <HAL_RCC_OscConfig+0x2ac>)
 800132a:	6f5b      	ldr	r3, [r3, #116]	; 0x74
 800132c:	f003 0302 	and.w	r3, r3, #2
 8001330:	2b00      	cmp	r3, #0
 8001332:	d1f0      	bne.n	8001316 <HAL_RCC_OscConfig+0x22e>
 8001334:	687b      	ldr	r3, [r7, #4]
 8001336:	681b      	ldr	r3, [r3, #0]
 8001338:	f003 0304 	and.w	r3, r3, #4
 800133c:	2b00      	cmp	r3, #0
 800133e:	f000 80a0 	beq.w	8001482 <HAL_RCC_OscConfig+0x39a>
 8001342:	2300      	movs	r3, #0
 8001344:	75fb      	strb	r3, [r7, #23]
 8001346:	4b13      	ldr	r3, [pc, #76]	; (8001394 <HAL_RCC_OscConfig+0x2ac>)
 8001348:	6c1b      	ldr	r3, [r3, #64]	; 0x40
 800134a:	f003 5380 	and.w	r3, r3, #268435456	; 0x10000000
 800134e:	2b00      	cmp	r3, #0
 8001350:	d10f      	bne.n	8001372 <HAL_RCC_OscConfig+0x28a>
 8001352:	2300      	movs	r3, #0
 8001354:	60bb      	str	r3, [r7, #8]
 8001356:	4b0f      	ldr	r3, [pc, #60]	; (8001394 <HAL_RCC_OscConfig+0x2ac>)
 8001358:	6c1b      	ldr	r3, [r3, #64]	; 0x40
 800135a:	4a0e      	ldr	r2, [pc, #56]	; (8001394 <HAL_RCC_OscConfig+0x2ac>)
 800135c:	f043 5380 	orr.w	r3, r3, #268435456	; 0x10000000
 8001360:	6413      	str	r3, [r2, #64]	; 0x40
 8001362:	4b0c      	ldr	r3, [pc, #48]	; (8001394 <HAL_RCC_OscConfig+0x2ac>)
 8001364:	6c1b      	ldr	r3, [r3, #64]	; 0x40
 8001366:	f003 5380 	and.w	r3, r3, #268435456	; 0x10000000
 800136a:	60bb      	str	r3, [r7, #8]
 800136c:	68bb      	ldr	r3, [r7, #8]
 800136e:	2301      	movs	r3, #1
 8001370:	75fb      	strb	r3, [r7, #23]
 8001372:	4b0b      	ldr	r3, [pc, #44]	; (80013a0 <HAL_RCC_OscConfig+0x2b8>)
 8001374:	681b      	ldr	r3, [r3, #0]
 8001376:	f403 7380 	and.w	r3, r3, #256	; 0x100
 800137a:	2b00      	cmp	r3, #0
 800137c:	d121      	bne.n	80013c2 <HAL_RCC_OscConfig+0x2da>
 800137e:	4b08      	ldr	r3, [pc, #32]	; (80013a0 <HAL_RCC_OscConfig+0x2b8>)
 8001380:	681b      	ldr	r3, [r3, #0]
 8001382:	4a07      	ldr	r2, [pc, #28]	; (80013a0 <HAL_RCC_OscConfig+0x2b8>)
 8001384:	f443 7380 	orr.w	r3, r3, #256	; 0x100
 8001388:	6013      	str	r3, [r2, #0]
 800138a:	f7ff fbd5 	bl	8000b38 <HAL_GetTick>
 800138e:	6138      	str	r0, [r7, #16]
 8001390:	e011      	b.n	80013b6 <HAL_RCC_OscConfig+0x2ce>
 8001392:	bf00      	nop
 8001394:	40023800 	.word	0x40023800
 8001398:	42470000 	.word	0x42470000
 800139c:	42470e80 	.word	0x42470e80
 80013a0:	40007000 	.word	0x40007000
 80013a4:	f7ff fbc8 	bl	8000b38 <HAL_GetTick>
 80013a8:	4602      	mov	r2, r0
 80013aa:	693b      	ldr	r3, [r7, #16]
 80013ac:	1ad3      	subs	r3, r2, r3
 80013ae:	2b02      	cmp	r3, #2
 80013b0:	d901      	bls.n	80013b6 <HAL_RCC_OscConfig+0x2ce>
 80013b2:	2303      	movs	r3, #3
 80013b4:	e0fd      	b.n	80015b2 <HAL_RCC_OscConfig+0x4ca>
 80013b6:	4b81      	ldr	r3, [pc, #516]	; (80015bc <HAL_RCC_OscConfig+0x4d4>)
 80013b8:	681b      	ldr	r3, [r3, #0]
 80013ba:	f403 7380 	and.w	r3, r3, #256	; 0x100
 80013be:	2b00      	cmp	r3, #0
 80013c0:	d0f0      	beq.n	80013a4 <HAL_RCC_OscConfig+0x2bc>
 80013c2:	687b      	ldr	r3, [r7, #4]
 80013c4:	689b      	ldr	r3, [r3, #8]
 80013c6:	2b01      	cmp	r3, #1
 80013c8:	d106      	bne.n	80013d8 <HAL_RCC_OscConfig+0x2f0>
 80013ca:	4b7d      	ldr	r3, [pc, #500]	; (80015c0 <HAL_RCC_OscConfig+0x4d8>)
 80013cc:	6f1b      	ldr	r3, [r3, #112]	; 0x70
 80013ce:	4a7c      	ldr	r2, [pc, #496]	; (80015c0 <HAL_RCC_OscConfig+0x4d8>)
 80013d0:	f043 0301 	orr.w	r3, r3, #1
 80013d4:	6713      	str	r3, [r2, #112]	; 0x70
 80013d6:	e01c      	b.n	8001412 <HAL_RCC_OscConfig+0x32a>
 80013d8:	687b      	ldr	r3, [r7, #4]
 80013da:	689b      	ldr	r3, [r3, #8]
 80013dc:	2b05      	cmp	r3, #5
 80013de:	d10c      	bne.n	80013fa <HAL_RCC_OscConfig+0x312>
 80013e0:	4b77      	ldr	r3, [pc, #476]	; (80015c0 <HAL_RCC_OscConfig+0x4d8>)
 80013e2:	6f1b      	ldr	r3, [r3, #112]	; 0x70
 80013e4:	4a76      	ldr	r2, [pc, #472]	; (80015c0 <HAL_RCC_OscConfig+0x4d8>)
 80013e6:	f043 0304 	orr.w	r3, r3, #4
 80013ea:	6713      	str	r3, [r2, #112]	; 0x70
 80013ec:	4b74      	ldr	r3, [pc, #464]	; (80015c0 <HAL_RCC_OscConfig+0x4d8>)
 80013ee:	6f1b      	ldr	r3, [r3, #112]	; 0x70
 80013f0:	4a73      	ldr	r2, [pc, #460]	; (80015c0 <HAL_RCC_OscConfig+0x4d8>)
 80013f2:	f043 0301 	orr.w	r3, r3, #1
 80013f6:	6713      	str	r3, [r2, #112]	; 0x70
 80013f8:	e00b      	b.n	8001412 <HAL_RCC_OscConfig+0x32a>
 80013fa:	4b71      	ldr	r3, [pc, #452]	; (80015c0 <HAL_RCC_OscConfig+0x4d8>)
 80013fc:	6f1b      	ldr	r3, [r3, #112]	; 0x70
 80013fe:	4a70      	ldr	r2, [pc, #448]	; (80015c0 <HAL_RCC_OscConfig+0x4d8>)
 8001400:	f023 0301 	bic.w	r3, r3, #1
 8001404:	6713      	str	r3, [r2, #112]	; 0x70
 8001406:	4b6e      	ldr	r3, [pc, #440]	; (80015c0 <HAL_RCC_OscConfig+0x4d8>)
 8001408:	6f1b      	ldr	r3, [r3, #112]	; 0x70
 800140a:	4a6d      	ldr	r2, [pc, #436]	; (80015c0 <HAL_RCC_OscConfig+0x4d8>)
 800140c:	f023 0304 	bic.w	r3, r3, #4
 8001410:	6713      	str	r3, [r2, #112]	; 0x70
 8001412:	687b      	ldr	r3, [r7, #4]
 8001414:	689b      	ldr	r3, [r3, #8]
 8001416:	2b00      	cmp	r3, #0
 8001418:	d015      	beq.n	8001446 <HAL_RCC_OscConfig+0x35e>
 800141a:	f7ff fb8d 	bl	8000b38 <HAL_GetTick>
 800141e:	6138      	str	r0, [r7, #16]
 8001420:	e00a      	b.n	8001438 <HAL_RCC_OscConfig+0x350>
 8001422:	f7ff fb89 	bl	8000b38 <HAL_GetTick>
 8001426:	4602      	mov	r2, r0
 8001428:	693b      	ldr	r3, [r7, #16]
 800142a:	1ad3      	subs	r3, r2, r3
 800142c:	f241 3288 	movw	r2, #5000	; 0x1388
 8001430:	4293      	cmp	r3, r2
 8001432:	d901      	bls.n	8001438 <HAL_RCC_OscConfig+0x350>
 8001434:	2303      	movs	r3, #3
 8001436:	e0bc      	b.n	80015b2 <HAL_RCC_OscConfig+0x4ca>
 8001438:	4b61      	ldr	r3, [pc, #388]	; (80015c0 <HAL_RCC_OscConfig+0x4d8>)
 800143a:	6f1b      	ldr	r3, [r3, #112]	; 0x70
 800143c:	f003 0302 	and.w	r3, r3, #2
 8001440:	2b00      	cmp	r3, #0
 8001442:	d0ee      	beq.n	8001422 <HAL_RCC_OscConfig+0x33a>
 8001444:	e014      	b.n	8001470 <HAL_RCC_OscConfig+0x388>
 8001446:	f7ff fb77 	bl	8000b38 <HAL_GetTick>
 800144a:	6138      	str	r0, [r7, #16]
 800144c:	e00a      	b.n	8001464 <HAL_RCC_OscConfig+0x37c>
 800144e:	f7ff fb73 	bl	8000b38 <HAL_GetTick>
 8001452:	4602      	mov	r2, r0
 8001454:	693b      	ldr	r3, [r7, #16]
 8001456:	1ad3      	subs	r3, r2, r3
 8001458:	f241 3288 	movw	r2, #5000	; 0x1388
 800145c:	4293      	cmp	r3, r2
 800145e:	d901      	bls.n	8001464 <HAL_RCC_OscConfig+0x37c>
 8001460:	2303      	movs	r3, #3
 8001462:	e0a6      	b.n	80015b2 <HAL_RCC_OscConfig+0x4ca>
 8001464:	4b56      	ldr	r3, [pc, #344]	; (80015c0 <HAL_RCC_OscConfig+0x4d8>)
 8001466:	6f1b      	ldr	r3, [r3, #112]	; 0x70
 8001468:	f003 0302 	and.w	r3, r3, #2
 800146c:	2b00      	cmp	r3, #0
 800146e:	d1ee      	bne.n	800144e <HAL_RCC_OscConfig+0x366>
 8001470:	7dfb      	ldrb	r3, [r7, #23]
 8001472:	2b01      	cmp	r3, #1
 8001474:	d105      	bne.n	8001482 <HAL_RCC_OscConfig+0x39a>
 8001476:	4b52      	ldr	r3, [pc, #328]	; (80015c0 <HAL_RCC_OscConfig+0x4d8>)
 8001478:	6c1b      	ldr	r3, [r3, #64]	; 0x40
 800147a:	4a51      	ldr	r2, [pc, #324]	; (80015c0 <HAL_RCC_OscConfig+0x4d8>)
 800147c:	f023 5380 	bic.w	r3, r3, #268435456	; 0x10000000
 8001480:	6413      	str	r3, [r2, #64]	; 0x40
 8001482:	687b      	ldr	r3, [r7, #4]
 8001484:	699b      	ldr	r3, [r3, #24]
 8001486:	2b00      	cmp	r3, #0
 8001488:	f000 8092 	beq.w	80015b0 <HAL_RCC_OscConfig+0x4c8>
 800148c:	4b4c      	ldr	r3, [pc, #304]	; (80015c0 <HAL_RCC_OscConfig+0x4d8>)
 800148e:	689b      	ldr	r3, [r3, #8]
 8001490:	f003 030c 	and.w	r3, r3, #12
 8001494:	2b08      	cmp	r3, #8
 8001496:	d05c      	beq.n	8001552 <HAL_RCC_OscConfig+0x46a>
 8001498:	687b      	ldr	r3, [r7, #4]
 800149a:	699b      	ldr	r3, [r3, #24]
 800149c:	2b02      	cmp	r3, #2
 800149e:	d141      	bne.n	8001524 <HAL_RCC_OscConfig+0x43c>
 80014a0:	4b48      	ldr	r3, [pc, #288]	; (80015c4 <HAL_RCC_OscConfig+0x4dc>)
 80014a2:	2200      	movs	r2, #0
 80014a4:	601a      	str	r2, [r3, #0]
 80014a6:	f7ff fb47 	bl	8000b38 <HAL_GetTick>
 80014aa:	6138      	str	r0, [r7, #16]
 80014ac:	e008      	b.n	80014c0 <HAL_RCC_OscConfig+0x3d8>
 80014ae:	f7ff fb43 	bl	8000b38 <HAL_GetTick>
 80014b2:	4602      	mov	r2, r0
 80014b4:	693b      	ldr	r3, [r7, #16]
 80014b6:	1ad3      	subs	r3, r2, r3
 80014b8:	2b02      	cmp	r3, #2
 80014ba:	d901      	bls.n	80014c0 <HAL_RCC_OscConfig+0x3d8>
 80014bc:	2303      	movs	r3, #3
 80014be:	e078      	b.n	80015b2 <HAL_RCC_OscConfig+0x4ca>
 80014c0:	4b3f      	ldr	r3, [pc, #252]	; (80015c0 <HAL_RCC_OscConfig+0x4d8>)
 80014c2:	681b      	ldr	r3, [r3, #0]
 80014c4:	f003 7300 	and.w	r3, r3, #33554432	; 0x2000000
 80014c8:	2b00      	cmp	r3, #0
 80014ca:	d1f0      	bne.n	80014ae <HAL_RCC_OscConfig+0x3c6>
 80014cc:	687b      	ldr	r3, [r7, #4]
 80014ce:	69da      	ldr	r2, [r3, #28]
 80014d0:	687b      	ldr	r3, [r7, #4]
 80014d2:	6a1b      	ldr	r3, [r3, #32]
 80014d4:	431a      	orrs	r2, r3
 80014d6:	687b      	ldr	r3, [r7, #4]
 80014d8:	6a5b      	ldr	r3, [r3, #36]	; 0x24
 80014da:	019b      	lsls	r3, r3, #6
 80014dc:	431a      	orrs	r2, r3
 80014de:	687b      	ldr	r3, [r7, #4]
 80014e0:	6a9b      	ldr	r3, [r3, #40]	; 0x28
 80014e2:	085b      	lsrs	r3, r3, #1
 80014e4:	3b01      	subs	r3, #1
 80014e6:	041b      	lsls	r3, r3, #16
 80014e8:	431a      	orrs	r2, r3
 80014ea:	687b      	ldr	r3, [r7, #4]
 80014ec:	6adb      	ldr	r3, [r3, #44]	; 0x2c
 80014ee:	061b      	lsls	r3, r3, #24
 80014f0:	4933      	ldr	r1, [pc, #204]	; (80015c0 <HAL_RCC_OscConfig+0x4d8>)
 80014f2:	4313      	orrs	r3, r2
 80014f4:	604b      	str	r3, [r1, #4]
 80014f6:	4b33      	ldr	r3, [pc, #204]	; (80015c4 <HAL_RCC_OscConfig+0x4dc>)
 80014f8:	2201      	movs	r2, #1
 80014fa:	601a      	str	r2, [r3, #0]
 80014fc:	f7ff fb1c 	bl	8000b38 <HAL_GetTick>
 8001500:	6138      	str	r0, [r7, #16]
 8001502:	e008      	b.n	8001516 <HAL_RCC_OscConfig+0x42e>
 8001504:	f7ff fb18 	bl	8000b38 <HAL_GetTick>
 8001508:	4602      	mov	r2, r0
 800150a:	693b      	ldr	r3, [r7, #16]
 800150c:	1ad3      	subs	r3, r2, r3
 800150e:	2b02      	cmp	r3, #2
 8001510:	d901      	bls.n	8001516 <HAL_RCC_OscConfig+0x42e>
 8001512:	2303      	movs	r3, #3
 8001514:	e04d      	b.n	80015b2 <HAL_RCC_OscConfig+0x4ca>
 8001516:	4b2a      	ldr	r3, [pc, #168]	; (80015c0 <HAL_RCC_OscConfig+0x4d8>)
 8001518:	681b      	ldr	r3, [r3, #0]
 800151a:	f003 7300 	and.w	r3, r3, #33554432	; 0x2000000
 800151e:	2b00      	cmp	r3, #0
 8001520:	d0f0      	beq.n	8001504 <HAL_RCC_OscConfig+0x41c>
 8001522:	e045      	b.n	80015b0 <HAL_RCC_OscConfig+0x4c8>
 8001524:	4b27      	ldr	r3, [pc, #156]	; (80015c4 <HAL_RCC_OscConfig+0x4dc>)
 8001526:	2200      	movs	r2, #0
 8001528:	601a      	str	r2, [r3, #0]
 800152a:	f7ff fb05 	bl	8000b38 <HAL_GetTick>
 800152e:	6138      	str	r0, [r7, #16]
 8001530:	e008      	b.n	8001544 <HAL_RCC_OscConfig+0x45c>
 8001532:	f7ff fb01 	bl	8000b38 <HAL_GetTick>
 8001536:	4602      	mov	r2, r0
 8001538:	693b      	ldr	r3, [r7, #16]
 800153a:	1ad3      	subs	r3, r2, r3
 800153c:	2b02      	cmp	r3, #2
 800153e:	d901      	bls.n	8001544 <HAL_RCC_OscConfig+0x45c>
 8001540:	2303      	movs	r3, #3
 8001542:	e036      	b.n	80015b2 <HAL_RCC_OscConfig+0x4ca>
 8001544:	4b1e      	ldr	r3, [pc, #120]	; (80015c0 <HAL_RCC_OscConfig+0x4d8>)
 8001546:	681b      	ldr	r3, [r3, #0]
 8001548:	f003 7300 	and.w	r3, r3, #33554432	; 0x2000000
 800154c:	2b00      	cmp	r3, #0
 800154e:	d1f0      	bne.n	8001532 <HAL_RCC_OscConfig+0x44a>
 8001550:	e02e      	b.n	80015b0 <HAL_RCC_OscConfig+0x4c8>
 8001552:	687b      	ldr	r3, [r7, #4]
 8001554:	699b      	ldr	r3, [r3, #24]
 8001556:	2b01      	cmp	r3, #1
 8001558:	d101      	bne.n	800155e <HAL_RCC_OscConfig+0x476>
 800155a:	2301      	movs	r3, #1
 800155c:	e029      	b.n	80015b2 <HAL_RCC_OscConfig+0x4ca>
 800155e:	4b18      	ldr	r3, [pc, #96]	; (80015c0 <HAL_RCC_OscConfig+0x4d8>)
 8001560:	685b      	ldr	r3, [r3, #4]
 8001562:	60fb      	str	r3, [r7, #12]
 8001564:	68fb      	ldr	r3, [r7, #12]
 8001566:	f403 0280 	and.w	r2, r3, #4194304	; 0x400000
 800156a:	687b      	ldr	r3, [r7, #4]
 800156c:	69db      	ldr	r3, [r3, #28]
 800156e:	429a      	cmp	r2, r3
 8001570:	d11c      	bne.n	80015ac <HAL_RCC_OscConfig+0x4c4>
 8001572:	68fb      	ldr	r3, [r7, #12]
 8001574:	f003 023f 	and.w	r2, r3, #63	; 0x3f
 8001578:	687b      	ldr	r3, [r7, #4]
 800157a:	6a1b      	ldr	r3, [r3, #32]
 800157c:	429a      	cmp	r2, r3
 800157e:	d115      	bne.n	80015ac <HAL_RCC_OscConfig+0x4c4>
 8001580:	68fa      	ldr	r2, [r7, #12]
 8001582:	f647 73c0 	movw	r3, #32704	; 0x7fc0
 8001586:	4013      	ands	r3, r2
 8001588:	687a      	ldr	r2, [r7, #4]
 800158a:	6a52      	ldr	r2, [r2, #36]	; 0x24
 800158c:	4293      	cmp	r3, r2
 800158e:	d10d      	bne.n	80015ac <HAL_RCC_OscConfig+0x4c4>
 8001590:	68fb      	ldr	r3, [r7, #12]
 8001592:	f403 3240 	and.w	r2, r3, #196608	; 0x30000
 8001596:	687b      	ldr	r3, [r7, #4]
 8001598:	6a9b      	ldr	r3, [r3, #40]	; 0x28
 800159a:	429a      	cmp	r2, r3
 800159c:	d106      	bne.n	80015ac <HAL_RCC_OscConfig+0x4c4>
 800159e:	68fb      	ldr	r3, [r7, #12]
 80015a0:	f003 6270 	and.w	r2, r3, #251658240	; 0xf000000
 80015a4:	687b      	ldr	r3, [r7, #4]
 80015a6:	6adb      	ldr	r3, [r3, #44]	; 0x2c
 80015a8:	429a      	cmp	r2, r3
 80015aa:	d001      	beq.n	80015b0 <HAL_RCC_OscConfig+0x4c8>
 80015ac:	2301      	movs	r3, #1
 80015ae:	e000      	b.n	80015b2 <HAL_RCC_OscConfig+0x4ca>
 80015b0:	2300      	movs	r3, #0
 80015b2:	4618      	mov	r0, r3
 80015b4:	3718      	adds	r7, #24
 80015b6:	46bd      	mov	sp, r7
 80015b8:	bd80      	pop	{r7, pc}
 80015ba:	bf00      	nop
 80015bc:	40007000 	.word	0x40007000
 80015c0:	40023800 	.word	0x40023800
 80015c4:	42470060 	.word	0x42470060

080015c8 <HAL_RCC_ClockConfig>:
 80015c8:	b580      	push	{r7, lr}
 80015ca:	b084      	sub	sp, #16
 80015cc:	af00      	add	r7, sp, #0
 80015ce:	6078      	str	r0, [r7, #4]
 80015d0:	6039      	str	r1, [r7, #0]
 80015d2:	687b      	ldr	r3, [r7, #4]
 80015d4:	2b00      	cmp	r3, #0
 80015d6:	d101      	bne.n	80015dc <HAL_RCC_ClockConfig+0x14>
 80015d8:	2301      	movs	r3, #1
 80015da:	e0cc      	b.n	8001776 <HAL_RCC_ClockConfig+0x1ae>
 80015dc:	4b68      	ldr	r3, [pc, #416]	; (8001780 <HAL_RCC_ClockConfig+0x1b8>)
 80015de:	681b      	ldr	r3, [r3, #0]
 80015e0:	f003 030f 	and.w	r3, r3, #15
 80015e4:	683a      	ldr	r2, [r7, #0]
 80015e6:	429a      	cmp	r2, r3
 80015e8:	d90c      	bls.n	8001604 <HAL_RCC_ClockConfig+0x3c>
 80015ea:	4b65      	ldr	r3, [pc, #404]	; (8001780 <HAL_RCC_ClockConfig+0x1b8>)
 80015ec:	683a      	ldr	r2, [r7, #0]
 80015ee:	b2d2      	uxtb	r2, r2
 80015f0:	701a      	strb	r2, [r3, #0]
 80015f2:	4b63      	ldr	r3, [pc, #396]	; (8001780 <HAL_RCC_ClockConfig+0x1b8>)
 80015f4:	681b      	ldr	r3, [r3, #0]
 80015f6:	f003 030f 	and.w	r3, r3, #15
 80015fa:	683a      	ldr	r2, [r7, #0]
 80015fc:	429a      	cmp	r2, r3
 80015fe:	d001      	beq.n	8001604 <HAL_RCC_ClockConfig+0x3c>
 8001600:	2301      	movs	r3, #1
 8001602:	e0b8      	b.n	8001776 <HAL_RCC_ClockConfig+0x1ae>
 8001604:	687b      	ldr	r3, [r7, #4]
 8001606:	681b      	ldr	r3, [r3, #0]
 8001608:	f003 0302 	and.w	r3, r3, #2
 800160c:	2b00      	cmp	r3, #0
 800160e:	d020      	beq.n	8001652 <HAL_RCC_ClockConfig+0x8a>
 8001610:	687b      	ldr	r3, [r7, #4]
 8001612:	681b      	ldr	r3, [r3, #0]
 8001614:	f003 0304 	and.w	r3, r3, #4
 8001618:	2b00      	cmp	r3, #0
 800161a:	d005      	beq.n	8001628 <HAL_RCC_ClockConfig+0x60>
 800161c:	4b59      	ldr	r3, [pc, #356]	; (8001784 <HAL_RCC_ClockConfig+0x1bc>)
 800161e:	689b      	ldr	r3, [r3, #8]
 8001620:	4a58      	ldr	r2, [pc, #352]	; (8001784 <HAL_RCC_ClockConfig+0x1bc>)
 8001622:	f443 53e0 	orr.w	r3, r3, #7168	; 0x1c00
 8001626:	6093      	str	r3, [r2, #8]
 8001628:	687b      	ldr	r3, [r7, #4]
 800162a:	681b      	ldr	r3, [r3, #0]
 800162c:	f003 0308 	and.w	r3, r3, #8
 8001630:	2b00      	cmp	r3, #0
 8001632:	d005      	beq.n	8001640 <HAL_RCC_ClockConfig+0x78>
 8001634:	4b53      	ldr	r3, [pc, #332]	; (8001784 <HAL_RCC_ClockConfig+0x1bc>)
 8001636:	689b      	ldr	r3, [r3, #8]
 8001638:	4a52      	ldr	r2, [pc, #328]	; (8001784 <HAL_RCC_ClockConfig+0x1bc>)
 800163a:	f443 4360 	orr.w	r3, r3, #57344	; 0xe000
 800163e:	6093      	str	r3, [r2, #8]
 8001640:	4b50      	ldr	r3, [pc, #320]	; (8001784 <HAL_RCC_ClockConfig+0x1bc>)
 8001642:	689b      	ldr	r3, [r3, #8]
 8001644:	f023 02f0 	bic.w	r2, r3, #240	; 0xf0
 8001648:	687b      	ldr	r3, [r7, #4]
 800164a:	689b      	ldr	r3, [r3, #8]
 800164c:	494d      	ldr	r1, [pc, #308]	; (8001784 <HAL_RCC_ClockConfig+0x1bc>)
 800164e:	4313      	orrs	r3, r2
 8001650:	608b      	str	r3, [r1, #8]
 8001652:	687b      	ldr	r3, [r7, #4]
 8001654:	681b      	ldr	r3, [r3, #0]
 8001656:	f003 0301 	and.w	r3, r3, #1
 800165a:	2b00      	cmp	r3, #0
 800165c:	d044      	beq.n	80016e8 <HAL_RCC_ClockConfig+0x120>
 800165e:	687b      	ldr	r3, [r7, #4]
 8001660:	685b      	ldr	r3, [r3, #4]
 8001662:	2b01      	cmp	r3, #1
 8001664:	d107      	bne.n	8001676 <HAL_RCC_ClockConfig+0xae>
 8001666:	4b47      	ldr	r3, [pc, #284]	; (8001784 <HAL_RCC_ClockConfig+0x1bc>)
 8001668:	681b      	ldr	r3, [r3, #0]
 800166a:	f403 3300 	and.w	r3, r3, #131072	; 0x20000
 800166e:	2b00      	cmp	r3, #0
 8001670:	d119      	bne.n	80016a6 <HAL_RCC_ClockConfig+0xde>
 8001672:	2301      	movs	r3, #1
 8001674:	e07f      	b.n	8001776 <HAL_RCC_ClockConfig+0x1ae>
 8001676:	687b      	ldr	r3, [r7, #4]
 8001678:	685b      	ldr	r3, [r3, #4]
 800167a:	2b02      	cmp	r3, #2
 800167c:	d003      	beq.n	8001686 <HAL_RCC_ClockConfig+0xbe>
 800167e:	687b      	ldr	r3, [r7, #4]
 8001680:	685b      	ldr	r3, [r3, #4]
 8001682:	2b03      	cmp	r3, #3
 8001684:	d107      	bne.n	8001696 <HAL_RCC_ClockConfig+0xce>
 8001686:	4b3f      	ldr	r3, [pc, #252]	; (8001784 <HAL_RCC_ClockConfig+0x1bc>)
 8001688:	681b      	ldr	r3, [r3, #0]
 800168a:	f003 7300 	and.w	r3, r3, #33554432	; 0x2000000
 800168e:	2b00      	cmp	r3, #0
 8001690:	d109      	bne.n	80016a6 <HAL_RCC_ClockConfig+0xde>
 8001692:	2301      	movs	r3, #1
 8001694:	e06f      	b.n	8001776 <HAL_RCC_ClockConfig+0x1ae>
 8001696:	4b3b      	ldr	r3, [pc, #236]	; (8001784 <HAL_RCC_ClockConfig+0x1bc>)
 8001698:	681b      	ldr	r3, [r3, #0]
 800169a:	f003 0302 	and.w	r3, r3, #2
 800169e:	2b00      	cmp	r3, #0
 80016a0:	d101      	bne.n	80016a6 <HAL_RCC_ClockConfig+0xde>
 80016a2:	2301      	movs	r3, #1
 80016a4:	e067      	b.n	8001776 <HAL_RCC_ClockConfig+0x1ae>
 80016a6:	4b37      	ldr	r3, [pc, #220]	; (8001784 <HAL_RCC_ClockConfig+0x1bc>)
 80016a8:	689b      	ldr	r3, [r3, #8]
 80016aa:	f023 0203 	bic.w	r2, r3, #3
 80016ae:	687b      	ldr	r3, [r7, #4]
 80016b0:	685b      	ldr	r3, [r3, #4]
 80016b2:	4934      	ldr	r1, [pc, #208]	; (8001784 <HAL_RCC_ClockConfig+0x1bc>)
 80016b4:	4313      	orrs	r3, r2
 80016b6:	608b      	str	r3, [r1, #8]
 80016b8:	f7ff fa3e 	bl	8000b38 <HAL_GetTick>
 80016bc:	60f8      	str	r0, [r7, #12]
 80016be:	e00a      	b.n	80016d6 <HAL_RCC_ClockConfig+0x10e>
 80016c0:	f7ff fa3a 	bl	8000b38 <HAL_GetTick>
 80016c4:	4602      	mov	r2, r0
 80016c6:	68fb      	ldr	r3, [r7, #12]
 80016c8:	1ad3      	subs	r3, r2, r3
 80016ca:	f241 3288 	movw	r2, #5000	; 0x1388
 80016ce:	4293      	cmp	r3, r2
 80016d0:	d901      	bls.n	80016d6 <HAL_RCC_ClockConfig+0x10e>
 80016d2:	2303      	movs	r3, #3
 80016d4:	e04f      	b.n	8001776 <HAL_RCC_ClockConfig+0x1ae>
 80016d6:	4b2b      	ldr	r3, [pc, #172]	; (8001784 <HAL_RCC_ClockConfig+0x1bc>)
 80016d8:	689b      	ldr	r3, [r3, #8]
 80016da:	f003 020c 	and.w	r2, r3, #12
 80016de:	687b      	ldr	r3, [r7, #4]
 80016e0:	685b      	ldr	r3, [r3, #4]
 80016e2:	009b      	lsls	r3, r3, #2
 80016e4:	429a      	cmp	r2, r3
 80016e6:	d1eb      	bne.n	80016c0 <HAL_RCC_ClockConfig+0xf8>
 80016e8:	4b25      	ldr	r3, [pc, #148]	; (8001780 <HAL_RCC_ClockConfig+0x1b8>)
 80016ea:	681b      	ldr	r3, [r3, #0]
 80016ec:	f003 030f 	and.w	r3, r3, #15
 80016f0:	683a      	ldr	r2, [r7, #0]
 80016f2:	429a      	cmp	r2, r3
 80016f4:	d20c      	bcs.n	8001710 <HAL_RCC_ClockConfig+0x148>
 80016f6:	4b22      	ldr	r3, [pc, #136]	; (8001780 <HAL_RCC_ClockConfig+0x1b8>)
 80016f8:	683a      	ldr	r2, [r7, #0]
 80016fa:	b2d2      	uxtb	r2, r2
 80016fc:	701a      	strb	r2, [r3, #0]
 80016fe:	4b20      	ldr	r3, [pc, #128]	; (8001780 <HAL_RCC_ClockConfig+0x1b8>)
 8001700:	681b      	ldr	r3, [r3, #0]
 8001702:	f003 030f 	and.w	r3, r3, #15
 8001706:	683a      	ldr	r2, [r7, #0]
 8001708:	429a      	cmp	r2, r3
 800170a:	d001      	beq.n	8001710 <HAL_RCC_ClockConfig+0x148>
 800170c:	2301      	movs	r3, #1
 800170e:	e032      	b.n	8001776 <HAL_RCC_ClockConfig+0x1ae>
 8001710:	687b      	ldr	r3, [r7, #4]
 8001712:	681b      	ldr	r3, [r3, #0]
 8001714:	f003 0304 	and.w	r3, r3, #4
 8001718:	2b00      	cmp	r3, #0
 800171a:	d008      	beq.n	800172e <HAL_RCC_ClockConfig+0x166>
 800171c:	4b19      	ldr	r3, [pc, #100]	; (8001784 <HAL_RCC_ClockConfig+0x1bc>)
 800171e:	689b      	ldr	r3, [r3, #8]
 8001720:	f423 52e0 	bic.w	r2, r3, #7168	; 0x1c00
 8001724:	687b      	ldr	r3, [r7, #4]
 8001726:	68db      	ldr	r3, [r3, #12]
 8001728:	4916      	ldr	r1, [pc, #88]	; (8001784 <HAL_RCC_ClockConfig+0x1bc>)
 800172a:	4313      	orrs	r3, r2
 800172c:	608b      	str	r3, [r1, #8]
 800172e:	687b      	ldr	r3, [r7, #4]
 8001730:	681b      	ldr	r3, [r3, #0]
 8001732:	f003 0308 	and.w	r3, r3, #8
 8001736:	2b00      	cmp	r3, #0
 8001738:	d009      	beq.n	800174e <HAL_RCC_ClockConfig+0x186>
 800173a:	4b12      	ldr	r3, [pc, #72]	; (8001784 <HAL_RCC_ClockConfig+0x1bc>)
 800173c:	689b      	ldr	r3, [r3, #8]
 800173e:	f423 4260 	bic.w	r2, r3, #57344	; 0xe000
 8001742:	687b      	ldr	r3, [r7, #4]
 8001744:	691b      	ldr	r3, [r3, #16]
 8001746:	00db      	lsls	r3, r3, #3
 8001748:	490e      	ldr	r1, [pc, #56]	; (8001784 <HAL_RCC_ClockConfig+0x1bc>)
 800174a:	4313      	orrs	r3, r2
 800174c:	608b      	str	r3, [r1, #8]
 800174e:	f000 f821 	bl	8001794 <HAL_RCC_GetSysClockFreq>
 8001752:	4601      	mov	r1, r0
 8001754:	4b0b      	ldr	r3, [pc, #44]	; (8001784 <HAL_RCC_ClockConfig+0x1bc>)
 8001756:	689b      	ldr	r3, [r3, #8]
 8001758:	091b      	lsrs	r3, r3, #4
 800175a:	f003 030f 	and.w	r3, r3, #15
 800175e:	4a0a      	ldr	r2, [pc, #40]	; (8001788 <HAL_RCC_ClockConfig+0x1c0>)
 8001760:	5cd3      	ldrb	r3, [r2, r3]
 8001762:	fa21 f303 	lsr.w	r3, r1, r3
 8001766:	4a09      	ldr	r2, [pc, #36]	; (800178c <HAL_RCC_ClockConfig+0x1c4>)
 8001768:	6013      	str	r3, [r2, #0]
 800176a:	4b09      	ldr	r3, [pc, #36]	; (8001790 <HAL_RCC_ClockConfig+0x1c8>)
 800176c:	681b      	ldr	r3, [r3, #0]
 800176e:	4618      	mov	r0, r3
 8001770:	f7ff f99e 	bl	8000ab0 <HAL_InitTick>
 8001774:	2300      	movs	r3, #0
 8001776:	4618      	mov	r0, r3
 8001778:	3710      	adds	r7, #16
 800177a:	46bd      	mov	sp, r7
 800177c:	bd80      	pop	{r7, pc}
 800177e:	bf00      	nop
 8001780:	40023c00 	.word	0x40023c00
 8001784:	40023800 	.word	0x40023800
 8001788:	08005b70 	.word	0x08005b70
 800178c:	20000000 	.word	0x20000000
 8001790:	20000004 	.word	0x20000004

08001794 <HAL_RCC_GetSysClockFreq>:
 8001794:	b5f0      	push	{r4, r5, r6, r7, lr}
 8001796:	b085      	sub	sp, #20
 8001798:	af00      	add	r7, sp, #0
 800179a:	2300      	movs	r3, #0
 800179c:	607b      	str	r3, [r7, #4]
 800179e:	2300      	movs	r3, #0
 80017a0:	60fb      	str	r3, [r7, #12]
 80017a2:	2300      	movs	r3, #0
 80017a4:	603b      	str	r3, [r7, #0]
 80017a6:	2300      	movs	r3, #0
 80017a8:	60bb      	str	r3, [r7, #8]
 80017aa:	4b63      	ldr	r3, [pc, #396]	; (8001938 <HAL_RCC_GetSysClockFreq+0x1a4>)
 80017ac:	689b      	ldr	r3, [r3, #8]
 80017ae:	f003 030c 	and.w	r3, r3, #12
 80017b2:	2b04      	cmp	r3, #4
 80017b4:	d007      	beq.n	80017c6 <HAL_RCC_GetSysClockFreq+0x32>
 80017b6:	2b08      	cmp	r3, #8
 80017b8:	d008      	beq.n	80017cc <HAL_RCC_GetSysClockFreq+0x38>
 80017ba:	2b00      	cmp	r3, #0
 80017bc:	f040 80b4 	bne.w	8001928 <HAL_RCC_GetSysClockFreq+0x194>
 80017c0:	4b5e      	ldr	r3, [pc, #376]	; (800193c <HAL_RCC_GetSysClockFreq+0x1a8>)
 80017c2:	60bb      	str	r3, [r7, #8]
 80017c4:	e0b3      	b.n	800192e <HAL_RCC_GetSysClockFreq+0x19a>
 80017c6:	4b5e      	ldr	r3, [pc, #376]	; (8001940 <HAL_RCC_GetSysClockFreq+0x1ac>)
 80017c8:	60bb      	str	r3, [r7, #8]
 80017ca:	e0b0      	b.n	800192e <HAL_RCC_GetSysClockFreq+0x19a>
 80017cc:	4b5a      	ldr	r3, [pc, #360]	; (8001938 <HAL_RCC_GetSysClockFreq+0x1a4>)
 80017ce:	685b      	ldr	r3, [r3, #4]
 80017d0:	f003 033f 	and.w	r3, r3, #63	; 0x3f
 80017d4:	607b      	str	r3, [r7, #4]
 80017d6:	4b58      	ldr	r3, [pc, #352]	; (8001938 <HAL_RCC_GetSysClockFreq+0x1a4>)
 80017d8:	685b      	ldr	r3, [r3, #4]
 80017da:	f403 0380 	and.w	r3, r3, #4194304	; 0x400000
 80017de:	2b00      	cmp	r3, #0
 80017e0:	d04a      	beq.n	8001878 <HAL_RCC_GetSysClockFreq+0xe4>
 80017e2:	4b55      	ldr	r3, [pc, #340]	; (8001938 <HAL_RCC_GetSysClockFreq+0x1a4>)
 80017e4:	685b      	ldr	r3, [r3, #4]
 80017e6:	099b      	lsrs	r3, r3, #6
 80017e8:	f04f 0400 	mov.w	r4, #0
 80017ec:	f240 11ff 	movw	r1, #511	; 0x1ff
 80017f0:	f04f 0200 	mov.w	r2, #0
 80017f4:	ea03 0501 	and.w	r5, r3, r1
 80017f8:	ea04 0602 	and.w	r6, r4, r2
 80017fc:	4629      	mov	r1, r5
 80017fe:	4632      	mov	r2, r6
 8001800:	f04f 0300 	mov.w	r3, #0
 8001804:	f04f 0400 	mov.w	r4, #0
 8001808:	0154      	lsls	r4, r2, #5
 800180a:	ea44 64d1 	orr.w	r4, r4, r1, lsr #27
 800180e:	014b      	lsls	r3, r1, #5
 8001810:	4619      	mov	r1, r3
 8001812:	4622      	mov	r2, r4
 8001814:	1b49      	subs	r1, r1, r5
 8001816:	eb62 0206 	sbc.w	r2, r2, r6
 800181a:	f04f 0300 	mov.w	r3, #0
 800181e:	f04f 0400 	mov.w	r4, #0
 8001822:	0194      	lsls	r4, r2, #6
 8001824:	ea44 6491 	orr.w	r4, r4, r1, lsr #26
 8001828:	018b      	lsls	r3, r1, #6
 800182a:	1a5b      	subs	r3, r3, r1
 800182c:	eb64 0402 	sbc.w	r4, r4, r2
 8001830:	f04f 0100 	mov.w	r1, #0
 8001834:	f04f 0200 	mov.w	r2, #0
 8001838:	00e2      	lsls	r2, r4, #3
 800183a:	ea42 7253 	orr.w	r2, r2, r3, lsr #29
 800183e:	00d9      	lsls	r1, r3, #3
 8001840:	460b      	mov	r3, r1
 8001842:	4614      	mov	r4, r2
 8001844:	195b      	adds	r3, r3, r5
 8001846:	eb44 0406 	adc.w	r4, r4, r6
 800184a:	f04f 0100 	mov.w	r1, #0
 800184e:	f04f 0200 	mov.w	r2, #0
 8001852:	0262      	lsls	r2, r4, #9
 8001854:	ea42 52d3 	orr.w	r2, r2, r3, lsr #23
 8001858:	0259      	lsls	r1, r3, #9
 800185a:	460b      	mov	r3, r1
 800185c:	4614      	mov	r4, r2
 800185e:	4618      	mov	r0, r3
 8001860:	4621      	mov	r1, r4
 8001862:	687b      	ldr	r3, [r7, #4]
 8001864:	f04f 0400 	mov.w	r4, #0
 8001868:	461a      	mov	r2, r3
 800186a:	4623      	mov	r3, r4
 800186c:	f7fe fd60 	bl	8000330 <__aeabi_uldivmod>
 8001870:	4603      	mov	r3, r0
 8001872:	460c      	mov	r4, r1
 8001874:	60fb      	str	r3, [r7, #12]
 8001876:	e049      	b.n	800190c <HAL_RCC_GetSysClockFreq+0x178>
 8001878:	4b2f      	ldr	r3, [pc, #188]	; (8001938 <HAL_RCC_GetSysClockFreq+0x1a4>)
 800187a:	685b      	ldr	r3, [r3, #4]
 800187c:	099b      	lsrs	r3, r3, #6
 800187e:	f04f 0400 	mov.w	r4, #0
 8001882:	f240 11ff 	movw	r1, #511	; 0x1ff
 8001886:	f04f 0200 	mov.w	r2, #0
 800188a:	ea03 0501 	and.w	r5, r3, r1
 800188e:	ea04 0602 	and.w	r6, r4, r2
 8001892:	4629      	mov	r1, r5
 8001894:	4632      	mov	r2, r6
 8001896:	f04f 0300 	mov.w	r3, #0
 800189a:	f04f 0400 	mov.w	r4, #0
 800189e:	0154      	lsls	r4, r2, #5
 80018a0:	ea44 64d1 	orr.w	r4, r4, r1, lsr #27
 80018a4:	014b      	lsls	r3, r1, #5
 80018a6:	4619      	mov	r1, r3
 80018a8:	4622      	mov	r2, r4
 80018aa:	1b49      	subs	r1, r1, r5
 80018ac:	eb62 0206 	sbc.w	r2, r2, r6
 80018b0:	f04f 0300 	mov.w	r3, #0
 80018b4:	f04f 0400 	mov.w	r4, #0
 80018b8:	0194      	lsls	r4, r2, #6
 80018ba:	ea44 6491 	orr.w	r4, r4, r1, lsr #26
 80018be:	018b      	lsls	r3, r1, #6
 80018c0:	1a5b      	subs	r3, r3, r1
 80018c2:	eb64 0402 	sbc.w	r4, r4, r2
 80018c6:	f04f 0100 	mov.w	r1, #0
 80018ca:	f04f 0200 	mov.w	r2, #0
 80018ce:	00e2      	lsls	r2, r4, #3
 80018d0:	ea42 7253 	orr.w	r2, r2, r3, lsr #29
 80018d4:	00d9      	lsls	r1, r3, #3
 80018d6:	460b      	mov	r3, r1
 80018d8:	4614      	mov	r4, r2
 80018da:	195b      	adds	r3, r3, r5
 80018dc:	eb44 0406 	adc.w	r4, r4, r6
 80018e0:	f04f 0100 	mov.w	r1, #0
 80018e4:	f04f 0200 	mov.w	r2, #0
 80018e8:	02a2      	lsls	r2, r4, #10
 80018ea:	ea42 5293 	orr.w	r2, r2, r3, lsr #22
 80018ee:	0299      	lsls	r1, r3, #10
 80018f0:	460b      	mov	r3, r1
 80018f2:	4614      	mov	r4, r2
 80018f4:	4618      	mov	r0, r3
 80018f6:	4621      	mov	r1, r4
 80018f8:	687b      	ldr	r3, [r7, #4]
 80018fa:	f04f 0400 	mov.w	r4, #0
 80018fe:	461a      	mov	r2, r3
 8001900:	4623      	mov	r3, r4
 8001902:	f7fe fd15 	bl	8000330 <__aeabi_uldivmod>
 8001906:	4603      	mov	r3, r0
 8001908:	460c      	mov	r4, r1
 800190a:	60fb      	str	r3, [r7, #12]
 800190c:	4b0a      	ldr	r3, [pc, #40]	; (8001938 <HAL_RCC_GetSysClockFreq+0x1a4>)
 800190e:	685b      	ldr	r3, [r3, #4]
 8001910:	0c1b      	lsrs	r3, r3, #16
 8001912:	f003 0303 	and.w	r3, r3, #3
 8001916:	3301      	adds	r3, #1
 8001918:	005b      	lsls	r3, r3, #1
 800191a:	603b      	str	r3, [r7, #0]
 800191c:	68fa      	ldr	r2, [r7, #12]
 800191e:	683b      	ldr	r3, [r7, #0]
 8001920:	fbb2 f3f3 	udiv	r3, r2, r3
 8001924:	60bb      	str	r3, [r7, #8]
 8001926:	e002      	b.n	800192e <HAL_RCC_GetSysClockFreq+0x19a>
 8001928:	4b04      	ldr	r3, [pc, #16]	; (800193c <HAL_RCC_GetSysClockFreq+0x1a8>)
 800192a:	60bb      	str	r3, [r7, #8]
 800192c:	bf00      	nop
 800192e:	68bb      	ldr	r3, [r7, #8]
 8001930:	4618      	mov	r0, r3
 8001932:	3714      	adds	r7, #20
 8001934:	46bd      	mov	sp, r7
 8001936:	bdf0      	pop	{r4, r5, r6, r7, pc}
 8001938:	40023800 	.word	0x40023800
 800193c:	00f42400 	.word	0x00f42400
 8001940:	007a1200 	.word	0x007a1200

08001944 <HAL_RCC_GetHCLKFreq>:
 8001944:	b480      	push	{r7}
 8001946:	af00      	add	r7, sp, #0
 8001948:	4b03      	ldr	r3, [pc, #12]	; (8001958 <HAL_RCC_GetHCLKFreq+0x14>)
 800194a:	681b      	ldr	r3, [r3, #0]
 800194c:	4618      	mov	r0, r3
 800194e:	46bd      	mov	sp, r7
 8001950:	f85d 7b04 	ldr.w	r7, [sp], #4
 8001954:	4770      	bx	lr
 8001956:	bf00      	nop
 8001958:	20000000 	.word	0x20000000

0800195c <HAL_RCC_GetPCLK1Freq>:
 800195c:	b580      	push	{r7, lr}
 800195e:	af00      	add	r7, sp, #0
 8001960:	f7ff fff0 	bl	8001944 <HAL_RCC_GetHCLKFreq>
 8001964:	4601      	mov	r1, r0
 8001966:	4b05      	ldr	r3, [pc, #20]	; (800197c <HAL_RCC_GetPCLK1Freq+0x20>)
 8001968:	689b      	ldr	r3, [r3, #8]
 800196a:	0a9b      	lsrs	r3, r3, #10
 800196c:	f003 0307 	and.w	r3, r3, #7
 8001970:	4a03      	ldr	r2, [pc, #12]	; (8001980 <HAL_RCC_GetPCLK1Freq+0x24>)
 8001972:	5cd3      	ldrb	r3, [r2, r3]
 8001974:	fa21 f303 	lsr.w	r3, r1, r3
 8001978:	4618      	mov	r0, r3
 800197a:	bd80      	pop	{r7, pc}
 800197c:	40023800 	.word	0x40023800
 8001980:	08005b80 	.word	0x08005b80

08001984 <HAL_RCC_GetPCLK2Freq>:
 8001984:	b580      	push	{r7, lr}
 8001986:	af00      	add	r7, sp, #0
 8001988:	f7ff ffdc 	bl	8001944 <HAL_RCC_GetHCLKFreq>
 800198c:	4601      	mov	r1, r0
 800198e:	4b05      	ldr	r3, [pc, #20]	; (80019a4 <HAL_RCC_GetPCLK2Freq+0x20>)
 8001990:	689b      	ldr	r3, [r3, #8]
 8001992:	0b5b      	lsrs	r3, r3, #13
 8001994:	f003 0307 	and.w	r3, r3, #7
 8001998:	4a03      	ldr	r2, [pc, #12]	; (80019a8 <HAL_RCC_GetPCLK2Freq+0x24>)
 800199a:	5cd3      	ldrb	r3, [r2, r3]
 800199c:	fa21 f303 	lsr.w	r3, r1, r3
 80019a0:	4618      	mov	r0, r3
 80019a2:	bd80      	pop	{r7, pc}
 80019a4:	40023800 	.word	0x40023800
 80019a8:	08005b80 	.word	0x08005b80

080019ac <HAL_RCCEx_PeriphCLKConfig>:
 80019ac:	b580      	push	{r7, lr}
 80019ae:	b086      	sub	sp, #24
 80019b0:	af00      	add	r7, sp, #0
 80019b2:	6078      	str	r0, [r7, #4]
 80019b4:	2300      	movs	r3, #0
 80019b6:	617b      	str	r3, [r7, #20]
 80019b8:	2300      	movs	r3, #0
 80019ba:	613b      	str	r3, [r7, #16]
 80019bc:	687b      	ldr	r3, [r7, #4]
 80019be:	681b      	ldr	r3, [r3, #0]
 80019c0:	f003 0301 	and.w	r3, r3, #1
 80019c4:	2b00      	cmp	r3, #0
 80019c6:	d105      	bne.n	80019d4 <HAL_RCCEx_PeriphCLKConfig+0x28>
 80019c8:	687b      	ldr	r3, [r7, #4]
 80019ca:	681b      	ldr	r3, [r3, #0]
 80019cc:	f003 0304 	and.w	r3, r3, #4
 80019d0:	2b00      	cmp	r3, #0
 80019d2:	d035      	beq.n	8001a40 <HAL_RCCEx_PeriphCLKConfig+0x94>
 80019d4:	4b62      	ldr	r3, [pc, #392]	; (8001b60 <HAL_RCCEx_PeriphCLKConfig+0x1b4>)
 80019d6:	2200      	movs	r2, #0
 80019d8:	601a      	str	r2, [r3, #0]
 80019da:	f7ff f8ad 	bl	8000b38 <HAL_GetTick>
 80019de:	6178      	str	r0, [r7, #20]
 80019e0:	e008      	b.n	80019f4 <HAL_RCCEx_PeriphCLKConfig+0x48>
 80019e2:	f7ff f8a9 	bl	8000b38 <HAL_GetTick>
 80019e6:	4602      	mov	r2, r0
 80019e8:	697b      	ldr	r3, [r7, #20]
 80019ea:	1ad3      	subs	r3, r2, r3
 80019ec:	2b02      	cmp	r3, #2
 80019ee:	d901      	bls.n	80019f4 <HAL_RCCEx_PeriphCLKConfig+0x48>
 80019f0:	2303      	movs	r3, #3
 80019f2:	e0b0      	b.n	8001b56 <HAL_RCCEx_PeriphCLKConfig+0x1aa>
 80019f4:	4b5b      	ldr	r3, [pc, #364]	; (8001b64 <HAL_RCCEx_PeriphCLKConfig+0x1b8>)
 80019f6:	681b      	ldr	r3, [r3, #0]
 80019f8:	f003 6300 	and.w	r3, r3, #134217728	; 0x8000000
 80019fc:	2b00      	cmp	r3, #0
 80019fe:	d1f0      	bne.n	80019e2 <HAL_RCCEx_PeriphCLKConfig+0x36>
 8001a00:	687b      	ldr	r3, [r7, #4]
 8001a02:	685b      	ldr	r3, [r3, #4]
 8001a04:	019a      	lsls	r2, r3, #6
 8001a06:	687b      	ldr	r3, [r7, #4]
 8001a08:	689b      	ldr	r3, [r3, #8]
 8001a0a:	071b      	lsls	r3, r3, #28
 8001a0c:	4955      	ldr	r1, [pc, #340]	; (8001b64 <HAL_RCCEx_PeriphCLKConfig+0x1b8>)
 8001a0e:	4313      	orrs	r3, r2
 8001a10:	f8c1 3084 	str.w	r3, [r1, #132]	; 0x84
 8001a14:	4b52      	ldr	r3, [pc, #328]	; (8001b60 <HAL_RCCEx_PeriphCLKConfig+0x1b4>)
 8001a16:	2201      	movs	r2, #1
 8001a18:	601a      	str	r2, [r3, #0]
 8001a1a:	f7ff f88d 	bl	8000b38 <HAL_GetTick>
 8001a1e:	6178      	str	r0, [r7, #20]
 8001a20:	e008      	b.n	8001a34 <HAL_RCCEx_PeriphCLKConfig+0x88>
 8001a22:	f7ff f889 	bl	8000b38 <HAL_GetTick>
 8001a26:	4602      	mov	r2, r0
 8001a28:	697b      	ldr	r3, [r7, #20]
 8001a2a:	1ad3      	subs	r3, r2, r3
 8001a2c:	2b02      	cmp	r3, #2
 8001a2e:	d901      	bls.n	8001a34 <HAL_RCCEx_PeriphCLKConfig+0x88>
 8001a30:	2303      	movs	r3, #3
 8001a32:	e090      	b.n	8001b56 <HAL_RCCEx_PeriphCLKConfig+0x1aa>
 8001a34:	4b4b      	ldr	r3, [pc, #300]	; (8001b64 <HAL_RCCEx_PeriphCLKConfig+0x1b8>)
 8001a36:	681b      	ldr	r3, [r3, #0]
 8001a38:	f003 6300 	and.w	r3, r3, #134217728	; 0x8000000
 8001a3c:	2b00      	cmp	r3, #0
 8001a3e:	d0f0      	beq.n	8001a22 <HAL_RCCEx_PeriphCLKConfig+0x76>
 8001a40:	687b      	ldr	r3, [r7, #4]
 8001a42:	681b      	ldr	r3, [r3, #0]
 8001a44:	f003 0302 	and.w	r3, r3, #2
 8001a48:	2b00      	cmp	r3, #0
 8001a4a:	f000 8083 	beq.w	8001b54 <HAL_RCCEx_PeriphCLKConfig+0x1a8>
 8001a4e:	2300      	movs	r3, #0
 8001a50:	60fb      	str	r3, [r7, #12]
 8001a52:	4b44      	ldr	r3, [pc, #272]	; (8001b64 <HAL_RCCEx_PeriphCLKConfig+0x1b8>)
 8001a54:	6c1b      	ldr	r3, [r3, #64]	; 0x40
 8001a56:	4a43      	ldr	r2, [pc, #268]	; (8001b64 <HAL_RCCEx_PeriphCLKConfig+0x1b8>)
 8001a58:	f043 5380 	orr.w	r3, r3, #268435456	; 0x10000000
 8001a5c:	6413      	str	r3, [r2, #64]	; 0x40
 8001a5e:	4b41      	ldr	r3, [pc, #260]	; (8001b64 <HAL_RCCEx_PeriphCLKConfig+0x1b8>)
 8001a60:	6c1b      	ldr	r3, [r3, #64]	; 0x40
 8001a62:	f003 5380 	and.w	r3, r3, #268435456	; 0x10000000
 8001a66:	60fb      	str	r3, [r7, #12]
 8001a68:	68fb      	ldr	r3, [r7, #12]
 8001a6a:	4b3f      	ldr	r3, [pc, #252]	; (8001b68 <HAL_RCCEx_PeriphCLKConfig+0x1bc>)
 8001a6c:	681b      	ldr	r3, [r3, #0]
 8001a6e:	4a3e      	ldr	r2, [pc, #248]	; (8001b68 <HAL_RCCEx_PeriphCLKConfig+0x1bc>)
 8001a70:	f443 7380 	orr.w	r3, r3, #256	; 0x100
 8001a74:	6013      	str	r3, [r2, #0]
 8001a76:	f7ff f85f 	bl	8000b38 <HAL_GetTick>
 8001a7a:	6178      	str	r0, [r7, #20]
 8001a7c:	e008      	b.n	8001a90 <HAL_RCCEx_PeriphCLKConfig+0xe4>
 8001a7e:	f7ff f85b 	bl	8000b38 <HAL_GetTick>
 8001a82:	4602      	mov	r2, r0
 8001a84:	697b      	ldr	r3, [r7, #20]
 8001a86:	1ad3      	subs	r3, r2, r3
 8001a88:	2b02      	cmp	r3, #2
 8001a8a:	d901      	bls.n	8001a90 <HAL_RCCEx_PeriphCLKConfig+0xe4>
 8001a8c:	2303      	movs	r3, #3
 8001a8e:	e062      	b.n	8001b56 <HAL_RCCEx_PeriphCLKConfig+0x1aa>
 8001a90:	4b35      	ldr	r3, [pc, #212]	; (8001b68 <HAL_RCCEx_PeriphCLKConfig+0x1bc>)
 8001a92:	681b      	ldr	r3, [r3, #0]
 8001a94:	f403 7380 	and.w	r3, r3, #256	; 0x100
 8001a98:	2b00      	cmp	r3, #0
 8001a9a:	d0f0      	beq.n	8001a7e <HAL_RCCEx_PeriphCLKConfig+0xd2>
 8001a9c:	4b31      	ldr	r3, [pc, #196]	; (8001b64 <HAL_RCCEx_PeriphCLKConfig+0x1b8>)
 8001a9e:	6f1b      	ldr	r3, [r3, #112]	; 0x70
 8001aa0:	f403 7340 	and.w	r3, r3, #768	; 0x300
 8001aa4:	613b      	str	r3, [r7, #16]
 8001aa6:	693b      	ldr	r3, [r7, #16]
 8001aa8:	2b00      	cmp	r3, #0
 8001aaa:	d02f      	beq.n	8001b0c <HAL_RCCEx_PeriphCLKConfig+0x160>
 8001aac:	687b      	ldr	r3, [r7, #4]
 8001aae:	68db      	ldr	r3, [r3, #12]
 8001ab0:	f403 7340 	and.w	r3, r3, #768	; 0x300
 8001ab4:	693a      	ldr	r2, [r7, #16]
 8001ab6:	429a      	cmp	r2, r3
 8001ab8:	d028      	beq.n	8001b0c <HAL_RCCEx_PeriphCLKConfig+0x160>
 8001aba:	4b2a      	ldr	r3, [pc, #168]	; (8001b64 <HAL_RCCEx_PeriphCLKConfig+0x1b8>)
 8001abc:	6f1b      	ldr	r3, [r3, #112]	; 0x70
 8001abe:	f423 7340 	bic.w	r3, r3, #768	; 0x300
 8001ac2:	613b      	str	r3, [r7, #16]
 8001ac4:	4b29      	ldr	r3, [pc, #164]	; (8001b6c <HAL_RCCEx_PeriphCLKConfig+0x1c0>)
 8001ac6:	2201      	movs	r2, #1
 8001ac8:	601a      	str	r2, [r3, #0]
 8001aca:	4b28      	ldr	r3, [pc, #160]	; (8001b6c <HAL_RCCEx_PeriphCLKConfig+0x1c0>)
 8001acc:	2200      	movs	r2, #0
 8001ace:	601a      	str	r2, [r3, #0]
 8001ad0:	4a24      	ldr	r2, [pc, #144]	; (8001b64 <HAL_RCCEx_PeriphCLKConfig+0x1b8>)
 8001ad2:	693b      	ldr	r3, [r7, #16]
 8001ad4:	6713      	str	r3, [r2, #112]	; 0x70
 8001ad6:	4b23      	ldr	r3, [pc, #140]	; (8001b64 <HAL_RCCEx_PeriphCLKConfig+0x1b8>)
 8001ad8:	6f1b      	ldr	r3, [r3, #112]	; 0x70
 8001ada:	f003 0301 	and.w	r3, r3, #1
 8001ade:	2b01      	cmp	r3, #1
 8001ae0:	d114      	bne.n	8001b0c <HAL_RCCEx_PeriphCLKConfig+0x160>
 8001ae2:	f7ff f829 	bl	8000b38 <HAL_GetTick>
 8001ae6:	6178      	str	r0, [r7, #20]
 8001ae8:	e00a      	b.n	8001b00 <HAL_RCCEx_PeriphCLKConfig+0x154>
 8001aea:	f7ff f825 	bl	8000b38 <HAL_GetTick>
 8001aee:	4602      	mov	r2, r0
 8001af0:	697b      	ldr	r3, [r7, #20]
 8001af2:	1ad3      	subs	r3, r2, r3
 8001af4:	f241 3288 	movw	r2, #5000	; 0x1388
 8001af8:	4293      	cmp	r3, r2
 8001afa:	d901      	bls.n	8001b00 <HAL_RCCEx_PeriphCLKConfig+0x154>
 8001afc:	2303      	movs	r3, #3
 8001afe:	e02a      	b.n	8001b56 <HAL_RCCEx_PeriphCLKConfig+0x1aa>
 8001b00:	4b18      	ldr	r3, [pc, #96]	; (8001b64 <HAL_RCCEx_PeriphCLKConfig+0x1b8>)
 8001b02:	6f1b      	ldr	r3, [r3, #112]	; 0x70
 8001b04:	f003 0302 	and.w	r3, r3, #2
 8001b08:	2b00      	cmp	r3, #0
 8001b0a:	d0ee      	beq.n	8001aea <HAL_RCCEx_PeriphCLKConfig+0x13e>
 8001b0c:	687b      	ldr	r3, [r7, #4]
 8001b0e:	68db      	ldr	r3, [r3, #12]
 8001b10:	f403 7340 	and.w	r3, r3, #768	; 0x300
 8001b14:	f5b3 7f40 	cmp.w	r3, #768	; 0x300
 8001b18:	d10d      	bne.n	8001b36 <HAL_RCCEx_PeriphCLKConfig+0x18a>
 8001b1a:	4b12      	ldr	r3, [pc, #72]	; (8001b64 <HAL_RCCEx_PeriphCLKConfig+0x1b8>)
 8001b1c:	689b      	ldr	r3, [r3, #8]
 8001b1e:	f423 12f8 	bic.w	r2, r3, #2031616	; 0x1f0000
 8001b22:	687b      	ldr	r3, [r7, #4]
 8001b24:	68db      	ldr	r3, [r3, #12]
 8001b26:	f023 4370 	bic.w	r3, r3, #4026531840	; 0xf0000000
 8001b2a:	f423 7340 	bic.w	r3, r3, #768	; 0x300
 8001b2e:	490d      	ldr	r1, [pc, #52]	; (8001b64 <HAL_RCCEx_PeriphCLKConfig+0x1b8>)
 8001b30:	4313      	orrs	r3, r2
 8001b32:	608b      	str	r3, [r1, #8]
 8001b34:	e005      	b.n	8001b42 <HAL_RCCEx_PeriphCLKConfig+0x196>
 8001b36:	4b0b      	ldr	r3, [pc, #44]	; (8001b64 <HAL_RCCEx_PeriphCLKConfig+0x1b8>)
 8001b38:	689b      	ldr	r3, [r3, #8]
 8001b3a:	4a0a      	ldr	r2, [pc, #40]	; (8001b64 <HAL_RCCEx_PeriphCLKConfig+0x1b8>)
 8001b3c:	f423 13f8 	bic.w	r3, r3, #2031616	; 0x1f0000
 8001b40:	6093      	str	r3, [r2, #8]
 8001b42:	4b08      	ldr	r3, [pc, #32]	; (8001b64 <HAL_RCCEx_PeriphCLKConfig+0x1b8>)
 8001b44:	6f1a      	ldr	r2, [r3, #112]	; 0x70
 8001b46:	687b      	ldr	r3, [r7, #4]
 8001b48:	68db      	ldr	r3, [r3, #12]
 8001b4a:	f3c3 030b 	ubfx	r3, r3, #0, #12
 8001b4e:	4905      	ldr	r1, [pc, #20]	; (8001b64 <HAL_RCCEx_PeriphCLKConfig+0x1b8>)
 8001b50:	4313      	orrs	r3, r2
 8001b52:	670b      	str	r3, [r1, #112]	; 0x70
 8001b54:	2300      	movs	r3, #0
 8001b56:	4618      	mov	r0, r3
 8001b58:	3718      	adds	r7, #24
 8001b5a:	46bd      	mov	sp, r7
 8001b5c:	bd80      	pop	{r7, pc}
 8001b5e:	bf00      	nop
 8001b60:	42470068 	.word	0x42470068
 8001b64:	40023800 	.word	0x40023800
 8001b68:	40007000 	.word	0x40007000
 8001b6c:	42470e40 	.word	0x42470e40

08001b70 <HAL_UART_Init>:
 8001b70:	b580      	push	{r7, lr}
 8001b72:	b082      	sub	sp, #8
 8001b74:	af00      	add	r7, sp, #0
 8001b76:	6078      	str	r0, [r7, #4]
 8001b78:	687b      	ldr	r3, [r7, #4]
 8001b7a:	2b00      	cmp	r3, #0
 8001b7c:	d101      	bne.n	8001b82 <HAL_UART_Init+0x12>
 8001b7e:	2301      	movs	r3, #1
 8001b80:	e03f      	b.n	8001c02 <HAL_UART_Init+0x92>
 8001b82:	687b      	ldr	r3, [r7, #4]
 8001b84:	f893 3039 	ldrb.w	r3, [r3, #57]	; 0x39
 8001b88:	b2db      	uxtb	r3, r3
 8001b8a:	2b00      	cmp	r3, #0
 8001b8c:	d106      	bne.n	8001b9c <HAL_UART_Init+0x2c>
 8001b8e:	687b      	ldr	r3, [r7, #4]
 8001b90:	2200      	movs	r2, #0
 8001b92:	f883 2038 	strb.w	r2, [r3, #56]	; 0x38
 8001b96:	6878      	ldr	r0, [r7, #4]
 8001b98:	f7fe fec2 	bl	8000920 <HAL_UART_MspInit>
 8001b9c:	687b      	ldr	r3, [r7, #4]
 8001b9e:	2224      	movs	r2, #36	; 0x24
 8001ba0:	f883 2039 	strb.w	r2, [r3, #57]	; 0x39
 8001ba4:	687b      	ldr	r3, [r7, #4]
 8001ba6:	681b      	ldr	r3, [r3, #0]
 8001ba8:	68da      	ldr	r2, [r3, #12]
 8001baa:	687b      	ldr	r3, [r7, #4]
 8001bac:	681b      	ldr	r3, [r3, #0]
 8001bae:	f422 5200 	bic.w	r2, r2, #8192	; 0x2000
 8001bb2:	60da      	str	r2, [r3, #12]
 8001bb4:	6878      	ldr	r0, [r7, #4]
 8001bb6:	f000 f90b 	bl	8001dd0 <UART_SetConfig>
 8001bba:	687b      	ldr	r3, [r7, #4]
 8001bbc:	681b      	ldr	r3, [r3, #0]
 8001bbe:	691a      	ldr	r2, [r3, #16]
 8001bc0:	687b      	ldr	r3, [r7, #4]
 8001bc2:	681b      	ldr	r3, [r3, #0]
 8001bc4:	f422 4290 	bic.w	r2, r2, #18432	; 0x4800
 8001bc8:	611a      	str	r2, [r3, #16]
 8001bca:	687b      	ldr	r3, [r7, #4]
 8001bcc:	681b      	ldr	r3, [r3, #0]
 8001bce:	695a      	ldr	r2, [r3, #20]
 8001bd0:	687b      	ldr	r3, [r7, #4]
 8001bd2:	681b      	ldr	r3, [r3, #0]
 8001bd4:	f022 022a 	bic.w	r2, r2, #42	; 0x2a
 8001bd8:	615a      	str	r2, [r3, #20]
 8001bda:	687b      	ldr	r3, [r7, #4]
 8001bdc:	681b      	ldr	r3, [r3, #0]
 8001bde:	68da      	ldr	r2, [r3, #12]
 8001be0:	687b      	ldr	r3, [r7, #4]
 8001be2:	681b      	ldr	r3, [r3, #0]
 8001be4:	f442 5200 	orr.w	r2, r2, #8192	; 0x2000
 8001be8:	60da      	str	r2, [r3, #12]
 8001bea:	687b      	ldr	r3, [r7, #4]
 8001bec:	2200      	movs	r2, #0
 8001bee:	63da      	str	r2, [r3, #60]	; 0x3c
 8001bf0:	687b      	ldr	r3, [r7, #4]
 8001bf2:	2220      	movs	r2, #32
 8001bf4:	f883 2039 	strb.w	r2, [r3, #57]	; 0x39
 8001bf8:	687b      	ldr	r3, [r7, #4]
 8001bfa:	2220      	movs	r2, #32
 8001bfc:	f883 203a 	strb.w	r2, [r3, #58]	; 0x3a
 8001c00:	2300      	movs	r3, #0
 8001c02:	4618      	mov	r0, r3
 8001c04:	3708      	adds	r7, #8
 8001c06:	46bd      	mov	sp, r7
 8001c08:	bd80      	pop	{r7, pc}

08001c0a <HAL_UART_Transmit>:
 8001c0a:	b580      	push	{r7, lr}
 8001c0c:	b088      	sub	sp, #32
 8001c0e:	af02      	add	r7, sp, #8
 8001c10:	60f8      	str	r0, [r7, #12]
 8001c12:	60b9      	str	r1, [r7, #8]
 8001c14:	603b      	str	r3, [r7, #0]
 8001c16:	4613      	mov	r3, r2
 8001c18:	80fb      	strh	r3, [r7, #6]
 8001c1a:	2300      	movs	r3, #0
 8001c1c:	617b      	str	r3, [r7, #20]
 8001c1e:	68fb      	ldr	r3, [r7, #12]
 8001c20:	f893 3039 	ldrb.w	r3, [r3, #57]	; 0x39
 8001c24:	b2db      	uxtb	r3, r3
 8001c26:	2b20      	cmp	r3, #32
 8001c28:	f040 8083 	bne.w	8001d32 <HAL_UART_Transmit+0x128>
 8001c2c:	68bb      	ldr	r3, [r7, #8]
 8001c2e:	2b00      	cmp	r3, #0
 8001c30:	d002      	beq.n	8001c38 <HAL_UART_Transmit+0x2e>
 8001c32:	88fb      	ldrh	r3, [r7, #6]
 8001c34:	2b00      	cmp	r3, #0
 8001c36:	d101      	bne.n	8001c3c <HAL_UART_Transmit+0x32>
 8001c38:	2301      	movs	r3, #1
 8001c3a:	e07b      	b.n	8001d34 <HAL_UART_Transmit+0x12a>
 8001c3c:	68fb      	ldr	r3, [r7, #12]
 8001c3e:	f893 3038 	ldrb.w	r3, [r3, #56]	; 0x38
 8001c42:	2b01      	cmp	r3, #1
 8001c44:	d101      	bne.n	8001c4a <HAL_UART_Transmit+0x40>
 8001c46:	2302      	movs	r3, #2
 8001c48:	e074      	b.n	8001d34 <HAL_UART_Transmit+0x12a>
 8001c4a:	68fb      	ldr	r3, [r7, #12]
 8001c4c:	2201      	movs	r2, #1
 8001c4e:	f883 2038 	strb.w	r2, [r3, #56]	; 0x38
 8001c52:	68fb      	ldr	r3, [r7, #12]
 8001c54:	2200      	movs	r2, #0
 8001c56:	63da      	str	r2, [r3, #60]	; 0x3c
 8001c58:	68fb      	ldr	r3, [r7, #12]
 8001c5a:	2221      	movs	r2, #33	; 0x21
 8001c5c:	f883 2039 	strb.w	r2, [r3, #57]	; 0x39
 8001c60:	f7fe ff6a 	bl	8000b38 <HAL_GetTick>
 8001c64:	6178      	str	r0, [r7, #20]
 8001c66:	68fb      	ldr	r3, [r7, #12]
 8001c68:	88fa      	ldrh	r2, [r7, #6]
 8001c6a:	849a      	strh	r2, [r3, #36]	; 0x24
 8001c6c:	68fb      	ldr	r3, [r7, #12]
 8001c6e:	88fa      	ldrh	r2, [r7, #6]
 8001c70:	84da      	strh	r2, [r3, #38]	; 0x26
 8001c72:	68fb      	ldr	r3, [r7, #12]
 8001c74:	2200      	movs	r2, #0
 8001c76:	f883 2038 	strb.w	r2, [r3, #56]	; 0x38
 8001c7a:	e042      	b.n	8001d02 <HAL_UART_Transmit+0xf8>
 8001c7c:	68fb      	ldr	r3, [r7, #12]
 8001c7e:	8cdb      	ldrh	r3, [r3, #38]	; 0x26
 8001c80:	b29b      	uxth	r3, r3
 8001c82:	3b01      	subs	r3, #1
 8001c84:	b29a      	uxth	r2, r3
 8001c86:	68fb      	ldr	r3, [r7, #12]
 8001c88:	84da      	strh	r2, [r3, #38]	; 0x26
 8001c8a:	68fb      	ldr	r3, [r7, #12]
 8001c8c:	689b      	ldr	r3, [r3, #8]
 8001c8e:	f5b3 5f80 	cmp.w	r3, #4096	; 0x1000
 8001c92:	d122      	bne.n	8001cda <HAL_UART_Transmit+0xd0>
 8001c94:	683b      	ldr	r3, [r7, #0]
 8001c96:	9300      	str	r3, [sp, #0]
 8001c98:	697b      	ldr	r3, [r7, #20]
 8001c9a:	2200      	movs	r2, #0
 8001c9c:	2180      	movs	r1, #128	; 0x80
 8001c9e:	68f8      	ldr	r0, [r7, #12]
 8001ca0:	f000 f84c 	bl	8001d3c <UART_WaitOnFlagUntilTimeout>
 8001ca4:	4603      	mov	r3, r0
 8001ca6:	2b00      	cmp	r3, #0
 8001ca8:	d001      	beq.n	8001cae <HAL_UART_Transmit+0xa4>
 8001caa:	2303      	movs	r3, #3
 8001cac:	e042      	b.n	8001d34 <HAL_UART_Transmit+0x12a>
 8001cae:	68bb      	ldr	r3, [r7, #8]
 8001cb0:	613b      	str	r3, [r7, #16]
 8001cb2:	693b      	ldr	r3, [r7, #16]
 8001cb4:	881b      	ldrh	r3, [r3, #0]
 8001cb6:	461a      	mov	r2, r3
 8001cb8:	68fb      	ldr	r3, [r7, #12]
 8001cba:	681b      	ldr	r3, [r3, #0]
 8001cbc:	f3c2 0208 	ubfx	r2, r2, #0, #9
 8001cc0:	605a      	str	r2, [r3, #4]
 8001cc2:	68fb      	ldr	r3, [r7, #12]
 8001cc4:	691b      	ldr	r3, [r3, #16]
 8001cc6:	2b00      	cmp	r3, #0
 8001cc8:	d103      	bne.n	8001cd2 <HAL_UART_Transmit+0xc8>
 8001cca:	68bb      	ldr	r3, [r7, #8]
 8001ccc:	3302      	adds	r3, #2
 8001cce:	60bb      	str	r3, [r7, #8]
 8001cd0:	e017      	b.n	8001d02 <HAL_UART_Transmit+0xf8>
 8001cd2:	68bb      	ldr	r3, [r7, #8]
 8001cd4:	3301      	adds	r3, #1
 8001cd6:	60bb      	str	r3, [r7, #8]
 8001cd8:	e013      	b.n	8001d02 <HAL_UART_Transmit+0xf8>
 8001cda:	683b      	ldr	r3, [r7, #0]
 8001cdc:	9300      	str	r3, [sp, #0]
 8001cde:	697b      	ldr	r3, [r7, #20]
 8001ce0:	2200      	movs	r2, #0
 8001ce2:	2180      	movs	r1, #128	; 0x80
 8001ce4:	68f8      	ldr	r0, [r7, #12]
 8001ce6:	f000 f829 	bl	8001d3c <UART_WaitOnFlagUntilTimeout>
 8001cea:	4603      	mov	r3, r0
 8001cec:	2b00      	cmp	r3, #0
 8001cee:	d001      	beq.n	8001cf4 <HAL_UART_Transmit+0xea>
 8001cf0:	2303      	movs	r3, #3
 8001cf2:	e01f      	b.n	8001d34 <HAL_UART_Transmit+0x12a>
 8001cf4:	68bb      	ldr	r3, [r7, #8]
 8001cf6:	1c5a      	adds	r2, r3, #1
 8001cf8:	60ba      	str	r2, [r7, #8]
 8001cfa:	781a      	ldrb	r2, [r3, #0]
 8001cfc:	68fb      	ldr	r3, [r7, #12]
 8001cfe:	681b      	ldr	r3, [r3, #0]
 8001d00:	605a      	str	r2, [r3, #4]
 8001d02:	68fb      	ldr	r3, [r7, #12]
 8001d04:	8cdb      	ldrh	r3, [r3, #38]	; 0x26
 8001d06:	b29b      	uxth	r3, r3
 8001d08:	2b00      	cmp	r3, #0
 8001d0a:	d1b7      	bne.n	8001c7c <HAL_UART_Transmit+0x72>
 8001d0c:	683b      	ldr	r3, [r7, #0]
 8001d0e:	9300      	str	r3, [sp, #0]
 8001d10:	697b      	ldr	r3, [r7, #20]
 8001d12:	2200      	movs	r2, #0
 8001d14:	2140      	movs	r1, #64	; 0x40
 8001d16:	68f8      	ldr	r0, [r7, #12]
 8001d18:	f000 f810 	bl	8001d3c <UART_WaitOnFlagUntilTimeout>
 8001d1c:	4603      	mov	r3, r0
 8001d1e:	2b00      	cmp	r3, #0
 8001d20:	d001      	beq.n	8001d26 <HAL_UART_Transmit+0x11c>
 8001d22:	2303      	movs	r3, #3
 8001d24:	e006      	b.n	8001d34 <HAL_UART_Transmit+0x12a>
 8001d26:	68fb      	ldr	r3, [r7, #12]
 8001d28:	2220      	movs	r2, #32
 8001d2a:	f883 2039 	strb.w	r2, [r3, #57]	; 0x39
 8001d2e:	2300      	movs	r3, #0
 8001d30:	e000      	b.n	8001d34 <HAL_UART_Transmit+0x12a>
 8001d32:	2302      	movs	r3, #2
 8001d34:	4618      	mov	r0, r3
 8001d36:	3718      	adds	r7, #24
 8001d38:	46bd      	mov	sp, r7
 8001d3a:	bd80      	pop	{r7, pc}

08001d3c <UART_WaitOnFlagUntilTimeout>:
 8001d3c:	b580      	push	{r7, lr}
 8001d3e:	b084      	sub	sp, #16
 8001d40:	af00      	add	r7, sp, #0
 8001d42:	60f8      	str	r0, [r7, #12]
 8001d44:	60b9      	str	r1, [r7, #8]
 8001d46:	603b      	str	r3, [r7, #0]
 8001d48:	4613      	mov	r3, r2
 8001d4a:	71fb      	strb	r3, [r7, #7]
 8001d4c:	e02c      	b.n	8001da8 <UART_WaitOnFlagUntilTimeout+0x6c>
 8001d4e:	69bb      	ldr	r3, [r7, #24]
 8001d50:	f1b3 3fff 	cmp.w	r3, #4294967295
 8001d54:	d028      	beq.n	8001da8 <UART_WaitOnFlagUntilTimeout+0x6c>
 8001d56:	69bb      	ldr	r3, [r7, #24]
 8001d58:	2b00      	cmp	r3, #0
 8001d5a:	d007      	beq.n	8001d6c <UART_WaitOnFlagUntilTimeout+0x30>
 8001d5c:	f7fe feec 	bl	8000b38 <HAL_GetTick>
 8001d60:	4602      	mov	r2, r0
 8001d62:	683b      	ldr	r3, [r7, #0]
 8001d64:	1ad3      	subs	r3, r2, r3
 8001d66:	69ba      	ldr	r2, [r7, #24]
 8001d68:	429a      	cmp	r2, r3
 8001d6a:	d21d      	bcs.n	8001da8 <UART_WaitOnFlagUntilTimeout+0x6c>
 8001d6c:	68fb      	ldr	r3, [r7, #12]
 8001d6e:	681b      	ldr	r3, [r3, #0]
 8001d70:	68da      	ldr	r2, [r3, #12]
 8001d72:	68fb      	ldr	r3, [r7, #12]
 8001d74:	681b      	ldr	r3, [r3, #0]
 8001d76:	f422 72d0 	bic.w	r2, r2, #416	; 0x1a0
 8001d7a:	60da      	str	r2, [r3, #12]
 8001d7c:	68fb      	ldr	r3, [r7, #12]
 8001d7e:	681b      	ldr	r3, [r3, #0]
 8001d80:	695a      	ldr	r2, [r3, #20]
 8001d82:	68fb      	ldr	r3, [r7, #12]
 8001d84:	681b      	ldr	r3, [r3, #0]
 8001d86:	f022 0201 	bic.w	r2, r2, #1
 8001d8a:	615a      	str	r2, [r3, #20]
 8001d8c:	68fb      	ldr	r3, [r7, #12]
 8001d8e:	2220      	movs	r2, #32
 8001d90:	f883 2039 	strb.w	r2, [r3, #57]	; 0x39
 8001d94:	68fb      	ldr	r3, [r7, #12]
 8001d96:	2220      	movs	r2, #32
 8001d98:	f883 203a 	strb.w	r2, [r3, #58]	; 0x3a
 8001d9c:	68fb      	ldr	r3, [r7, #12]
 8001d9e:	2200      	movs	r2, #0
 8001da0:	f883 2038 	strb.w	r2, [r3, #56]	; 0x38
 8001da4:	2303      	movs	r3, #3
 8001da6:	e00f      	b.n	8001dc8 <UART_WaitOnFlagUntilTimeout+0x8c>
 8001da8:	68fb      	ldr	r3, [r7, #12]
 8001daa:	681b      	ldr	r3, [r3, #0]
 8001dac:	681a      	ldr	r2, [r3, #0]
 8001dae:	68bb      	ldr	r3, [r7, #8]
 8001db0:	4013      	ands	r3, r2
 8001db2:	68ba      	ldr	r2, [r7, #8]
 8001db4:	429a      	cmp	r2, r3
 8001db6:	bf0c      	ite	eq
 8001db8:	2301      	moveq	r3, #1
 8001dba:	2300      	movne	r3, #0
 8001dbc:	b2db      	uxtb	r3, r3
 8001dbe:	461a      	mov	r2, r3
 8001dc0:	79fb      	ldrb	r3, [r7, #7]
 8001dc2:	429a      	cmp	r2, r3
 8001dc4:	d0c3      	beq.n	8001d4e <UART_WaitOnFlagUntilTimeout+0x12>
 8001dc6:	2300      	movs	r3, #0
 8001dc8:	4618      	mov	r0, r3
 8001dca:	3710      	adds	r7, #16
 8001dcc:	46bd      	mov	sp, r7
 8001dce:	bd80      	pop	{r7, pc}

08001dd0 <UART_SetConfig>:
 8001dd0:	e92d 4ff0 	stmdb	sp!, {r4, r5, r6, r7, r8, r9, sl, fp, lr}
 8001dd4:	b085      	sub	sp, #20
 8001dd6:	af00      	add	r7, sp, #0
 8001dd8:	6078      	str	r0, [r7, #4]
 8001dda:	687b      	ldr	r3, [r7, #4]
 8001ddc:	681b      	ldr	r3, [r3, #0]
 8001dde:	691b      	ldr	r3, [r3, #16]
 8001de0:	f423 5140 	bic.w	r1, r3, #12288	; 0x3000
 8001de4:	687b      	ldr	r3, [r7, #4]
 8001de6:	68da      	ldr	r2, [r3, #12]
 8001de8:	687b      	ldr	r3, [r7, #4]
 8001dea:	681b      	ldr	r3, [r3, #0]
 8001dec:	430a      	orrs	r2, r1
 8001dee:	611a      	str	r2, [r3, #16]
 8001df0:	687b      	ldr	r3, [r7, #4]
 8001df2:	689a      	ldr	r2, [r3, #8]
 8001df4:	687b      	ldr	r3, [r7, #4]
 8001df6:	691b      	ldr	r3, [r3, #16]
 8001df8:	431a      	orrs	r2, r3
 8001dfa:	687b      	ldr	r3, [r7, #4]
 8001dfc:	695b      	ldr	r3, [r3, #20]
 8001dfe:	431a      	orrs	r2, r3
 8001e00:	687b      	ldr	r3, [r7, #4]
 8001e02:	69db      	ldr	r3, [r3, #28]
 8001e04:	4313      	orrs	r3, r2
 8001e06:	60fb      	str	r3, [r7, #12]
 8001e08:	687b      	ldr	r3, [r7, #4]
 8001e0a:	681b      	ldr	r3, [r3, #0]
 8001e0c:	68db      	ldr	r3, [r3, #12]
 8001e0e:	f423 4316 	bic.w	r3, r3, #38400	; 0x9600
 8001e12:	f023 030c 	bic.w	r3, r3, #12
 8001e16:	687a      	ldr	r2, [r7, #4]
 8001e18:	6812      	ldr	r2, [r2, #0]
 8001e1a:	68f9      	ldr	r1, [r7, #12]
 8001e1c:	430b      	orrs	r3, r1
 8001e1e:	60d3      	str	r3, [r2, #12]
 8001e20:	687b      	ldr	r3, [r7, #4]
 8001e22:	681b      	ldr	r3, [r3, #0]
 8001e24:	695b      	ldr	r3, [r3, #20]
 8001e26:	f423 7140 	bic.w	r1, r3, #768	; 0x300
 8001e2a:	687b      	ldr	r3, [r7, #4]
 8001e2c:	699a      	ldr	r2, [r3, #24]
 8001e2e:	687b      	ldr	r3, [r7, #4]
 8001e30:	681b      	ldr	r3, [r3, #0]
 8001e32:	430a      	orrs	r2, r1
 8001e34:	615a      	str	r2, [r3, #20]
 8001e36:	687b      	ldr	r3, [r7, #4]
 8001e38:	69db      	ldr	r3, [r3, #28]
 8001e3a:	f5b3 4f00 	cmp.w	r3, #32768	; 0x8000
 8001e3e:	f040 818b 	bne.w	8002158 <UART_SetConfig+0x388>
 8001e42:	687b      	ldr	r3, [r7, #4]
 8001e44:	681b      	ldr	r3, [r3, #0]
 8001e46:	4ac1      	ldr	r2, [pc, #772]	; (800214c <UART_SetConfig+0x37c>)
 8001e48:	4293      	cmp	r3, r2
 8001e4a:	d005      	beq.n	8001e58 <UART_SetConfig+0x88>
 8001e4c:	687b      	ldr	r3, [r7, #4]
 8001e4e:	681b      	ldr	r3, [r3, #0]
 8001e50:	4abf      	ldr	r2, [pc, #764]	; (8002150 <UART_SetConfig+0x380>)
 8001e52:	4293      	cmp	r3, r2
 8001e54:	f040 80bd 	bne.w	8001fd2 <UART_SetConfig+0x202>
 8001e58:	f7ff fd94 	bl	8001984 <HAL_RCC_GetPCLK2Freq>
 8001e5c:	60b8      	str	r0, [r7, #8]
 8001e5e:	68bb      	ldr	r3, [r7, #8]
 8001e60:	461d      	mov	r5, r3
 8001e62:	f04f 0600 	mov.w	r6, #0
 8001e66:	46a8      	mov	r8, r5
 8001e68:	46b1      	mov	r9, r6
 8001e6a:	eb18 0308 	adds.w	r3, r8, r8
 8001e6e:	eb49 0409 	adc.w	r4, r9, r9
 8001e72:	4698      	mov	r8, r3
 8001e74:	46a1      	mov	r9, r4
 8001e76:	eb18 0805 	adds.w	r8, r8, r5
 8001e7a:	eb49 0906 	adc.w	r9, r9, r6
 8001e7e:	f04f 0100 	mov.w	r1, #0
 8001e82:	f04f 0200 	mov.w	r2, #0
 8001e86:	ea4f 02c9 	mov.w	r2, r9, lsl #3
 8001e8a:	ea42 7258 	orr.w	r2, r2, r8, lsr #29
 8001e8e:	ea4f 01c8 	mov.w	r1, r8, lsl #3
 8001e92:	4688      	mov	r8, r1
 8001e94:	4691      	mov	r9, r2
 8001e96:	eb18 0005 	adds.w	r0, r8, r5
 8001e9a:	eb49 0106 	adc.w	r1, r9, r6
 8001e9e:	687b      	ldr	r3, [r7, #4]
 8001ea0:	685b      	ldr	r3, [r3, #4]
 8001ea2:	461d      	mov	r5, r3
 8001ea4:	f04f 0600 	mov.w	r6, #0
 8001ea8:	196b      	adds	r3, r5, r5
 8001eaa:	eb46 0406 	adc.w	r4, r6, r6
 8001eae:	461a      	mov	r2, r3
 8001eb0:	4623      	mov	r3, r4
 8001eb2:	f7fe fa3d 	bl	8000330 <__aeabi_uldivmod>
 8001eb6:	4603      	mov	r3, r0
 8001eb8:	460c      	mov	r4, r1
 8001eba:	461a      	mov	r2, r3
 8001ebc:	4ba5      	ldr	r3, [pc, #660]	; (8002154 <UART_SetConfig+0x384>)
 8001ebe:	fba3 2302 	umull	r2, r3, r3, r2
 8001ec2:	095b      	lsrs	r3, r3, #5
 8001ec4:	ea4f 1803 	mov.w	r8, r3, lsl #4
 8001ec8:	68bb      	ldr	r3, [r7, #8]
 8001eca:	461d      	mov	r5, r3
 8001ecc:	f04f 0600 	mov.w	r6, #0
 8001ed0:	46a9      	mov	r9, r5
 8001ed2:	46b2      	mov	sl, r6
 8001ed4:	eb19 0309 	adds.w	r3, r9, r9
 8001ed8:	eb4a 040a 	adc.w	r4, sl, sl
 8001edc:	4699      	mov	r9, r3
 8001ede:	46a2      	mov	sl, r4
 8001ee0:	eb19 0905 	adds.w	r9, r9, r5
 8001ee4:	eb4a 0a06 	adc.w	sl, sl, r6
 8001ee8:	f04f 0100 	mov.w	r1, #0
 8001eec:	f04f 0200 	mov.w	r2, #0
 8001ef0:	ea4f 02ca 	mov.w	r2, sl, lsl #3
 8001ef4:	ea42 7259 	orr.w	r2, r2, r9, lsr #29
 8001ef8:	ea4f 01c9 	mov.w	r1, r9, lsl #3
 8001efc:	4689      	mov	r9, r1
 8001efe:	4692      	mov	sl, r2
 8001f00:	eb19 0005 	adds.w	r0, r9, r5
 8001f04:	eb4a 0106 	adc.w	r1, sl, r6
 8001f08:	687b      	ldr	r3, [r7, #4]
 8001f0a:	685b      	ldr	r3, [r3, #4]
 8001f0c:	461d      	mov	r5, r3
 8001f0e:	f04f 0600 	mov.w	r6, #0
 8001f12:	196b      	adds	r3, r5, r5
 8001f14:	eb46 0406 	adc.w	r4, r6, r6
 8001f18:	461a      	mov	r2, r3
 8001f1a:	4623      	mov	r3, r4
 8001f1c:	f7fe fa08 	bl	8000330 <__aeabi_uldivmod>
 8001f20:	4603      	mov	r3, r0
 8001f22:	460c      	mov	r4, r1
 8001f24:	461a      	mov	r2, r3
 8001f26:	4b8b      	ldr	r3, [pc, #556]	; (8002154 <UART_SetConfig+0x384>)
 8001f28:	fba3 1302 	umull	r1, r3, r3, r2
 8001f2c:	095b      	lsrs	r3, r3, #5
 8001f2e:	2164      	movs	r1, #100	; 0x64
 8001f30:	fb01 f303 	mul.w	r3, r1, r3
 8001f34:	1ad3      	subs	r3, r2, r3
 8001f36:	00db      	lsls	r3, r3, #3
 8001f38:	3332      	adds	r3, #50	; 0x32
 8001f3a:	4a86      	ldr	r2, [pc, #536]	; (8002154 <UART_SetConfig+0x384>)
 8001f3c:	fba2 2303 	umull	r2, r3, r2, r3
 8001f40:	095b      	lsrs	r3, r3, #5
 8001f42:	005b      	lsls	r3, r3, #1
 8001f44:	f403 73f8 	and.w	r3, r3, #496	; 0x1f0
 8001f48:	4498      	add	r8, r3
 8001f4a:	68bb      	ldr	r3, [r7, #8]
 8001f4c:	461d      	mov	r5, r3
 8001f4e:	f04f 0600 	mov.w	r6, #0
 8001f52:	46a9      	mov	r9, r5
 8001f54:	46b2      	mov	sl, r6
 8001f56:	eb19 0309 	adds.w	r3, r9, r9
 8001f5a:	eb4a 040a 	adc.w	r4, sl, sl
 8001f5e:	4699      	mov	r9, r3
 8001f60:	46a2      	mov	sl, r4
 8001f62:	eb19 0905 	adds.w	r9, r9, r5
 8001f66:	eb4a 0a06 	adc.w	sl, sl, r6
 8001f6a:	f04f 0100 	mov.w	r1, #0
 8001f6e:	f04f 0200 	mov.w	r2, #0
 8001f72:	ea4f 02ca 	mov.w	r2, sl, lsl #3
 8001f76:	ea42 7259 	orr.w	r2, r2, r9, lsr #29
 8001f7a:	ea4f 01c9 	mov.w	r1, r9, lsl #3
 8001f7e:	4689      	mov	r9, r1
 8001f80:	4692      	mov	sl, r2
 8001f82:	eb19 0005 	adds.w	r0, r9, r5
 8001f86:	eb4a 0106 	adc.w	r1, sl, r6
 8001f8a:	687b      	ldr	r3, [r7, #4]
 8001f8c:	685b      	ldr	r3, [r3, #4]
 8001f8e:	461d      	mov	r5, r3
 8001f90:	f04f 0600 	mov.w	r6, #0
 8001f94:	196b      	adds	r3, r5, r5
 8001f96:	eb46 0406 	adc.w	r4, r6, r6
 8001f9a:	461a      	mov	r2, r3
 8001f9c:	4623      	mov	r3, r4
 8001f9e:	f7fe f9c7 	bl	8000330 <__aeabi_uldivmod>
 8001fa2:	4603      	mov	r3, r0
 8001fa4:	460c      	mov	r4, r1
 8001fa6:	461a      	mov	r2, r3
 8001fa8:	4b6a      	ldr	r3, [pc, #424]	; (8002154 <UART_SetConfig+0x384>)
 8001faa:	fba3 1302 	umull	r1, r3, r3, r2
 8001fae:	095b      	lsrs	r3, r3, #5
 8001fb0:	2164      	movs	r1, #100	; 0x64
 8001fb2:	fb01 f303 	mul.w	r3, r1, r3
 8001fb6:	1ad3      	subs	r3, r2, r3
 8001fb8:	00db      	lsls	r3, r3, #3
 8001fba:	3332      	adds	r3, #50	; 0x32
 8001fbc:	4a65      	ldr	r2, [pc, #404]	; (8002154 <UART_SetConfig+0x384>)
 8001fbe:	fba2 2303 	umull	r2, r3, r2, r3
 8001fc2:	095b      	lsrs	r3, r3, #5
 8001fc4:	f003 0207 	and.w	r2, r3, #7
 8001fc8:	687b      	ldr	r3, [r7, #4]
 8001fca:	681b      	ldr	r3, [r3, #0]
 8001fcc:	4442      	add	r2, r8
 8001fce:	609a      	str	r2, [r3, #8]
 8001fd0:	e26f      	b.n	80024b2 <UART_SetConfig+0x6e2>
 8001fd2:	f7ff fcc3 	bl	800195c <HAL_RCC_GetPCLK1Freq>
 8001fd6:	60b8      	str	r0, [r7, #8]
 8001fd8:	68bb      	ldr	r3, [r7, #8]
 8001fda:	461d      	mov	r5, r3
 8001fdc:	f04f 0600 	mov.w	r6, #0
 8001fe0:	46a8      	mov	r8, r5
 8001fe2:	46b1      	mov	r9, r6
 8001fe4:	eb18 0308 	adds.w	r3, r8, r8
 8001fe8:	eb49 0409 	adc.w	r4, r9, r9
 8001fec:	4698      	mov	r8, r3
 8001fee:	46a1      	mov	r9, r4
 8001ff0:	eb18 0805 	adds.w	r8, r8, r5
 8001ff4:	eb49 0906 	adc.w	r9, r9, r6
 8001ff8:	f04f 0100 	mov.w	r1, #0
 8001ffc:	f04f 0200 	mov.w	r2, #0
 8002000:	ea4f 02c9 	mov.w	r2, r9, lsl #3
 8002004:	ea42 7258 	orr.w	r2, r2, r8, lsr #29
 8002008:	ea4f 01c8 	mov.w	r1, r8, lsl #3
 800200c:	4688      	mov	r8, r1
 800200e:	4691      	mov	r9, r2
 8002010:	eb18 0005 	adds.w	r0, r8, r5
 8002014:	eb49 0106 	adc.w	r1, r9, r6
 8002018:	687b      	ldr	r3, [r7, #4]
 800201a:	685b      	ldr	r3, [r3, #4]
 800201c:	461d      	mov	r5, r3
 800201e:	f04f 0600 	mov.w	r6, #0
 8002022:	196b      	adds	r3, r5, r5
 8002024:	eb46 0406 	adc.w	r4, r6, r6
 8002028:	461a      	mov	r2, r3
 800202a:	4623      	mov	r3, r4
 800202c:	f7fe f980 	bl	8000330 <__aeabi_uldivmod>
 8002030:	4603      	mov	r3, r0
 8002032:	460c      	mov	r4, r1
 8002034:	461a      	mov	r2, r3
 8002036:	4b47      	ldr	r3, [pc, #284]	; (8002154 <UART_SetConfig+0x384>)
 8002038:	fba3 2302 	umull	r2, r3, r3, r2
 800203c:	095b      	lsrs	r3, r3, #5
 800203e:	ea4f 1803 	mov.w	r8, r3, lsl #4
 8002042:	68bb      	ldr	r3, [r7, #8]
 8002044:	461d      	mov	r5, r3
 8002046:	f04f 0600 	mov.w	r6, #0
 800204a:	46a9      	mov	r9, r5
 800204c:	46b2      	mov	sl, r6
 800204e:	eb19 0309 	adds.w	r3, r9, r9
 8002052:	eb4a 040a 	adc.w	r4, sl, sl
 8002056:	4699      	mov	r9, r3
 8002058:	46a2      	mov	sl, r4
 800205a:	eb19 0905 	adds.w	r9, r9, r5
 800205e:	eb4a 0a06 	adc.w	sl, sl, r6
 8002062:	f04f 0100 	mov.w	r1, #0
 8002066:	f04f 0200 	mov.w	r2, #0
 800206a:	ea4f 02ca 	mov.w	r2, sl, lsl #3
 800206e:	ea42 7259 	orr.w	r2, r2, r9, lsr #29
 8002072:	ea4f 01c9 	mov.w	r1, r9, lsl #3
 8002076:	4689      	mov	r9, r1
 8002078:	4692      	mov	sl, r2
 800207a:	eb19 0005 	adds.w	r0, r9, r5
 800207e:	eb4a 0106 	adc.w	r1, sl, r6
 8002082:	687b      	ldr	r3, [r7, #4]
 8002084:	685b      	ldr	r3, [r3, #4]
 8002086:	461d      	mov	r5, r3
 8002088:	f04f 0600 	mov.w	r6, #0
 800208c:	196b      	adds	r3, r5, r5
 800208e:	eb46 0406 	adc.w	r4, r6, r6
 8002092:	461a      	mov	r2, r3
 8002094:	4623      	mov	r3, r4
 8002096:	f7fe f94b 	bl	8000330 <__aeabi_uldivmod>
 800209a:	4603      	mov	r3, r0
 800209c:	460c      	mov	r4, r1
 800209e:	461a      	mov	r2, r3
 80020a0:	4b2c      	ldr	r3, [pc, #176]	; (8002154 <UART_SetConfig+0x384>)
 80020a2:	fba3 1302 	umull	r1, r3, r3, r2
 80020a6:	095b      	lsrs	r3, r3, #5
 80020a8:	2164      	movs	r1, #100	; 0x64
 80020aa:	fb01 f303 	mul.w	r3, r1, r3
 80020ae:	1ad3      	subs	r3, r2, r3
 80020b0:	00db      	lsls	r3, r3, #3
 80020b2:	3332      	adds	r3, #50	; 0x32
 80020b4:	4a27      	ldr	r2, [pc, #156]	; (8002154 <UART_SetConfig+0x384>)
 80020b6:	fba2 2303 	umull	r2, r3, r2, r3
 80020ba:	095b      	lsrs	r3, r3, #5
 80020bc:	005b      	lsls	r3, r3, #1
 80020be:	f403 73f8 	and.w	r3, r3, #496	; 0x1f0
 80020c2:	4498      	add	r8, r3
 80020c4:	68bb      	ldr	r3, [r7, #8]
 80020c6:	461d      	mov	r5, r3
 80020c8:	f04f 0600 	mov.w	r6, #0
 80020cc:	46a9      	mov	r9, r5
 80020ce:	46b2      	mov	sl, r6
 80020d0:	eb19 0309 	adds.w	r3, r9, r9
 80020d4:	eb4a 040a 	adc.w	r4, sl, sl
 80020d8:	4699      	mov	r9, r3
 80020da:	46a2      	mov	sl, r4
 80020dc:	eb19 0905 	adds.w	r9, r9, r5
 80020e0:	eb4a 0a06 	adc.w	sl, sl, r6
 80020e4:	f04f 0100 	mov.w	r1, #0
 80020e8:	f04f 0200 	mov.w	r2, #0
 80020ec:	ea4f 02ca 	mov.w	r2, sl, lsl #3
 80020f0:	ea42 7259 	orr.w	r2, r2, r9, lsr #29
 80020f4:	ea4f 01c9 	mov.w	r1, r9, lsl #3
 80020f8:	4689      	mov	r9, r1
 80020fa:	4692      	mov	sl, r2
 80020fc:	eb19 0005 	adds.w	r0, r9, r5
 8002100:	eb4a 0106 	adc.w	r1, sl, r6
 8002104:	687b      	ldr	r3, [r7, #4]
 8002106:	685b      	ldr	r3, [r3, #4]
 8002108:	461d      	mov	r5, r3
 800210a:	f04f 0600 	mov.w	r6, #0
 800210e:	196b      	adds	r3, r5, r5
 8002110:	eb46 0406 	adc.w	r4, r6, r6
 8002114:	461a      	mov	r2, r3
 8002116:	4623      	mov	r3, r4
 8002118:	f7fe f90a 	bl	8000330 <__aeabi_uldivmod>
 800211c:	4603      	mov	r3, r0
 800211e:	460c      	mov	r4, r1
 8002120:	461a      	mov	r2, r3
 8002122:	4b0c      	ldr	r3, [pc, #48]	; (8002154 <UART_SetConfig+0x384>)
 8002124:	fba3 1302 	umull	r1, r3, r3, r2
 8002128:	095b      	lsrs	r3, r3, #5
 800212a:	2164      	movs	r1, #100	; 0x64
 800212c:	fb01 f303 	mul.w	r3, r1, r3
 8002130:	1ad3      	subs	r3, r2, r3
 8002132:	00db      	lsls	r3, r3, #3
 8002134:	3332      	adds	r3, #50	; 0x32
 8002136:	4a07      	ldr	r2, [pc, #28]	; (8002154 <UART_SetConfig+0x384>)
 8002138:	fba2 2303 	umull	r2, r3, r2, r3
 800213c:	095b      	lsrs	r3, r3, #5
 800213e:	f003 0207 	and.w	r2, r3, #7
 8002142:	687b      	ldr	r3, [r7, #4]
 8002144:	681b      	ldr	r3, [r3, #0]
 8002146:	4442      	add	r2, r8
 8002148:	609a      	str	r2, [r3, #8]
 800214a:	e1b2      	b.n	80024b2 <UART_SetConfig+0x6e2>
 800214c:	40011000 	.word	0x40011000
 8002150:	40011400 	.word	0x40011400
 8002154:	51eb851f 	.word	0x51eb851f
 8002158:	687b      	ldr	r3, [r7, #4]
 800215a:	681b      	ldr	r3, [r3, #0]
 800215c:	4ad7      	ldr	r2, [pc, #860]	; (80024bc <UART_SetConfig+0x6ec>)
 800215e:	4293      	cmp	r3, r2
 8002160:	d005      	beq.n	800216e <UART_SetConfig+0x39e>
 8002162:	687b      	ldr	r3, [r7, #4]
 8002164:	681b      	ldr	r3, [r3, #0]
 8002166:	4ad6      	ldr	r2, [pc, #856]	; (80024c0 <UART_SetConfig+0x6f0>)
 8002168:	4293      	cmp	r3, r2
 800216a:	f040 80d1 	bne.w	8002310 <UART_SetConfig+0x540>
 800216e:	f7ff fc09 	bl	8001984 <HAL_RCC_GetPCLK2Freq>
 8002172:	60b8      	str	r0, [r7, #8]
 8002174:	68bb      	ldr	r3, [r7, #8]
 8002176:	469a      	mov	sl, r3
 8002178:	f04f 0b00 	mov.w	fp, #0
 800217c:	46d0      	mov	r8, sl
 800217e:	46d9      	mov	r9, fp
 8002180:	eb18 0308 	adds.w	r3, r8, r8
 8002184:	eb49 0409 	adc.w	r4, r9, r9
 8002188:	4698      	mov	r8, r3
 800218a:	46a1      	mov	r9, r4
 800218c:	eb18 080a 	adds.w	r8, r8, sl
 8002190:	eb49 090b 	adc.w	r9, r9, fp
 8002194:	f04f 0100 	mov.w	r1, #0
 8002198:	f04f 0200 	mov.w	r2, #0
 800219c:	ea4f 02c9 	mov.w	r2, r9, lsl #3
 80021a0:	ea42 7258 	orr.w	r2, r2, r8, lsr #29
 80021a4:	ea4f 01c8 	mov.w	r1, r8, lsl #3
 80021a8:	4688      	mov	r8, r1
 80021aa:	4691      	mov	r9, r2
 80021ac:	eb1a 0508 	adds.w	r5, sl, r8
 80021b0:	eb4b 0609 	adc.w	r6, fp, r9
 80021b4:	687b      	ldr	r3, [r7, #4]
 80021b6:	685b      	ldr	r3, [r3, #4]
 80021b8:	4619      	mov	r1, r3
 80021ba:	f04f 0200 	mov.w	r2, #0
 80021be:	f04f 0300 	mov.w	r3, #0
 80021c2:	f04f 0400 	mov.w	r4, #0
 80021c6:	0094      	lsls	r4, r2, #2
 80021c8:	ea44 7491 	orr.w	r4, r4, r1, lsr #30
 80021cc:	008b      	lsls	r3, r1, #2
 80021ce:	461a      	mov	r2, r3
 80021d0:	4623      	mov	r3, r4
 80021d2:	4628      	mov	r0, r5
 80021d4:	4631      	mov	r1, r6
 80021d6:	f7fe f8ab 	bl	8000330 <__aeabi_uldivmod>
 80021da:	4603      	mov	r3, r0
 80021dc:	460c      	mov	r4, r1
 80021de:	461a      	mov	r2, r3
 80021e0:	4bb8      	ldr	r3, [pc, #736]	; (80024c4 <UART_SetConfig+0x6f4>)
 80021e2:	fba3 2302 	umull	r2, r3, r3, r2
 80021e6:	095b      	lsrs	r3, r3, #5
 80021e8:	ea4f 1803 	mov.w	r8, r3, lsl #4
 80021ec:	68bb      	ldr	r3, [r7, #8]
 80021ee:	469b      	mov	fp, r3
 80021f0:	f04f 0c00 	mov.w	ip, #0
 80021f4:	46d9      	mov	r9, fp
 80021f6:	46e2      	mov	sl, ip
 80021f8:	eb19 0309 	adds.w	r3, r9, r9
 80021fc:	eb4a 040a 	adc.w	r4, sl, sl
 8002200:	4699      	mov	r9, r3
 8002202:	46a2      	mov	sl, r4
 8002204:	eb19 090b 	adds.w	r9, r9, fp
 8002208:	eb4a 0a0c 	adc.w	sl, sl, ip
 800220c:	f04f 0100 	mov.w	r1, #0
 8002210:	f04f 0200 	mov.w	r2, #0
 8002214:	ea4f 02ca 	mov.w	r2, sl, lsl #3
 8002218:	ea42 7259 	orr.w	r2, r2, r9, lsr #29
 800221c:	ea4f 01c9 	mov.w	r1, r9, lsl #3
 8002220:	4689      	mov	r9, r1
 8002222:	4692      	mov	sl, r2
 8002224:	eb1b 0509 	adds.w	r5, fp, r9
 8002228:	eb4c 060a 	adc.w	r6, ip, sl
 800222c:	687b      	ldr	r3, [r7, #4]
 800222e:	685b      	ldr	r3, [r3, #4]
 8002230:	4619      	mov	r1, r3
 8002232:	f04f 0200 	mov.w	r2, #0
 8002236:	f04f 0300 	mov.w	r3, #0
 800223a:	f04f 0400 	mov.w	r4, #0
 800223e:	0094      	lsls	r4, r2, #2
 8002240:	ea44 7491 	orr.w	r4, r4, r1, lsr #30
 8002244:	008b      	lsls	r3, r1, #2
 8002246:	461a      	mov	r2, r3
 8002248:	4623      	mov	r3, r4
 800224a:	4628      	mov	r0, r5
 800224c:	4631      	mov	r1, r6
 800224e:	f7fe f86f 	bl	8000330 <__aeabi_uldivmod>
 8002252:	4603      	mov	r3, r0
 8002254:	460c      	mov	r4, r1
 8002256:	461a      	mov	r2, r3
 8002258:	4b9a      	ldr	r3, [pc, #616]	; (80024c4 <UART_SetConfig+0x6f4>)
 800225a:	fba3 1302 	umull	r1, r3, r3, r2
 800225e:	095b      	lsrs	r3, r3, #5
 8002260:	2164      	movs	r1, #100	; 0x64
 8002262:	fb01 f303 	mul.w	r3, r1, r3
 8002266:	1ad3      	subs	r3, r2, r3
 8002268:	011b      	lsls	r3, r3, #4
 800226a:	3332      	adds	r3, #50	; 0x32
 800226c:	4a95      	ldr	r2, [pc, #596]	; (80024c4 <UART_SetConfig+0x6f4>)
 800226e:	fba2 2303 	umull	r2, r3, r2, r3
 8002272:	095b      	lsrs	r3, r3, #5
 8002274:	f003 03f0 	and.w	r3, r3, #240	; 0xf0
 8002278:	4498      	add	r8, r3
 800227a:	68bb      	ldr	r3, [r7, #8]
 800227c:	469b      	mov	fp, r3
 800227e:	f04f 0c00 	mov.w	ip, #0
 8002282:	46d9      	mov	r9, fp
 8002284:	46e2      	mov	sl, ip
 8002286:	eb19 0309 	adds.w	r3, r9, r9
 800228a:	eb4a 040a 	adc.w	r4, sl, sl
 800228e:	4699      	mov	r9, r3
 8002290:	46a2      	mov	sl, r4
 8002292:	eb19 090b 	adds.w	r9, r9, fp
 8002296:	eb4a 0a0c 	adc.w	sl, sl, ip
 800229a:	f04f 0100 	mov.w	r1, #0
 800229e:	f04f 0200 	mov.w	r2, #0
 80022a2:	ea4f 02ca 	mov.w	r2, sl, lsl #3
 80022a6:	ea42 7259 	orr.w	r2, r2, r9, lsr #29
 80022aa:	ea4f 01c9 	mov.w	r1, r9, lsl #3
 80022ae:	4689      	mov	r9, r1
 80022b0:	4692      	mov	sl, r2
 80022b2:	eb1b 0509 	adds.w	r5, fp, r9
 80022b6:	eb4c 060a 	adc.w	r6, ip, sl
 80022ba:	687b      	ldr	r3, [r7, #4]
 80022bc:	685b      	ldr	r3, [r3, #4]
 80022be:	4619      	mov	r1, r3
 80022c0:	f04f 0200 	mov.w	r2, #0
 80022c4:	f04f 0300 	mov.w	r3, #0
 80022c8:	f04f 0400 	mov.w	r4, #0
 80022cc:	0094      	lsls	r4, r2, #2
 80022ce:	ea44 7491 	orr.w	r4, r4, r1, lsr #30
 80022d2:	008b      	lsls	r3, r1, #2
 80022d4:	461a      	mov	r2, r3
 80022d6:	4623      	mov	r3, r4
 80022d8:	4628      	mov	r0, r5
 80022da:	4631      	mov	r1, r6
 80022dc:	f7fe f828 	bl	8000330 <__aeabi_uldivmod>
 80022e0:	4603      	mov	r3, r0
 80022e2:	460c      	mov	r4, r1
 80022e4:	461a      	mov	r2, r3
 80022e6:	4b77      	ldr	r3, [pc, #476]	; (80024c4 <UART_SetConfig+0x6f4>)
 80022e8:	fba3 1302 	umull	r1, r3, r3, r2
 80022ec:	095b      	lsrs	r3, r3, #5
 80022ee:	2164      	movs	r1, #100	; 0x64
 80022f0:	fb01 f303 	mul.w	r3, r1, r3
 80022f4:	1ad3      	subs	r3, r2, r3
 80022f6:	011b      	lsls	r3, r3, #4
 80022f8:	3332      	adds	r3, #50	; 0x32
 80022fa:	4a72      	ldr	r2, [pc, #456]	; (80024c4 <UART_SetConfig+0x6f4>)
 80022fc:	fba2 2303 	umull	r2, r3, r2, r3
 8002300:	095b      	lsrs	r3, r3, #5
 8002302:	f003 020f 	and.w	r2, r3, #15
 8002306:	687b      	ldr	r3, [r7, #4]
 8002308:	681b      	ldr	r3, [r3, #0]
 800230a:	4442      	add	r2, r8
 800230c:	609a      	str	r2, [r3, #8]
 800230e:	e0d0      	b.n	80024b2 <UART_SetConfig+0x6e2>
 8002310:	f7ff fb24 	bl	800195c <HAL_RCC_GetPCLK1Freq>
 8002314:	60b8      	str	r0, [r7, #8]
 8002316:	68bb      	ldr	r3, [r7, #8]
 8002318:	469a      	mov	sl, r3
 800231a:	f04f 0b00 	mov.w	fp, #0
 800231e:	46d0      	mov	r8, sl
 8002320:	46d9      	mov	r9, fp
 8002322:	eb18 0308 	adds.w	r3, r8, r8
 8002326:	eb49 0409 	adc.w	r4, r9, r9
 800232a:	4698      	mov	r8, r3
 800232c:	46a1      	mov	r9, r4
 800232e:	eb18 080a 	adds.w	r8, r8, sl
 8002332:	eb49 090b 	adc.w	r9, r9, fp
 8002336:	f04f 0100 	mov.w	r1, #0
 800233a:	f04f 0200 	mov.w	r2, #0
 800233e:	ea4f 02c9 	mov.w	r2, r9, lsl #3
 8002342:	ea42 7258 	orr.w	r2, r2, r8, lsr #29
 8002346:	ea4f 01c8 	mov.w	r1, r8, lsl #3
 800234a:	4688      	mov	r8, r1
 800234c:	4691      	mov	r9, r2
 800234e:	eb1a 0508 	adds.w	r5, sl, r8
 8002352:	eb4b 0609 	adc.w	r6, fp, r9
 8002356:	687b      	ldr	r3, [r7, #4]
 8002358:	685b      	ldr	r3, [r3, #4]
 800235a:	4619      	mov	r1, r3
 800235c:	f04f 0200 	mov.w	r2, #0
 8002360:	f04f 0300 	mov.w	r3, #0
 8002364:	f04f 0400 	mov.w	r4, #0
 8002368:	0094      	lsls	r4, r2, #2
 800236a:	ea44 7491 	orr.w	r4, r4, r1, lsr #30
 800236e:	008b      	lsls	r3, r1, #2
 8002370:	461a      	mov	r2, r3
 8002372:	4623      	mov	r3, r4
 8002374:	4628      	mov	r0, r5
 8002376:	4631      	mov	r1, r6
 8002378:	f7fd ffda 	bl	8000330 <__aeabi_uldivmod>
 800237c:	4603      	mov	r3, r0
 800237e:	460c      	mov	r4, r1
 8002380:	461a      	mov	r2, r3
 8002382:	4b50      	ldr	r3, [pc, #320]	; (80024c4 <UART_SetConfig+0x6f4>)
 8002384:	fba3 2302 	umull	r2, r3, r3, r2
 8002388:	095b      	lsrs	r3, r3, #5
 800238a:	ea4f 1803 	mov.w	r8, r3, lsl #4
 800238e:	68bb      	ldr	r3, [r7, #8]
 8002390:	469b      	mov	fp, r3
 8002392:	f04f 0c00 	mov.w	ip, #0
 8002396:	46d9      	mov	r9, fp
 8002398:	46e2      	mov	sl, ip
 800239a:	eb19 0309 	adds.w	r3, r9, r9
 800239e:	eb4a 040a 	adc.w	r4, sl, sl
 80023a2:	4699      	mov	r9, r3
 80023a4:	46a2      	mov	sl, r4
 80023a6:	eb19 090b 	adds.w	r9, r9, fp
 80023aa:	eb4a 0a0c 	adc.w	sl, sl, ip
 80023ae:	f04f 0100 	mov.w	r1, #0
 80023b2:	f04f 0200 	mov.w	r2, #0
 80023b6:	ea4f 02ca 	mov.w	r2, sl, lsl #3
 80023ba:	ea42 7259 	orr.w	r2, r2, r9, lsr #29
 80023be:	ea4f 01c9 	mov.w	r1, r9, lsl #3
 80023c2:	4689      	mov	r9, r1
 80023c4:	4692      	mov	sl, r2
 80023c6:	eb1b 0509 	adds.w	r5, fp, r9
 80023ca:	eb4c 060a 	adc.w	r6, ip, sl
 80023ce:	687b      	ldr	r3, [r7, #4]
 80023d0:	685b      	ldr	r3, [r3, #4]
 80023d2:	4619      	mov	r1, r3
 80023d4:	f04f 0200 	mov.w	r2, #0
 80023d8:	f04f 0300 	mov.w	r3, #0
 80023dc:	f04f 0400 	mov.w	r4, #0
 80023e0:	0094      	lsls	r4, r2, #2
 80023e2:	ea44 7491 	orr.w	r4, r4, r1, lsr #30
 80023e6:	008b      	lsls	r3, r1, #2
 80023e8:	461a      	mov	r2, r3
 80023ea:	4623      	mov	r3, r4
 80023ec:	4628      	mov	r0, r5
 80023ee:	4631      	mov	r1, r6
 80023f0:	f7fd ff9e 	bl	8000330 <__aeabi_uldivmod>
 80023f4:	4603      	mov	r3, r0
 80023f6:	460c      	mov	r4, r1
 80023f8:	461a      	mov	r2, r3
 80023fa:	4b32      	ldr	r3, [pc, #200]	; (80024c4 <UART_SetConfig+0x6f4>)
 80023fc:	fba3 1302 	umull	r1, r3, r3, r2
 8002400:	095b      	lsrs	r3, r3, #5
 8002402:	2164      	movs	r1, #100	; 0x64
 8002404:	fb01 f303 	mul.w	r3, r1, r3
 8002408:	1ad3      	subs	r3, r2, r3
 800240a:	011b      	lsls	r3, r3, #4
 800240c:	3332      	adds	r3, #50	; 0x32
 800240e:	4a2d      	ldr	r2, [pc, #180]	; (80024c4 <UART_SetConfig+0x6f4>)
 8002410:	fba2 2303 	umull	r2, r3, r2, r3
 8002414:	095b      	lsrs	r3, r3, #5
 8002416:	f003 03f0 	and.w	r3, r3, #240	; 0xf0
 800241a:	4498      	add	r8, r3
 800241c:	68bb      	ldr	r3, [r7, #8]
 800241e:	469b      	mov	fp, r3
 8002420:	f04f 0c00 	mov.w	ip, #0
 8002424:	46d9      	mov	r9, fp
 8002426:	46e2      	mov	sl, ip
 8002428:	eb19 0309 	adds.w	r3, r9, r9
 800242c:	eb4a 040a 	adc.w	r4, sl, sl
 8002430:	4699      	mov	r9, r3
 8002432:	46a2      	mov	sl, r4
 8002434:	eb19 090b 	adds.w	r9, r9, fp
 8002438:	eb4a 0a0c 	adc.w	sl, sl, ip
 800243c:	f04f 0100 	mov.w	r1, #0
 8002440:	f04f 0200 	mov.w	r2, #0
 8002444:	ea4f 02ca 	mov.w	r2, sl, lsl #3
 8002448:	ea42 7259 	orr.w	r2, r2, r9, lsr #29
 800244c:	ea4f 01c9 	mov.w	r1, r9, lsl #3
 8002450:	4689      	mov	r9, r1
 8002452:	4692      	mov	sl, r2
 8002454:	eb1b 0509 	adds.w	r5, fp, r9
 8002458:	eb4c 060a 	adc.w	r6, ip, sl
 800245c:	687b      	ldr	r3, [r7, #4]
 800245e:	685b      	ldr	r3, [r3, #4]
 8002460:	4619      	mov	r1, r3
 8002462:	f04f 0200 	mov.w	r2, #0
 8002466:	f04f 0300 	mov.w	r3, #0
 800246a:	f04f 0400 	mov.w	r4, #0
 800246e:	0094      	lsls	r4, r2, #2
 8002470:	ea44 7491 	orr.w	r4, r4, r1, lsr #30
 8002474:	008b      	lsls	r3, r1, #2
 8002476:	461a      	mov	r2, r3
 8002478:	4623      	mov	r3, r4
 800247a:	4628      	mov	r0, r5
 800247c:	4631      	mov	r1, r6
 800247e:	f7fd ff57 	bl	8000330 <__aeabi_uldivmod>
 8002482:	4603      	mov	r3, r0
 8002484:	460c      	mov	r4, r1
 8002486:	461a      	mov	r2, r3
 8002488:	4b0e      	ldr	r3, [pc, #56]	; (80024c4 <UART_SetConfig+0x6f4>)
 800248a:	fba3 1302 	umull	r1, r3, r3, r2
 800248e:	095b      	lsrs	r3, r3, #5
 8002490:	2164      	movs	r1, #100	; 0x64
 8002492:	fb01 f303 	mul.w	r3, r1, r3
 8002496:	1ad3      	subs	r3, r2, r3
 8002498:	011b      	lsls	r3, r3, #4
 800249a:	3332      	adds	r3, #50	; 0x32
 800249c:	4a09      	ldr	r2, [pc, #36]	; (80024c4 <UART_SetConfig+0x6f4>)
 800249e:	fba2 2303 	umull	r2, r3, r2, r3
 80024a2:	095b      	lsrs	r3, r3, #5
 80024a4:	f003 020f 	and.w	r2, r3, #15
 80024a8:	687b      	ldr	r3, [r7, #4]
 80024aa:	681b      	ldr	r3, [r3, #0]
 80024ac:	4442      	add	r2, r8
 80024ae:	609a      	str	r2, [r3, #8]
 80024b0:	e7ff      	b.n	80024b2 <UART_SetConfig+0x6e2>
 80024b2:	bf00      	nop
 80024b4:	3714      	adds	r7, #20
 80024b6:	46bd      	mov	sp, r7
 80024b8:	e8bd 8ff0 	ldmia.w	sp!, {r4, r5, r6, r7, r8, r9, sl, fp, pc}
 80024bc:	40011000 	.word	0x40011000
 80024c0:	40011400 	.word	0x40011400
 80024c4:	51eb851f 	.word	0x51eb851f

080024c8 <Reset_Handler>:
 80024c8:	480d      	ldr	r0, [pc, #52]	; (8002500 <LoopForever+0x2>)
 80024ca:	4685      	mov	sp, r0
 80024cc:	480d      	ldr	r0, [pc, #52]	; (8002504 <LoopForever+0x6>)
 80024ce:	490e      	ldr	r1, [pc, #56]	; (8002508 <LoopForever+0xa>)
 80024d0:	4a0e      	ldr	r2, [pc, #56]	; (800250c <LoopForever+0xe>)
 80024d2:	2300      	movs	r3, #0
 80024d4:	e002      	b.n	80024dc <LoopCopyDataInit>

080024d6 <CopyDataInit>:
 80024d6:	58d4      	ldr	r4, [r2, r3]
 80024d8:	50c4      	str	r4, [r0, r3]
 80024da:	3304      	adds	r3, #4

080024dc <LoopCopyDataInit>:
 80024dc:	18c4      	adds	r4, r0, r3
 80024de:	428c      	cmp	r4, r1
 80024e0:	d3f9      	bcc.n	80024d6 <CopyDataInit>
 80024e2:	4a0b      	ldr	r2, [pc, #44]	; (8002510 <LoopForever+0x12>)
 80024e4:	4c0b      	ldr	r4, [pc, #44]	; (8002514 <LoopForever+0x16>)
 80024e6:	2300      	movs	r3, #0
 80024e8:	e001      	b.n	80024ee <LoopFillZerobss>

080024ea <FillZerobss>:
 80024ea:	6013      	str	r3, [r2, #0]
 80024ec:	3204      	adds	r2, #4

080024ee <LoopFillZerobss>:
 80024ee:	42a2      	cmp	r2, r4
 80024f0:	d3fb      	bcc.n	80024ea <FillZerobss>
 80024f2:	f7fe faa5 	bl	8000a40 <SystemInit>
 80024f6:	f002 fe6f 	bl	80051d8 <__libc_init_array>
 80024fa:	f7fe f8d9 	bl	80006b0 <main>

080024fe <LoopForever>:
 80024fe:	e7fe      	b.n	80024fe <LoopForever>
 8002500:	20020000 	.word	0x20020000
 8002504:	20000000 	.word	0x20000000
 8002508:	20000074 	.word	0x20000074
 800250c:	08005be0 	.word	0x08005be0
 8002510:	20000074 	.word	0x20000074
 8002514:	2001574c 	.word	0x2001574c

08002518 <ADC_IRQHandler>:
 8002518:	e7fe      	b.n	8002518 <ADC_IRQHandler>

0800251a <vApplicationMallocFailedHook>:
 800251a:	b480      	push	{r7}
 800251c:	af00      	add	r7, sp, #0
 800251e:	bf00      	nop
 8002520:	46bd      	mov	sp, r7
 8002522:	f85d 7b04 	ldr.w	r7, [sp], #4
 8002526:	4770      	bx	lr

08002528 <vApplicationGetIdleTaskMemory>:
 8002528:	b480      	push	{r7}
 800252a:	b085      	sub	sp, #20
 800252c:	af00      	add	r7, sp, #0
 800252e:	60f8      	str	r0, [r7, #12]
 8002530:	60b9      	str	r1, [r7, #8]
 8002532:	607a      	str	r2, [r7, #4]
 8002534:	68fb      	ldr	r3, [r7, #12]
 8002536:	4a07      	ldr	r2, [pc, #28]	; (8002554 <vApplicationGetIdleTaskMemory+0x2c>)
 8002538:	601a      	str	r2, [r3, #0]
 800253a:	68bb      	ldr	r3, [r7, #8]
 800253c:	4a06      	ldr	r2, [pc, #24]	; (8002558 <vApplicationGetIdleTaskMemory+0x30>)
 800253e:	601a      	str	r2, [r3, #0]
 8002540:	687b      	ldr	r3, [r7, #4]
 8002542:	2282      	movs	r2, #130	; 0x82
 8002544:	601a      	str	r2, [r3, #0]
 8002546:	bf00      	nop
 8002548:	3714      	adds	r7, #20
 800254a:	46bd      	mov	sp, r7
 800254c:	f85d 7b04 	ldr.w	r7, [sp], #4
 8002550:	4770      	bx	lr
 8002552:	bf00      	nop
 8002554:	2000009c 	.word	0x2000009c
 8002558:	200000f4 	.word	0x200000f4

0800255c <vListInitialise>:
 800255c:	b480      	push	{r7}
 800255e:	b083      	sub	sp, #12
 8002560:	af00      	add	r7, sp, #0
 8002562:	6078      	str	r0, [r7, #4]
 8002564:	687b      	ldr	r3, [r7, #4]
 8002566:	f103 0208 	add.w	r2, r3, #8
 800256a:	687b      	ldr	r3, [r7, #4]
 800256c:	605a      	str	r2, [r3, #4]
 800256e:	687b      	ldr	r3, [r7, #4]
 8002570:	f04f 32ff 	mov.w	r2, #4294967295
 8002574:	609a      	str	r2, [r3, #8]
 8002576:	687b      	ldr	r3, [r7, #4]
 8002578:	f103 0208 	add.w	r2, r3, #8
 800257c:	687b      	ldr	r3, [r7, #4]
 800257e:	60da      	str	r2, [r3, #12]
 8002580:	687b      	ldr	r3, [r7, #4]
 8002582:	f103 0208 	add.w	r2, r3, #8
 8002586:	687b      	ldr	r3, [r7, #4]
 8002588:	611a      	str	r2, [r3, #16]
 800258a:	687b      	ldr	r3, [r7, #4]
 800258c:	2200      	movs	r2, #0
 800258e:	601a      	str	r2, [r3, #0]
 8002590:	bf00      	nop
 8002592:	370c      	adds	r7, #12
 8002594:	46bd      	mov	sp, r7
 8002596:	f85d 7b04 	ldr.w	r7, [sp], #4
 800259a:	4770      	bx	lr

0800259c <vListInitialiseItem>:
 800259c:	b480      	push	{r7}
 800259e:	b083      	sub	sp, #12
 80025a0:	af00      	add	r7, sp, #0
 80025a2:	6078      	str	r0, [r7, #4]
 80025a4:	687b      	ldr	r3, [r7, #4]
 80025a6:	2200      	movs	r2, #0
 80025a8:	611a      	str	r2, [r3, #16]
 80025aa:	bf00      	nop
 80025ac:	370c      	adds	r7, #12
 80025ae:	46bd      	mov	sp, r7
 80025b0:	f85d 7b04 	ldr.w	r7, [sp], #4
 80025b4:	4770      	bx	lr

080025b6 <vListInsertEnd>:
 80025b6:	b480      	push	{r7}
 80025b8:	b085      	sub	sp, #20
 80025ba:	af00      	add	r7, sp, #0
 80025bc:	6078      	str	r0, [r7, #4]
 80025be:	6039      	str	r1, [r7, #0]
 80025c0:	687b      	ldr	r3, [r7, #4]
 80025c2:	685b      	ldr	r3, [r3, #4]
 80025c4:	60fb      	str	r3, [r7, #12]
 80025c6:	683b      	ldr	r3, [r7, #0]
 80025c8:	68fa      	ldr	r2, [r7, #12]
 80025ca:	605a      	str	r2, [r3, #4]
 80025cc:	68fb      	ldr	r3, [r7, #12]
 80025ce:	689a      	ldr	r2, [r3, #8]
 80025d0:	683b      	ldr	r3, [r7, #0]
 80025d2:	609a      	str	r2, [r3, #8]
 80025d4:	68fb      	ldr	r3, [r7, #12]
 80025d6:	689b      	ldr	r3, [r3, #8]
 80025d8:	683a      	ldr	r2, [r7, #0]
 80025da:	605a      	str	r2, [r3, #4]
 80025dc:	68fb      	ldr	r3, [r7, #12]
 80025de:	683a      	ldr	r2, [r7, #0]
 80025e0:	609a      	str	r2, [r3, #8]
 80025e2:	683b      	ldr	r3, [r7, #0]
 80025e4:	687a      	ldr	r2, [r7, #4]
 80025e6:	611a      	str	r2, [r3, #16]
 80025e8:	687b      	ldr	r3, [r7, #4]
 80025ea:	681b      	ldr	r3, [r3, #0]
 80025ec:	1c5a      	adds	r2, r3, #1
 80025ee:	687b      	ldr	r3, [r7, #4]
 80025f0:	601a      	str	r2, [r3, #0]
 80025f2:	bf00      	nop
 80025f4:	3714      	adds	r7, #20
 80025f6:	46bd      	mov	sp, r7
 80025f8:	f85d 7b04 	ldr.w	r7, [sp], #4
 80025fc:	4770      	bx	lr

080025fe <vListInsert>:
 80025fe:	b480      	push	{r7}
 8002600:	b085      	sub	sp, #20
 8002602:	af00      	add	r7, sp, #0
 8002604:	6078      	str	r0, [r7, #4]
 8002606:	6039      	str	r1, [r7, #0]
 8002608:	683b      	ldr	r3, [r7, #0]
 800260a:	681b      	ldr	r3, [r3, #0]
 800260c:	60bb      	str	r3, [r7, #8]
 800260e:	68bb      	ldr	r3, [r7, #8]
 8002610:	f1b3 3fff 	cmp.w	r3, #4294967295
 8002614:	d103      	bne.n	800261e <vListInsert+0x20>
 8002616:	687b      	ldr	r3, [r7, #4]
 8002618:	691b      	ldr	r3, [r3, #16]
 800261a:	60fb      	str	r3, [r7, #12]
 800261c:	e00c      	b.n	8002638 <vListInsert+0x3a>
 800261e:	687b      	ldr	r3, [r7, #4]
 8002620:	3308      	adds	r3, #8
 8002622:	60fb      	str	r3, [r7, #12]
 8002624:	e002      	b.n	800262c <vListInsert+0x2e>
 8002626:	68fb      	ldr	r3, [r7, #12]
 8002628:	685b      	ldr	r3, [r3, #4]
 800262a:	60fb      	str	r3, [r7, #12]
 800262c:	68fb      	ldr	r3, [r7, #12]
 800262e:	685b      	ldr	r3, [r3, #4]
 8002630:	681b      	ldr	r3, [r3, #0]
 8002632:	68ba      	ldr	r2, [r7, #8]
 8002634:	429a      	cmp	r2, r3
 8002636:	d2f6      	bcs.n	8002626 <vListInsert+0x28>
 8002638:	68fb      	ldr	r3, [r7, #12]
 800263a:	685a      	ldr	r2, [r3, #4]
 800263c:	683b      	ldr	r3, [r7, #0]
 800263e:	605a      	str	r2, [r3, #4]
 8002640:	683b      	ldr	r3, [r7, #0]
 8002642:	685b      	ldr	r3, [r3, #4]
 8002644:	683a      	ldr	r2, [r7, #0]
 8002646:	609a      	str	r2, [r3, #8]
 8002648:	683b      	ldr	r3, [r7, #0]
 800264a:	68fa      	ldr	r2, [r7, #12]
 800264c:	609a      	str	r2, [r3, #8]
 800264e:	68fb      	ldr	r3, [r7, #12]
 8002650:	683a      	ldr	r2, [r7, #0]
 8002652:	605a      	str	r2, [r3, #4]
 8002654:	683b      	ldr	r3, [r7, #0]
 8002656:	687a      	ldr	r2, [r7, #4]
 8002658:	611a      	str	r2, [r3, #16]
 800265a:	687b      	ldr	r3, [r7, #4]
 800265c:	681b      	ldr	r3, [r3, #0]
 800265e:	1c5a      	adds	r2, r3, #1
 8002660:	687b      	ldr	r3, [r7, #4]
 8002662:	601a      	str	r2, [r3, #0]
 8002664:	bf00      	nop
 8002666:	3714      	adds	r7, #20
 8002668:	46bd      	mov	sp, r7
 800266a:	f85d 7b04 	ldr.w	r7, [sp], #4
 800266e:	4770      	bx	lr

08002670 <uxListRemove>:
 8002670:	b480      	push	{r7}
 8002672:	b085      	sub	sp, #20
 8002674:	af00      	add	r7, sp, #0
 8002676:	6078      	str	r0, [r7, #4]
 8002678:	687b      	ldr	r3, [r7, #4]
 800267a:	691b      	ldr	r3, [r3, #16]
 800267c:	60fb      	str	r3, [r7, #12]
 800267e:	687b      	ldr	r3, [r7, #4]
 8002680:	685b      	ldr	r3, [r3, #4]
 8002682:	687a      	ldr	r2, [r7, #4]
 8002684:	6892      	ldr	r2, [r2, #8]
 8002686:	609a      	str	r2, [r3, #8]
 8002688:	687b      	ldr	r3, [r7, #4]
 800268a:	689b      	ldr	r3, [r3, #8]
 800268c:	687a      	ldr	r2, [r7, #4]
 800268e:	6852      	ldr	r2, [r2, #4]
 8002690:	605a      	str	r2, [r3, #4]
 8002692:	68fb      	ldr	r3, [r7, #12]
 8002694:	685b      	ldr	r3, [r3, #4]
 8002696:	687a      	ldr	r2, [r7, #4]
 8002698:	429a      	cmp	r2, r3
 800269a:	d103      	bne.n	80026a4 <uxListRemove+0x34>
 800269c:	687b      	ldr	r3, [r7, #4]
 800269e:	689a      	ldr	r2, [r3, #8]
 80026a0:	68fb      	ldr	r3, [r7, #12]
 80026a2:	605a      	str	r2, [r3, #4]
 80026a4:	687b      	ldr	r3, [r7, #4]
 80026a6:	2200      	movs	r2, #0
 80026a8:	611a      	str	r2, [r3, #16]
 80026aa:	68fb      	ldr	r3, [r7, #12]
 80026ac:	681b      	ldr	r3, [r3, #0]
 80026ae:	1e5a      	subs	r2, r3, #1
 80026b0:	68fb      	ldr	r3, [r7, #12]
 80026b2:	601a      	str	r2, [r3, #0]
 80026b4:	68fb      	ldr	r3, [r7, #12]
 80026b6:	681b      	ldr	r3, [r3, #0]
 80026b8:	4618      	mov	r0, r3
 80026ba:	3714      	adds	r7, #20
 80026bc:	46bd      	mov	sp, r7
 80026be:	f85d 7b04 	ldr.w	r7, [sp], #4
 80026c2:	4770      	bx	lr

080026c4 <xTaskCreateStatic>:
 80026c4:	b580      	push	{r7, lr}
 80026c6:	b08e      	sub	sp, #56	; 0x38
 80026c8:	af04      	add	r7, sp, #16
 80026ca:	60f8      	str	r0, [r7, #12]
 80026cc:	60b9      	str	r1, [r7, #8]
 80026ce:	607a      	str	r2, [r7, #4]
 80026d0:	603b      	str	r3, [r7, #0]
 80026d2:	6b7b      	ldr	r3, [r7, #52]	; 0x34
 80026d4:	2b00      	cmp	r3, #0
 80026d6:	d109      	bne.n	80026ec <xTaskCreateStatic+0x28>
 80026d8:	f04f 0350 	mov.w	r3, #80	; 0x50
 80026dc:	f383 8811 	msr	BASEPRI, r3
 80026e0:	f3bf 8f6f 	isb	sy
 80026e4:	f3bf 8f4f 	dsb	sy
 80026e8:	623b      	str	r3, [r7, #32]
 80026ea:	e7fe      	b.n	80026ea <xTaskCreateStatic+0x26>
 80026ec:	6bbb      	ldr	r3, [r7, #56]	; 0x38
 80026ee:	2b00      	cmp	r3, #0
 80026f0:	d109      	bne.n	8002706 <xTaskCreateStatic+0x42>
 80026f2:	f04f 0350 	mov.w	r3, #80	; 0x50
 80026f6:	f383 8811 	msr	BASEPRI, r3
 80026fa:	f3bf 8f6f 	isb	sy
 80026fe:	f3bf 8f4f 	dsb	sy
 8002702:	61fb      	str	r3, [r7, #28]
 8002704:	e7fe      	b.n	8002704 <xTaskCreateStatic+0x40>
 8002706:	2358      	movs	r3, #88	; 0x58
 8002708:	613b      	str	r3, [r7, #16]
 800270a:	693b      	ldr	r3, [r7, #16]
 800270c:	2b58      	cmp	r3, #88	; 0x58
 800270e:	d009      	beq.n	8002724 <xTaskCreateStatic+0x60>
 8002710:	f04f 0350 	mov.w	r3, #80	; 0x50
 8002714:	f383 8811 	msr	BASEPRI, r3
 8002718:	f3bf 8f6f 	isb	sy
 800271c:	f3bf 8f4f 	dsb	sy
 8002720:	61bb      	str	r3, [r7, #24]
 8002722:	e7fe      	b.n	8002722 <xTaskCreateStatic+0x5e>
 8002724:	6bbb      	ldr	r3, [r7, #56]	; 0x38
 8002726:	2b00      	cmp	r3, #0
 8002728:	d01e      	beq.n	8002768 <xTaskCreateStatic+0xa4>
 800272a:	6b7b      	ldr	r3, [r7, #52]	; 0x34
 800272c:	2b00      	cmp	r3, #0
 800272e:	d01b      	beq.n	8002768 <xTaskCreateStatic+0xa4>
 8002730:	6bbb      	ldr	r3, [r7, #56]	; 0x38
 8002732:	627b      	str	r3, [r7, #36]	; 0x24
 8002734:	6a7b      	ldr	r3, [r7, #36]	; 0x24
 8002736:	6b7a      	ldr	r2, [r7, #52]	; 0x34
 8002738:	631a      	str	r2, [r3, #48]	; 0x30
 800273a:	6a7b      	ldr	r3, [r7, #36]	; 0x24
 800273c:	2202      	movs	r2, #2
 800273e:	f883 2055 	strb.w	r2, [r3, #85]	; 0x55
 8002742:	2300      	movs	r3, #0
 8002744:	9303      	str	r3, [sp, #12]
 8002746:	6a7b      	ldr	r3, [r7, #36]	; 0x24
 8002748:	9302      	str	r3, [sp, #8]
 800274a:	f107 0314 	add.w	r3, r7, #20
 800274e:	9301      	str	r3, [sp, #4]
 8002750:	6b3b      	ldr	r3, [r7, #48]	; 0x30
 8002752:	9300      	str	r3, [sp, #0]
 8002754:	683b      	ldr	r3, [r7, #0]
 8002756:	687a      	ldr	r2, [r7, #4]
 8002758:	68b9      	ldr	r1, [r7, #8]
 800275a:	68f8      	ldr	r0, [r7, #12]
 800275c:	f000 f850 	bl	8002800 <prvInitialiseNewTask>
 8002760:	6a78      	ldr	r0, [r7, #36]	; 0x24
 8002762:	f000 f8d3 	bl	800290c <prvAddNewTaskToReadyList>
 8002766:	e001      	b.n	800276c <xTaskCreateStatic+0xa8>
 8002768:	2300      	movs	r3, #0
 800276a:	617b      	str	r3, [r7, #20]
 800276c:	697b      	ldr	r3, [r7, #20]
 800276e:	4618      	mov	r0, r3
 8002770:	3728      	adds	r7, #40	; 0x28
 8002772:	46bd      	mov	sp, r7
 8002774:	bd80      	pop	{r7, pc}

08002776 <xTaskCreate>:
 8002776:	b580      	push	{r7, lr}
 8002778:	b08c      	sub	sp, #48	; 0x30
 800277a:	af04      	add	r7, sp, #16
 800277c:	60f8      	str	r0, [r7, #12]
 800277e:	60b9      	str	r1, [r7, #8]
 8002780:	603b      	str	r3, [r7, #0]
 8002782:	4613      	mov	r3, r2
 8002784:	80fb      	strh	r3, [r7, #6]
 8002786:	88fb      	ldrh	r3, [r7, #6]
 8002788:	009b      	lsls	r3, r3, #2
 800278a:	4618      	mov	r0, r3
 800278c:	f000 ffae 	bl	80036ec <pvPortMalloc>
 8002790:	6178      	str	r0, [r7, #20]
 8002792:	697b      	ldr	r3, [r7, #20]
 8002794:	2b00      	cmp	r3, #0
 8002796:	d00e      	beq.n	80027b6 <xTaskCreate+0x40>
 8002798:	2058      	movs	r0, #88	; 0x58
 800279a:	f000 ffa7 	bl	80036ec <pvPortMalloc>
 800279e:	61f8      	str	r0, [r7, #28]
 80027a0:	69fb      	ldr	r3, [r7, #28]
 80027a2:	2b00      	cmp	r3, #0
 80027a4:	d003      	beq.n	80027ae <xTaskCreate+0x38>
 80027a6:	69fb      	ldr	r3, [r7, #28]
 80027a8:	697a      	ldr	r2, [r7, #20]
 80027aa:	631a      	str	r2, [r3, #48]	; 0x30
 80027ac:	e005      	b.n	80027ba <xTaskCreate+0x44>
 80027ae:	6978      	ldr	r0, [r7, #20]
 80027b0:	f001 f862 	bl	8003878 <vPortFree>
 80027b4:	e001      	b.n	80027ba <xTaskCreate+0x44>
 80027b6:	2300      	movs	r3, #0
 80027b8:	61fb      	str	r3, [r7, #28]
 80027ba:	69fb      	ldr	r3, [r7, #28]
 80027bc:	2b00      	cmp	r3, #0
 80027be:	d017      	beq.n	80027f0 <xTaskCreate+0x7a>
 80027c0:	69fb      	ldr	r3, [r7, #28]
 80027c2:	2200      	movs	r2, #0
 80027c4:	f883 2055 	strb.w	r2, [r3, #85]	; 0x55
 80027c8:	88fa      	ldrh	r2, [r7, #6]
 80027ca:	2300      	movs	r3, #0
 80027cc:	9303      	str	r3, [sp, #12]
 80027ce:	69fb      	ldr	r3, [r7, #28]
 80027d0:	9302      	str	r3, [sp, #8]
 80027d2:	6afb      	ldr	r3, [r7, #44]	; 0x2c
 80027d4:	9301      	str	r3, [sp, #4]
 80027d6:	6abb      	ldr	r3, [r7, #40]	; 0x28
 80027d8:	9300      	str	r3, [sp, #0]
 80027da:	683b      	ldr	r3, [r7, #0]
 80027dc:	68b9      	ldr	r1, [r7, #8]
 80027de:	68f8      	ldr	r0, [r7, #12]
 80027e0:	f000 f80e 	bl	8002800 <prvInitialiseNewTask>
 80027e4:	69f8      	ldr	r0, [r7, #28]
 80027e6:	f000 f891 	bl	800290c <prvAddNewTaskToReadyList>
 80027ea:	2301      	movs	r3, #1
 80027ec:	61bb      	str	r3, [r7, #24]
 80027ee:	e002      	b.n	80027f6 <xTaskCreate+0x80>
 80027f0:	f04f 33ff 	mov.w	r3, #4294967295
 80027f4:	61bb      	str	r3, [r7, #24]
 80027f6:	69bb      	ldr	r3, [r7, #24]
 80027f8:	4618      	mov	r0, r3
 80027fa:	3720      	adds	r7, #32
 80027fc:	46bd      	mov	sp, r7
 80027fe:	bd80      	pop	{r7, pc}

08002800 <prvInitialiseNewTask>:
 8002800:	b580      	push	{r7, lr}
 8002802:	b088      	sub	sp, #32
 8002804:	af00      	add	r7, sp, #0
 8002806:	60f8      	str	r0, [r7, #12]
 8002808:	60b9      	str	r1, [r7, #8]
 800280a:	607a      	str	r2, [r7, #4]
 800280c:	603b      	str	r3, [r7, #0]
 800280e:	6b3b      	ldr	r3, [r7, #48]	; 0x30
 8002810:	6b18      	ldr	r0, [r3, #48]	; 0x30
 8002812:	687b      	ldr	r3, [r7, #4]
 8002814:	009b      	lsls	r3, r3, #2
 8002816:	461a      	mov	r2, r3
 8002818:	21a5      	movs	r1, #165	; 0xa5
 800281a:	f002 fd1b 	bl	8005254 <memset>
 800281e:	6b3b      	ldr	r3, [r7, #48]	; 0x30
 8002820:	6b1a      	ldr	r2, [r3, #48]	; 0x30
 8002822:	687b      	ldr	r3, [r7, #4]
 8002824:	f103 4380 	add.w	r3, r3, #1073741824	; 0x40000000
 8002828:	3b01      	subs	r3, #1
 800282a:	009b      	lsls	r3, r3, #2
 800282c:	4413      	add	r3, r2
 800282e:	61bb      	str	r3, [r7, #24]
 8002830:	69bb      	ldr	r3, [r7, #24]
 8002832:	f023 0307 	bic.w	r3, r3, #7
 8002836:	61bb      	str	r3, [r7, #24]
 8002838:	69bb      	ldr	r3, [r7, #24]
 800283a:	f003 0307 	and.w	r3, r3, #7
 800283e:	2b00      	cmp	r3, #0
 8002840:	d009      	beq.n	8002856 <prvInitialiseNewTask+0x56>
 8002842:	f04f 0350 	mov.w	r3, #80	; 0x50
 8002846:	f383 8811 	msr	BASEPRI, r3
 800284a:	f3bf 8f6f 	isb	sy
 800284e:	f3bf 8f4f 	dsb	sy
 8002852:	617b      	str	r3, [r7, #20]
 8002854:	e7fe      	b.n	8002854 <prvInitialiseNewTask+0x54>
 8002856:	2300      	movs	r3, #0
 8002858:	61fb      	str	r3, [r7, #28]
 800285a:	e012      	b.n	8002882 <prvInitialiseNewTask+0x82>
 800285c:	68ba      	ldr	r2, [r7, #8]
 800285e:	69fb      	ldr	r3, [r7, #28]
 8002860:	4413      	add	r3, r2
 8002862:	7819      	ldrb	r1, [r3, #0]
 8002864:	6b3a      	ldr	r2, [r7, #48]	; 0x30
 8002866:	69fb      	ldr	r3, [r7, #28]
 8002868:	4413      	add	r3, r2
 800286a:	3334      	adds	r3, #52	; 0x34
 800286c:	460a      	mov	r2, r1
 800286e:	701a      	strb	r2, [r3, #0]
 8002870:	68ba      	ldr	r2, [r7, #8]
 8002872:	69fb      	ldr	r3, [r7, #28]
 8002874:	4413      	add	r3, r2
 8002876:	781b      	ldrb	r3, [r3, #0]
 8002878:	2b00      	cmp	r3, #0
 800287a:	d006      	beq.n	800288a <prvInitialiseNewTask+0x8a>
 800287c:	69fb      	ldr	r3, [r7, #28]
 800287e:	3301      	adds	r3, #1
 8002880:	61fb      	str	r3, [r7, #28]
 8002882:	69fb      	ldr	r3, [r7, #28]
 8002884:	2b09      	cmp	r3, #9
 8002886:	d9e9      	bls.n	800285c <prvInitialiseNewTask+0x5c>
 8002888:	e000      	b.n	800288c <prvInitialiseNewTask+0x8c>
 800288a:	bf00      	nop
 800288c:	6b3b      	ldr	r3, [r7, #48]	; 0x30
 800288e:	2200      	movs	r2, #0
 8002890:	f883 203d 	strb.w	r2, [r3, #61]	; 0x3d
 8002894:	6abb      	ldr	r3, [r7, #40]	; 0x28
 8002896:	2b04      	cmp	r3, #4
 8002898:	d901      	bls.n	800289e <prvInitialiseNewTask+0x9e>
 800289a:	2304      	movs	r3, #4
 800289c:	62bb      	str	r3, [r7, #40]	; 0x28
 800289e:	6b3b      	ldr	r3, [r7, #48]	; 0x30
 80028a0:	6aba      	ldr	r2, [r7, #40]	; 0x28
 80028a2:	62da      	str	r2, [r3, #44]	; 0x2c
 80028a4:	6b3b      	ldr	r3, [r7, #48]	; 0x30
 80028a6:	6aba      	ldr	r2, [r7, #40]	; 0x28
 80028a8:	649a      	str	r2, [r3, #72]	; 0x48
 80028aa:	6b3b      	ldr	r3, [r7, #48]	; 0x30
 80028ac:	2200      	movs	r2, #0
 80028ae:	64da      	str	r2, [r3, #76]	; 0x4c
 80028b0:	6b3b      	ldr	r3, [r7, #48]	; 0x30
 80028b2:	3304      	adds	r3, #4
 80028b4:	4618      	mov	r0, r3
 80028b6:	f7ff fe71 	bl	800259c <vListInitialiseItem>
 80028ba:	6b3b      	ldr	r3, [r7, #48]	; 0x30
 80028bc:	3318      	adds	r3, #24
 80028be:	4618      	mov	r0, r3
 80028c0:	f7ff fe6c 	bl	800259c <vListInitialiseItem>
 80028c4:	6b3b      	ldr	r3, [r7, #48]	; 0x30
 80028c6:	6b3a      	ldr	r2, [r7, #48]	; 0x30
 80028c8:	611a      	str	r2, [r3, #16]
 80028ca:	6abb      	ldr	r3, [r7, #40]	; 0x28
 80028cc:	f1c3 0205 	rsb	r2, r3, #5
 80028d0:	6b3b      	ldr	r3, [r7, #48]	; 0x30
 80028d2:	619a      	str	r2, [r3, #24]
 80028d4:	6b3b      	ldr	r3, [r7, #48]	; 0x30
 80028d6:	6b3a      	ldr	r2, [r7, #48]	; 0x30
 80028d8:	625a      	str	r2, [r3, #36]	; 0x24
 80028da:	6b3b      	ldr	r3, [r7, #48]	; 0x30
 80028dc:	2200      	movs	r2, #0
 80028de:	651a      	str	r2, [r3, #80]	; 0x50
 80028e0:	6b3b      	ldr	r3, [r7, #48]	; 0x30
 80028e2:	2200      	movs	r2, #0
 80028e4:	f883 2054 	strb.w	r2, [r3, #84]	; 0x54
 80028e8:	683a      	ldr	r2, [r7, #0]
 80028ea:	68f9      	ldr	r1, [r7, #12]
 80028ec:	69b8      	ldr	r0, [r7, #24]
 80028ee:	f000 fc6d 	bl	80031cc <pxPortInitialiseStack>
 80028f2:	4602      	mov	r2, r0
 80028f4:	6b3b      	ldr	r3, [r7, #48]	; 0x30
 80028f6:	601a      	str	r2, [r3, #0]
 80028f8:	6afb      	ldr	r3, [r7, #44]	; 0x2c
 80028fa:	2b00      	cmp	r3, #0
 80028fc:	d002      	beq.n	8002904 <prvInitialiseNewTask+0x104>
 80028fe:	6afb      	ldr	r3, [r7, #44]	; 0x2c
 8002900:	6b3a      	ldr	r2, [r7, #48]	; 0x30
 8002902:	601a      	str	r2, [r3, #0]
 8002904:	bf00      	nop
 8002906:	3720      	adds	r7, #32
 8002908:	46bd      	mov	sp, r7
 800290a:	bd80      	pop	{r7, pc}

0800290c <prvAddNewTaskToReadyList>:
 800290c:	b5b0      	push	{r4, r5, r7, lr}
 800290e:	b084      	sub	sp, #16
 8002910:	af02      	add	r7, sp, #8
 8002912:	6078      	str	r0, [r7, #4]
 8002914:	f000 fd82 	bl	800341c <vPortEnterCritical>
 8002918:	4b3b      	ldr	r3, [pc, #236]	; (8002a08 <prvAddNewTaskToReadyList+0xfc>)
 800291a:	681b      	ldr	r3, [r3, #0]
 800291c:	3301      	adds	r3, #1
 800291e:	4a3a      	ldr	r2, [pc, #232]	; (8002a08 <prvAddNewTaskToReadyList+0xfc>)
 8002920:	6013      	str	r3, [r2, #0]
 8002922:	4b3a      	ldr	r3, [pc, #232]	; (8002a0c <prvAddNewTaskToReadyList+0x100>)
 8002924:	681b      	ldr	r3, [r3, #0]
 8002926:	2b00      	cmp	r3, #0
 8002928:	d109      	bne.n	800293e <prvAddNewTaskToReadyList+0x32>
 800292a:	4a38      	ldr	r2, [pc, #224]	; (8002a0c <prvAddNewTaskToReadyList+0x100>)
 800292c:	687b      	ldr	r3, [r7, #4]
 800292e:	6013      	str	r3, [r2, #0]
 8002930:	4b35      	ldr	r3, [pc, #212]	; (8002a08 <prvAddNewTaskToReadyList+0xfc>)
 8002932:	681b      	ldr	r3, [r3, #0]
 8002934:	2b01      	cmp	r3, #1
 8002936:	d110      	bne.n	800295a <prvAddNewTaskToReadyList+0x4e>
 8002938:	f000 fb10 	bl	8002f5c <prvInitialiseTaskLists>
 800293c:	e00d      	b.n	800295a <prvAddNewTaskToReadyList+0x4e>
 800293e:	4b34      	ldr	r3, [pc, #208]	; (8002a10 <prvAddNewTaskToReadyList+0x104>)
 8002940:	681b      	ldr	r3, [r3, #0]
 8002942:	2b00      	cmp	r3, #0
 8002944:	d109      	bne.n	800295a <prvAddNewTaskToReadyList+0x4e>
 8002946:	4b31      	ldr	r3, [pc, #196]	; (8002a0c <prvAddNewTaskToReadyList+0x100>)
 8002948:	681b      	ldr	r3, [r3, #0]
 800294a:	6ada      	ldr	r2, [r3, #44]	; 0x2c
 800294c:	687b      	ldr	r3, [r7, #4]
 800294e:	6adb      	ldr	r3, [r3, #44]	; 0x2c
 8002950:	429a      	cmp	r2, r3
 8002952:	d802      	bhi.n	800295a <prvAddNewTaskToReadyList+0x4e>
 8002954:	4a2d      	ldr	r2, [pc, #180]	; (8002a0c <prvAddNewTaskToReadyList+0x100>)
 8002956:	687b      	ldr	r3, [r7, #4]
 8002958:	6013      	str	r3, [r2, #0]
 800295a:	4b2e      	ldr	r3, [pc, #184]	; (8002a14 <prvAddNewTaskToReadyList+0x108>)
 800295c:	681b      	ldr	r3, [r3, #0]
 800295e:	3301      	adds	r3, #1
 8002960:	4a2c      	ldr	r2, [pc, #176]	; (8002a14 <prvAddNewTaskToReadyList+0x108>)
 8002962:	6013      	str	r3, [r2, #0]
 8002964:	4b2b      	ldr	r3, [pc, #172]	; (8002a14 <prvAddNewTaskToReadyList+0x108>)
 8002966:	681a      	ldr	r2, [r3, #0]
 8002968:	687b      	ldr	r3, [r7, #4]
 800296a:	641a      	str	r2, [r3, #64]	; 0x40
 800296c:	687b      	ldr	r3, [r7, #4]
 800296e:	2b00      	cmp	r3, #0
 8002970:	d016      	beq.n	80029a0 <prvAddNewTaskToReadyList+0x94>
 8002972:	687b      	ldr	r3, [r7, #4]
 8002974:	4618      	mov	r0, r3
 8002976:	f002 f9c5 	bl	8004d04 <SEGGER_SYSVIEW_OnTaskCreate>
 800297a:	6878      	ldr	r0, [r7, #4]
 800297c:	687b      	ldr	r3, [r7, #4]
 800297e:	f103 0134 	add.w	r1, r3, #52	; 0x34
 8002982:	687b      	ldr	r3, [r7, #4]
 8002984:	6ada      	ldr	r2, [r3, #44]	; 0x2c
 8002986:	687b      	ldr	r3, [r7, #4]
 8002988:	6b1b      	ldr	r3, [r3, #48]	; 0x30
 800298a:	461d      	mov	r5, r3
 800298c:	687b      	ldr	r3, [r7, #4]
 800298e:	681b      	ldr	r3, [r3, #0]
 8002990:	461c      	mov	r4, r3
 8002992:	687b      	ldr	r3, [r7, #4]
 8002994:	6b1b      	ldr	r3, [r3, #48]	; 0x30
 8002996:	1ae3      	subs	r3, r4, r3
 8002998:	9300      	str	r3, [sp, #0]
 800299a:	462b      	mov	r3, r5
 800299c:	f001 f928 	bl	8003bf0 <SYSVIEW_AddTask>
 80029a0:	687b      	ldr	r3, [r7, #4]
 80029a2:	4618      	mov	r0, r3
 80029a4:	f002 fa36 	bl	8004e14 <SEGGER_SYSVIEW_OnTaskStartReady>
 80029a8:	687b      	ldr	r3, [r7, #4]
 80029aa:	6adb      	ldr	r3, [r3, #44]	; 0x2c
 80029ac:	2201      	movs	r2, #1
 80029ae:	409a      	lsls	r2, r3
 80029b0:	4b19      	ldr	r3, [pc, #100]	; (8002a18 <prvAddNewTaskToReadyList+0x10c>)
 80029b2:	681b      	ldr	r3, [r3, #0]
 80029b4:	4313      	orrs	r3, r2
 80029b6:	4a18      	ldr	r2, [pc, #96]	; (8002a18 <prvAddNewTaskToReadyList+0x10c>)
 80029b8:	6013      	str	r3, [r2, #0]
 80029ba:	687b      	ldr	r3, [r7, #4]
 80029bc:	6ada      	ldr	r2, [r3, #44]	; 0x2c
 80029be:	4613      	mov	r3, r2
 80029c0:	009b      	lsls	r3, r3, #2
 80029c2:	4413      	add	r3, r2
 80029c4:	009b      	lsls	r3, r3, #2
 80029c6:	4a15      	ldr	r2, [pc, #84]	; (8002a1c <prvAddNewTaskToReadyList+0x110>)
 80029c8:	441a      	add	r2, r3
 80029ca:	687b      	ldr	r3, [r7, #4]
 80029cc:	3304      	adds	r3, #4
 80029ce:	4619      	mov	r1, r3
 80029d0:	4610      	mov	r0, r2
 80029d2:	f7ff fdf0 	bl	80025b6 <vListInsertEnd>
 80029d6:	f000 fd4f 	bl	8003478 <vPortExitCritical>
 80029da:	4b0d      	ldr	r3, [pc, #52]	; (8002a10 <prvAddNewTaskToReadyList+0x104>)
 80029dc:	681b      	ldr	r3, [r3, #0]
 80029de:	2b00      	cmp	r3, #0
 80029e0:	d00e      	beq.n	8002a00 <prvAddNewTaskToReadyList+0xf4>
 80029e2:	4b0a      	ldr	r3, [pc, #40]	; (8002a0c <prvAddNewTaskToReadyList+0x100>)
 80029e4:	681b      	ldr	r3, [r3, #0]
 80029e6:	6ada      	ldr	r2, [r3, #44]	; 0x2c
 80029e8:	687b      	ldr	r3, [r7, #4]
 80029ea:	6adb      	ldr	r3, [r3, #44]	; 0x2c
 80029ec:	429a      	cmp	r2, r3
 80029ee:	d207      	bcs.n	8002a00 <prvAddNewTaskToReadyList+0xf4>
 80029f0:	4b0b      	ldr	r3, [pc, #44]	; (8002a20 <prvAddNewTaskToReadyList+0x114>)
 80029f2:	f04f 5280 	mov.w	r2, #268435456	; 0x10000000
 80029f6:	601a      	str	r2, [r3, #0]
 80029f8:	f3bf 8f4f 	dsb	sy
 80029fc:	f3bf 8f6f 	isb	sy
 8002a00:	bf00      	nop
 8002a02:	3708      	adds	r7, #8
 8002a04:	46bd      	mov	sp, r7
 8002a06:	bdb0      	pop	{r4, r5, r7, pc}
 8002a08:	200003d4 	.word	0x200003d4
 8002a0c:	200002fc 	.word	0x200002fc
 8002a10:	200003e0 	.word	0x200003e0
 8002a14:	200003f0 	.word	0x200003f0
 8002a18:	200003dc 	.word	0x200003dc
 8002a1c:	20000300 	.word	0x20000300
 8002a20:	e000ed04 	.word	0xe000ed04

08002a24 <vTaskDelay>:
 8002a24:	b580      	push	{r7, lr}
 8002a26:	b084      	sub	sp, #16
 8002a28:	af00      	add	r7, sp, #0
 8002a2a:	6078      	str	r0, [r7, #4]
 8002a2c:	2300      	movs	r3, #0
 8002a2e:	60fb      	str	r3, [r7, #12]
 8002a30:	687b      	ldr	r3, [r7, #4]
 8002a32:	2b00      	cmp	r3, #0
 8002a34:	d01a      	beq.n	8002a6c <vTaskDelay+0x48>
 8002a36:	4b15      	ldr	r3, [pc, #84]	; (8002a8c <vTaskDelay+0x68>)
 8002a38:	681b      	ldr	r3, [r3, #0]
 8002a3a:	2b00      	cmp	r3, #0
 8002a3c:	d009      	beq.n	8002a52 <vTaskDelay+0x2e>
 8002a3e:	f04f 0350 	mov.w	r3, #80	; 0x50
 8002a42:	f383 8811 	msr	BASEPRI, r3
 8002a46:	f3bf 8f6f 	isb	sy
 8002a4a:	f3bf 8f4f 	dsb	sy
 8002a4e:	60bb      	str	r3, [r7, #8]
 8002a50:	e7fe      	b.n	8002a50 <vTaskDelay+0x2c>
 8002a52:	f000 f87d 	bl	8002b50 <vTaskSuspendAll>
 8002a56:	6879      	ldr	r1, [r7, #4]
 8002a58:	2023      	movs	r0, #35	; 0x23
 8002a5a:	f001 fd61 	bl	8004520 <SEGGER_SYSVIEW_RecordU32>
 8002a5e:	2100      	movs	r1, #0
 8002a60:	6878      	ldr	r0, [r7, #4]
 8002a62:	f000 fb3b 	bl	80030dc <prvAddCurrentTaskToDelayedList>
 8002a66:	f000 f881 	bl	8002b6c <xTaskResumeAll>
 8002a6a:	60f8      	str	r0, [r7, #12]
 8002a6c:	68fb      	ldr	r3, [r7, #12]
 8002a6e:	2b00      	cmp	r3, #0
 8002a70:	d107      	bne.n	8002a82 <vTaskDelay+0x5e>
 8002a72:	4b07      	ldr	r3, [pc, #28]	; (8002a90 <vTaskDelay+0x6c>)
 8002a74:	f04f 5280 	mov.w	r2, #268435456	; 0x10000000
 8002a78:	601a      	str	r2, [r3, #0]
 8002a7a:	f3bf 8f4f 	dsb	sy
 8002a7e:	f3bf 8f6f 	isb	sy
 8002a82:	bf00      	nop
 8002a84:	3710      	adds	r7, #16
 8002a86:	46bd      	mov	sp, r7
 8002a88:	bd80      	pop	{r7, pc}
 8002a8a:	bf00      	nop
 8002a8c:	200003fc 	.word	0x200003fc
 8002a90:	e000ed04 	.word	0xe000ed04

08002a94 <vTaskStartScheduler>:
 8002a94:	b580      	push	{r7, lr}
 8002a96:	b08a      	sub	sp, #40	; 0x28
 8002a98:	af04      	add	r7, sp, #16
 8002a9a:	2300      	movs	r3, #0
 8002a9c:	60bb      	str	r3, [r7, #8]
 8002a9e:	2300      	movs	r3, #0
 8002aa0:	607b      	str	r3, [r7, #4]
 8002aa2:	463a      	mov	r2, r7
 8002aa4:	1d39      	adds	r1, r7, #4
 8002aa6:	f107 0308 	add.w	r3, r7, #8
 8002aaa:	4618      	mov	r0, r3
 8002aac:	f7ff fd3c 	bl	8002528 <vApplicationGetIdleTaskMemory>
 8002ab0:	6839      	ldr	r1, [r7, #0]
 8002ab2:	687b      	ldr	r3, [r7, #4]
 8002ab4:	68ba      	ldr	r2, [r7, #8]
 8002ab6:	9202      	str	r2, [sp, #8]
 8002ab8:	9301      	str	r3, [sp, #4]
 8002aba:	2300      	movs	r3, #0
 8002abc:	9300      	str	r3, [sp, #0]
 8002abe:	2300      	movs	r3, #0
 8002ac0:	460a      	mov	r2, r1
 8002ac2:	491d      	ldr	r1, [pc, #116]	; (8002b38 <vTaskStartScheduler+0xa4>)
 8002ac4:	481d      	ldr	r0, [pc, #116]	; (8002b3c <vTaskStartScheduler+0xa8>)
 8002ac6:	f7ff fdfd 	bl	80026c4 <xTaskCreateStatic>
 8002aca:	4602      	mov	r2, r0
 8002acc:	4b1c      	ldr	r3, [pc, #112]	; (8002b40 <vTaskStartScheduler+0xac>)
 8002ace:	601a      	str	r2, [r3, #0]
 8002ad0:	4b1b      	ldr	r3, [pc, #108]	; (8002b40 <vTaskStartScheduler+0xac>)
 8002ad2:	681b      	ldr	r3, [r3, #0]
 8002ad4:	2b00      	cmp	r3, #0
 8002ad6:	d002      	beq.n	8002ade <vTaskStartScheduler+0x4a>
 8002ad8:	2301      	movs	r3, #1
 8002ada:	617b      	str	r3, [r7, #20]
 8002adc:	e001      	b.n	8002ae2 <vTaskStartScheduler+0x4e>
 8002ade:	2300      	movs	r3, #0
 8002ae0:	617b      	str	r3, [r7, #20]
 8002ae2:	697b      	ldr	r3, [r7, #20]
 8002ae4:	2b01      	cmp	r3, #1
 8002ae6:	d115      	bne.n	8002b14 <vTaskStartScheduler+0x80>
 8002ae8:	f04f 0350 	mov.w	r3, #80	; 0x50
 8002aec:	f383 8811 	msr	BASEPRI, r3
 8002af0:	f3bf 8f6f 	isb	sy
 8002af4:	f3bf 8f4f 	dsb	sy
 8002af8:	613b      	str	r3, [r7, #16]
 8002afa:	4b12      	ldr	r3, [pc, #72]	; (8002b44 <vTaskStartScheduler+0xb0>)
 8002afc:	f04f 32ff 	mov.w	r2, #4294967295
 8002b00:	601a      	str	r2, [r3, #0]
 8002b02:	4b11      	ldr	r3, [pc, #68]	; (8002b48 <vTaskStartScheduler+0xb4>)
 8002b04:	2201      	movs	r2, #1
 8002b06:	601a      	str	r2, [r3, #0]
 8002b08:	4b10      	ldr	r3, [pc, #64]	; (8002b4c <vTaskStartScheduler+0xb8>)
 8002b0a:	2200      	movs	r2, #0
 8002b0c:	601a      	str	r2, [r3, #0]
 8002b0e:	f000 fbe7 	bl	80032e0 <xPortStartScheduler>
 8002b12:	e00d      	b.n	8002b30 <vTaskStartScheduler+0x9c>
 8002b14:	697b      	ldr	r3, [r7, #20]
 8002b16:	f1b3 3fff 	cmp.w	r3, #4294967295
 8002b1a:	d109      	bne.n	8002b30 <vTaskStartScheduler+0x9c>
 8002b1c:	f04f 0350 	mov.w	r3, #80	; 0x50
 8002b20:	f383 8811 	msr	BASEPRI, r3
 8002b24:	f3bf 8f6f 	isb	sy
 8002b28:	f3bf 8f4f 	dsb	sy
 8002b2c:	60fb      	str	r3, [r7, #12]
 8002b2e:	e7fe      	b.n	8002b2e <vTaskStartScheduler+0x9a>
 8002b30:	bf00      	nop
 8002b32:	3718      	adds	r7, #24
 8002b34:	46bd      	mov	sp, r7
 8002b36:	bd80      	pop	{r7, pc}
 8002b38:	08005aac 	.word	0x08005aac
 8002b3c:	08002f2d 	.word	0x08002f2d
 8002b40:	200003f8 	.word	0x200003f8
 8002b44:	200003f4 	.word	0x200003f4
 8002b48:	200003e0 	.word	0x200003e0
 8002b4c:	200003d8 	.word	0x200003d8

08002b50 <vTaskSuspendAll>:
 8002b50:	b480      	push	{r7}
 8002b52:	af00      	add	r7, sp, #0
 8002b54:	4b04      	ldr	r3, [pc, #16]	; (8002b68 <vTaskSuspendAll+0x18>)
 8002b56:	681b      	ldr	r3, [r3, #0]
 8002b58:	3301      	adds	r3, #1
 8002b5a:	4a03      	ldr	r2, [pc, #12]	; (8002b68 <vTaskSuspendAll+0x18>)
 8002b5c:	6013      	str	r3, [r2, #0]
 8002b5e:	bf00      	nop
 8002b60:	46bd      	mov	sp, r7
 8002b62:	f85d 7b04 	ldr.w	r7, [sp], #4
 8002b66:	4770      	bx	lr
 8002b68:	200003fc 	.word	0x200003fc

08002b6c <xTaskResumeAll>:
 8002b6c:	b580      	push	{r7, lr}
 8002b6e:	b084      	sub	sp, #16
 8002b70:	af00      	add	r7, sp, #0
 8002b72:	2300      	movs	r3, #0
 8002b74:	60fb      	str	r3, [r7, #12]
 8002b76:	2300      	movs	r3, #0
 8002b78:	60bb      	str	r3, [r7, #8]
 8002b7a:	4b43      	ldr	r3, [pc, #268]	; (8002c88 <xTaskResumeAll+0x11c>)
 8002b7c:	681b      	ldr	r3, [r3, #0]
 8002b7e:	2b00      	cmp	r3, #0
 8002b80:	d109      	bne.n	8002b96 <xTaskResumeAll+0x2a>
 8002b82:	f04f 0350 	mov.w	r3, #80	; 0x50
 8002b86:	f383 8811 	msr	BASEPRI, r3
 8002b8a:	f3bf 8f6f 	isb	sy
 8002b8e:	f3bf 8f4f 	dsb	sy
 8002b92:	603b      	str	r3, [r7, #0]
 8002b94:	e7fe      	b.n	8002b94 <xTaskResumeAll+0x28>
 8002b96:	f000 fc41 	bl	800341c <vPortEnterCritical>
 8002b9a:	4b3b      	ldr	r3, [pc, #236]	; (8002c88 <xTaskResumeAll+0x11c>)
 8002b9c:	681b      	ldr	r3, [r3, #0]
 8002b9e:	3b01      	subs	r3, #1
 8002ba0:	4a39      	ldr	r2, [pc, #228]	; (8002c88 <xTaskResumeAll+0x11c>)
 8002ba2:	6013      	str	r3, [r2, #0]
 8002ba4:	4b38      	ldr	r3, [pc, #224]	; (8002c88 <xTaskResumeAll+0x11c>)
 8002ba6:	681b      	ldr	r3, [r3, #0]
 8002ba8:	2b00      	cmp	r3, #0
 8002baa:	d165      	bne.n	8002c78 <xTaskResumeAll+0x10c>
 8002bac:	4b37      	ldr	r3, [pc, #220]	; (8002c8c <xTaskResumeAll+0x120>)
 8002bae:	681b      	ldr	r3, [r3, #0]
 8002bb0:	2b00      	cmp	r3, #0
 8002bb2:	d061      	beq.n	8002c78 <xTaskResumeAll+0x10c>
 8002bb4:	e032      	b.n	8002c1c <xTaskResumeAll+0xb0>
 8002bb6:	4b36      	ldr	r3, [pc, #216]	; (8002c90 <xTaskResumeAll+0x124>)
 8002bb8:	68db      	ldr	r3, [r3, #12]
 8002bba:	68db      	ldr	r3, [r3, #12]
 8002bbc:	60fb      	str	r3, [r7, #12]
 8002bbe:	68fb      	ldr	r3, [r7, #12]
 8002bc0:	3318      	adds	r3, #24
 8002bc2:	4618      	mov	r0, r3
 8002bc4:	f7ff fd54 	bl	8002670 <uxListRemove>
 8002bc8:	68fb      	ldr	r3, [r7, #12]
 8002bca:	3304      	adds	r3, #4
 8002bcc:	4618      	mov	r0, r3
 8002bce:	f7ff fd4f 	bl	8002670 <uxListRemove>
 8002bd2:	68fb      	ldr	r3, [r7, #12]
 8002bd4:	4618      	mov	r0, r3
 8002bd6:	f002 f91d 	bl	8004e14 <SEGGER_SYSVIEW_OnTaskStartReady>
 8002bda:	68fb      	ldr	r3, [r7, #12]
 8002bdc:	6adb      	ldr	r3, [r3, #44]	; 0x2c
 8002bde:	2201      	movs	r2, #1
 8002be0:	409a      	lsls	r2, r3
 8002be2:	4b2c      	ldr	r3, [pc, #176]	; (8002c94 <xTaskResumeAll+0x128>)
 8002be4:	681b      	ldr	r3, [r3, #0]
 8002be6:	4313      	orrs	r3, r2
 8002be8:	4a2a      	ldr	r2, [pc, #168]	; (8002c94 <xTaskResumeAll+0x128>)
 8002bea:	6013      	str	r3, [r2, #0]
 8002bec:	68fb      	ldr	r3, [r7, #12]
 8002bee:	6ada      	ldr	r2, [r3, #44]	; 0x2c
 8002bf0:	4613      	mov	r3, r2
 8002bf2:	009b      	lsls	r3, r3, #2
 8002bf4:	4413      	add	r3, r2
 8002bf6:	009b      	lsls	r3, r3, #2
 8002bf8:	4a27      	ldr	r2, [pc, #156]	; (8002c98 <xTaskResumeAll+0x12c>)
 8002bfa:	441a      	add	r2, r3
 8002bfc:	68fb      	ldr	r3, [r7, #12]
 8002bfe:	3304      	adds	r3, #4
 8002c00:	4619      	mov	r1, r3
 8002c02:	4610      	mov	r0, r2
 8002c04:	f7ff fcd7 	bl	80025b6 <vListInsertEnd>
 8002c08:	68fb      	ldr	r3, [r7, #12]
 8002c0a:	6ada      	ldr	r2, [r3, #44]	; 0x2c
 8002c0c:	4b23      	ldr	r3, [pc, #140]	; (8002c9c <xTaskResumeAll+0x130>)
 8002c0e:	681b      	ldr	r3, [r3, #0]
 8002c10:	6adb      	ldr	r3, [r3, #44]	; 0x2c
 8002c12:	429a      	cmp	r2, r3
 8002c14:	d302      	bcc.n	8002c1c <xTaskResumeAll+0xb0>
 8002c16:	4b22      	ldr	r3, [pc, #136]	; (8002ca0 <xTaskResumeAll+0x134>)
 8002c18:	2201      	movs	r2, #1
 8002c1a:	601a      	str	r2, [r3, #0]
 8002c1c:	4b1c      	ldr	r3, [pc, #112]	; (8002c90 <xTaskResumeAll+0x124>)
 8002c1e:	681b      	ldr	r3, [r3, #0]
 8002c20:	2b00      	cmp	r3, #0
 8002c22:	d1c8      	bne.n	8002bb6 <xTaskResumeAll+0x4a>
 8002c24:	68fb      	ldr	r3, [r7, #12]
 8002c26:	2b00      	cmp	r3, #0
 8002c28:	d001      	beq.n	8002c2e <xTaskResumeAll+0xc2>
 8002c2a:	f000 fa31 	bl	8003090 <prvResetNextTaskUnblockTime>
 8002c2e:	4b1d      	ldr	r3, [pc, #116]	; (8002ca4 <xTaskResumeAll+0x138>)
 8002c30:	681b      	ldr	r3, [r3, #0]
 8002c32:	607b      	str	r3, [r7, #4]
 8002c34:	687b      	ldr	r3, [r7, #4]
 8002c36:	2b00      	cmp	r3, #0
 8002c38:	d010      	beq.n	8002c5c <xTaskResumeAll+0xf0>
 8002c3a:	f000 f849 	bl	8002cd0 <xTaskIncrementTick>
 8002c3e:	4603      	mov	r3, r0
 8002c40:	2b00      	cmp	r3, #0
 8002c42:	d002      	beq.n	8002c4a <xTaskResumeAll+0xde>
 8002c44:	4b16      	ldr	r3, [pc, #88]	; (8002ca0 <xTaskResumeAll+0x134>)
 8002c46:	2201      	movs	r2, #1
 8002c48:	601a      	str	r2, [r3, #0]
 8002c4a:	687b      	ldr	r3, [r7, #4]
 8002c4c:	3b01      	subs	r3, #1
 8002c4e:	607b      	str	r3, [r7, #4]
 8002c50:	687b      	ldr	r3, [r7, #4]
 8002c52:	2b00      	cmp	r3, #0
 8002c54:	d1f1      	bne.n	8002c3a <xTaskResumeAll+0xce>
 8002c56:	4b13      	ldr	r3, [pc, #76]	; (8002ca4 <xTaskResumeAll+0x138>)
 8002c58:	2200      	movs	r2, #0
 8002c5a:	601a      	str	r2, [r3, #0]
 8002c5c:	4b10      	ldr	r3, [pc, #64]	; (8002ca0 <xTaskResumeAll+0x134>)
 8002c5e:	681b      	ldr	r3, [r3, #0]
 8002c60:	2b00      	cmp	r3, #0
 8002c62:	d009      	beq.n	8002c78 <xTaskResumeAll+0x10c>
 8002c64:	2301      	movs	r3, #1
 8002c66:	60bb      	str	r3, [r7, #8]
 8002c68:	4b0f      	ldr	r3, [pc, #60]	; (8002ca8 <xTaskResumeAll+0x13c>)
 8002c6a:	f04f 5280 	mov.w	r2, #268435456	; 0x10000000
 8002c6e:	601a      	str	r2, [r3, #0]
 8002c70:	f3bf 8f4f 	dsb	sy
 8002c74:	f3bf 8f6f 	isb	sy
 8002c78:	f000 fbfe 	bl	8003478 <vPortExitCritical>
 8002c7c:	68bb      	ldr	r3, [r7, #8]
 8002c7e:	4618      	mov	r0, r3
 8002c80:	3710      	adds	r7, #16
 8002c82:	46bd      	mov	sp, r7
 8002c84:	bd80      	pop	{r7, pc}
 8002c86:	bf00      	nop
 8002c88:	200003fc 	.word	0x200003fc
 8002c8c:	200003d4 	.word	0x200003d4
 8002c90:	20000394 	.word	0x20000394
 8002c94:	200003dc 	.word	0x200003dc
 8002c98:	20000300 	.word	0x20000300
 8002c9c:	200002fc 	.word	0x200002fc
 8002ca0:	200003e8 	.word	0x200003e8
 8002ca4:	200003e4 	.word	0x200003e4
 8002ca8:	e000ed04 	.word	0xe000ed04

08002cac <xTaskGetTickCountFromISR>:
 8002cac:	b580      	push	{r7, lr}
 8002cae:	b082      	sub	sp, #8
 8002cb0:	af00      	add	r7, sp, #0
 8002cb2:	f000 fc97 	bl	80035e4 <vPortValidateInterruptPriority>
 8002cb6:	2300      	movs	r3, #0
 8002cb8:	607b      	str	r3, [r7, #4]
 8002cba:	4b04      	ldr	r3, [pc, #16]	; (8002ccc <xTaskGetTickCountFromISR+0x20>)
 8002cbc:	681b      	ldr	r3, [r3, #0]
 8002cbe:	603b      	str	r3, [r7, #0]
 8002cc0:	683b      	ldr	r3, [r7, #0]
 8002cc2:	4618      	mov	r0, r3
 8002cc4:	3708      	adds	r7, #8
 8002cc6:	46bd      	mov	sp, r7
 8002cc8:	bd80      	pop	{r7, pc}
 8002cca:	bf00      	nop
 8002ccc:	200003d8 	.word	0x200003d8

08002cd0 <xTaskIncrementTick>:
 8002cd0:	b580      	push	{r7, lr}
 8002cd2:	b086      	sub	sp, #24
 8002cd4:	af00      	add	r7, sp, #0
 8002cd6:	2300      	movs	r3, #0
 8002cd8:	617b      	str	r3, [r7, #20]
 8002cda:	4b52      	ldr	r3, [pc, #328]	; (8002e24 <xTaskIncrementTick+0x154>)
 8002cdc:	681b      	ldr	r3, [r3, #0]
 8002cde:	2b00      	cmp	r3, #0
 8002ce0:	f040 8090 	bne.w	8002e04 <xTaskIncrementTick+0x134>
 8002ce4:	4b50      	ldr	r3, [pc, #320]	; (8002e28 <xTaskIncrementTick+0x158>)
 8002ce6:	681b      	ldr	r3, [r3, #0]
 8002ce8:	3301      	adds	r3, #1
 8002cea:	613b      	str	r3, [r7, #16]
 8002cec:	4a4e      	ldr	r2, [pc, #312]	; (8002e28 <xTaskIncrementTick+0x158>)
 8002cee:	693b      	ldr	r3, [r7, #16]
 8002cf0:	6013      	str	r3, [r2, #0]
 8002cf2:	693b      	ldr	r3, [r7, #16]
 8002cf4:	2b00      	cmp	r3, #0
 8002cf6:	d11f      	bne.n	8002d38 <xTaskIncrementTick+0x68>
 8002cf8:	4b4c      	ldr	r3, [pc, #304]	; (8002e2c <xTaskIncrementTick+0x15c>)
 8002cfa:	681b      	ldr	r3, [r3, #0]
 8002cfc:	681b      	ldr	r3, [r3, #0]
 8002cfe:	2b00      	cmp	r3, #0
 8002d00:	d009      	beq.n	8002d16 <xTaskIncrementTick+0x46>
 8002d02:	f04f 0350 	mov.w	r3, #80	; 0x50
 8002d06:	f383 8811 	msr	BASEPRI, r3
 8002d0a:	f3bf 8f6f 	isb	sy
 8002d0e:	f3bf 8f4f 	dsb	sy
 8002d12:	603b      	str	r3, [r7, #0]
 8002d14:	e7fe      	b.n	8002d14 <xTaskIncrementTick+0x44>
 8002d16:	4b45      	ldr	r3, [pc, #276]	; (8002e2c <xTaskIncrementTick+0x15c>)
 8002d18:	681b      	ldr	r3, [r3, #0]
 8002d1a:	60fb      	str	r3, [r7, #12]
 8002d1c:	4b44      	ldr	r3, [pc, #272]	; (8002e30 <xTaskIncrementTick+0x160>)
 8002d1e:	681b      	ldr	r3, [r3, #0]
 8002d20:	4a42      	ldr	r2, [pc, #264]	; (8002e2c <xTaskIncrementTick+0x15c>)
 8002d22:	6013      	str	r3, [r2, #0]
 8002d24:	4a42      	ldr	r2, [pc, #264]	; (8002e30 <xTaskIncrementTick+0x160>)
 8002d26:	68fb      	ldr	r3, [r7, #12]
 8002d28:	6013      	str	r3, [r2, #0]
 8002d2a:	4b42      	ldr	r3, [pc, #264]	; (8002e34 <xTaskIncrementTick+0x164>)
 8002d2c:	681b      	ldr	r3, [r3, #0]
 8002d2e:	3301      	adds	r3, #1
 8002d30:	4a40      	ldr	r2, [pc, #256]	; (8002e34 <xTaskIncrementTick+0x164>)
 8002d32:	6013      	str	r3, [r2, #0]
 8002d34:	f000 f9ac 	bl	8003090 <prvResetNextTaskUnblockTime>
 8002d38:	4b3f      	ldr	r3, [pc, #252]	; (8002e38 <xTaskIncrementTick+0x168>)
 8002d3a:	681b      	ldr	r3, [r3, #0]
 8002d3c:	693a      	ldr	r2, [r7, #16]
 8002d3e:	429a      	cmp	r2, r3
 8002d40:	d351      	bcc.n	8002de6 <xTaskIncrementTick+0x116>
 8002d42:	4b3a      	ldr	r3, [pc, #232]	; (8002e2c <xTaskIncrementTick+0x15c>)
 8002d44:	681b      	ldr	r3, [r3, #0]
 8002d46:	681b      	ldr	r3, [r3, #0]
 8002d48:	2b00      	cmp	r3, #0
 8002d4a:	d101      	bne.n	8002d50 <xTaskIncrementTick+0x80>
 8002d4c:	2301      	movs	r3, #1
 8002d4e:	e000      	b.n	8002d52 <xTaskIncrementTick+0x82>
 8002d50:	2300      	movs	r3, #0
 8002d52:	2b00      	cmp	r3, #0
 8002d54:	d004      	beq.n	8002d60 <xTaskIncrementTick+0x90>
 8002d56:	4b38      	ldr	r3, [pc, #224]	; (8002e38 <xTaskIncrementTick+0x168>)
 8002d58:	f04f 32ff 	mov.w	r2, #4294967295
 8002d5c:	601a      	str	r2, [r3, #0]
 8002d5e:	e042      	b.n	8002de6 <xTaskIncrementTick+0x116>
 8002d60:	4b32      	ldr	r3, [pc, #200]	; (8002e2c <xTaskIncrementTick+0x15c>)
 8002d62:	681b      	ldr	r3, [r3, #0]
 8002d64:	68db      	ldr	r3, [r3, #12]
 8002d66:	68db      	ldr	r3, [r3, #12]
 8002d68:	60bb      	str	r3, [r7, #8]
 8002d6a:	68bb      	ldr	r3, [r7, #8]
 8002d6c:	685b      	ldr	r3, [r3, #4]
 8002d6e:	607b      	str	r3, [r7, #4]
 8002d70:	693a      	ldr	r2, [r7, #16]
 8002d72:	687b      	ldr	r3, [r7, #4]
 8002d74:	429a      	cmp	r2, r3
 8002d76:	d203      	bcs.n	8002d80 <xTaskIncrementTick+0xb0>
 8002d78:	4a2f      	ldr	r2, [pc, #188]	; (8002e38 <xTaskIncrementTick+0x168>)
 8002d7a:	687b      	ldr	r3, [r7, #4]
 8002d7c:	6013      	str	r3, [r2, #0]
 8002d7e:	e032      	b.n	8002de6 <xTaskIncrementTick+0x116>
 8002d80:	68bb      	ldr	r3, [r7, #8]
 8002d82:	3304      	adds	r3, #4
 8002d84:	4618      	mov	r0, r3
 8002d86:	f7ff fc73 	bl	8002670 <uxListRemove>
 8002d8a:	68bb      	ldr	r3, [r7, #8]
 8002d8c:	6a9b      	ldr	r3, [r3, #40]	; 0x28
 8002d8e:	2b00      	cmp	r3, #0
 8002d90:	d004      	beq.n	8002d9c <xTaskIncrementTick+0xcc>
 8002d92:	68bb      	ldr	r3, [r7, #8]
 8002d94:	3318      	adds	r3, #24
 8002d96:	4618      	mov	r0, r3
 8002d98:	f7ff fc6a 	bl	8002670 <uxListRemove>
 8002d9c:	68bb      	ldr	r3, [r7, #8]
 8002d9e:	4618      	mov	r0, r3
 8002da0:	f002 f838 	bl	8004e14 <SEGGER_SYSVIEW_OnTaskStartReady>
 8002da4:	68bb      	ldr	r3, [r7, #8]
 8002da6:	6adb      	ldr	r3, [r3, #44]	; 0x2c
 8002da8:	2201      	movs	r2, #1
 8002daa:	409a      	lsls	r2, r3
 8002dac:	4b23      	ldr	r3, [pc, #140]	; (8002e3c <xTaskIncrementTick+0x16c>)
 8002dae:	681b      	ldr	r3, [r3, #0]
 8002db0:	4313      	orrs	r3, r2
 8002db2:	4a22      	ldr	r2, [pc, #136]	; (8002e3c <xTaskIncrementTick+0x16c>)
 8002db4:	6013      	str	r3, [r2, #0]
 8002db6:	68bb      	ldr	r3, [r7, #8]
 8002db8:	6ada      	ldr	r2, [r3, #44]	; 0x2c
 8002dba:	4613      	mov	r3, r2
 8002dbc:	009b      	lsls	r3, r3, #2
 8002dbe:	4413      	add	r3, r2
 8002dc0:	009b      	lsls	r3, r3, #2
 8002dc2:	4a1f      	ldr	r2, [pc, #124]	; (8002e40 <xTaskIncrementTick+0x170>)
 8002dc4:	441a      	add	r2, r3
 8002dc6:	68bb      	ldr	r3, [r7, #8]
 8002dc8:	3304      	adds	r3, #4
 8002dca:	4619      	mov	r1, r3
 8002dcc:	4610      	mov	r0, r2
 8002dce:	f7ff fbf2 	bl	80025b6 <vListInsertEnd>
 8002dd2:	68bb      	ldr	r3, [r7, #8]
 8002dd4:	6ada      	ldr	r2, [r3, #44]	; 0x2c
 8002dd6:	4b1b      	ldr	r3, [pc, #108]	; (8002e44 <xTaskIncrementTick+0x174>)
 8002dd8:	681b      	ldr	r3, [r3, #0]
 8002dda:	6adb      	ldr	r3, [r3, #44]	; 0x2c
 8002ddc:	429a      	cmp	r2, r3
 8002dde:	d3b0      	bcc.n	8002d42 <xTaskIncrementTick+0x72>
 8002de0:	2301      	movs	r3, #1
 8002de2:	617b      	str	r3, [r7, #20]
 8002de4:	e7ad      	b.n	8002d42 <xTaskIncrementTick+0x72>
 8002de6:	4b17      	ldr	r3, [pc, #92]	; (8002e44 <xTaskIncrementTick+0x174>)
 8002de8:	681b      	ldr	r3, [r3, #0]
 8002dea:	6ada      	ldr	r2, [r3, #44]	; 0x2c
 8002dec:	4914      	ldr	r1, [pc, #80]	; (8002e40 <xTaskIncrementTick+0x170>)
 8002dee:	4613      	mov	r3, r2
 8002df0:	009b      	lsls	r3, r3, #2
 8002df2:	4413      	add	r3, r2
 8002df4:	009b      	lsls	r3, r3, #2
 8002df6:	440b      	add	r3, r1
 8002df8:	681b      	ldr	r3, [r3, #0]
 8002dfa:	2b01      	cmp	r3, #1
 8002dfc:	d907      	bls.n	8002e0e <xTaskIncrementTick+0x13e>
 8002dfe:	2301      	movs	r3, #1
 8002e00:	617b      	str	r3, [r7, #20]
 8002e02:	e004      	b.n	8002e0e <xTaskIncrementTick+0x13e>
 8002e04:	4b10      	ldr	r3, [pc, #64]	; (8002e48 <xTaskIncrementTick+0x178>)
 8002e06:	681b      	ldr	r3, [r3, #0]
 8002e08:	3301      	adds	r3, #1
 8002e0a:	4a0f      	ldr	r2, [pc, #60]	; (8002e48 <xTaskIncrementTick+0x178>)
 8002e0c:	6013      	str	r3, [r2, #0]
 8002e0e:	4b0f      	ldr	r3, [pc, #60]	; (8002e4c <xTaskIncrementTick+0x17c>)
 8002e10:	681b      	ldr	r3, [r3, #0]
 8002e12:	2b00      	cmp	r3, #0
 8002e14:	d001      	beq.n	8002e1a <xTaskIncrementTick+0x14a>
 8002e16:	2301      	movs	r3, #1
 8002e18:	617b      	str	r3, [r7, #20]
 8002e1a:	697b      	ldr	r3, [r7, #20]
 8002e1c:	4618      	mov	r0, r3
 8002e1e:	3718      	adds	r7, #24
 8002e20:	46bd      	mov	sp, r7
 8002e22:	bd80      	pop	{r7, pc}
 8002e24:	200003fc 	.word	0x200003fc
 8002e28:	200003d8 	.word	0x200003d8
 8002e2c:	2000038c 	.word	0x2000038c
 8002e30:	20000390 	.word	0x20000390
 8002e34:	200003ec 	.word	0x200003ec
 8002e38:	200003f4 	.word	0x200003f4
 8002e3c:	200003dc 	.word	0x200003dc
 8002e40:	20000300 	.word	0x20000300
 8002e44:	200002fc 	.word	0x200002fc
 8002e48:	200003e4 	.word	0x200003e4
 8002e4c:	200003e8 	.word	0x200003e8

08002e50 <vTaskSwitchContext>:
 8002e50:	b580      	push	{r7, lr}
 8002e52:	b086      	sub	sp, #24
 8002e54:	af00      	add	r7, sp, #0
 8002e56:	4b2f      	ldr	r3, [pc, #188]	; (8002f14 <vTaskSwitchContext+0xc4>)
 8002e58:	681b      	ldr	r3, [r3, #0]
 8002e5a:	2b00      	cmp	r3, #0
 8002e5c:	d003      	beq.n	8002e66 <vTaskSwitchContext+0x16>
 8002e5e:	4b2e      	ldr	r3, [pc, #184]	; (8002f18 <vTaskSwitchContext+0xc8>)
 8002e60:	2201      	movs	r2, #1
 8002e62:	601a      	str	r2, [r3, #0]
 8002e64:	e051      	b.n	8002f0a <vTaskSwitchContext+0xba>
 8002e66:	4b2c      	ldr	r3, [pc, #176]	; (8002f18 <vTaskSwitchContext+0xc8>)
 8002e68:	2200      	movs	r2, #0
 8002e6a:	601a      	str	r2, [r3, #0]
 8002e6c:	4b2b      	ldr	r3, [pc, #172]	; (8002f1c <vTaskSwitchContext+0xcc>)
 8002e6e:	681b      	ldr	r3, [r3, #0]
 8002e70:	60fb      	str	r3, [r7, #12]
 8002e72:	68fb      	ldr	r3, [r7, #12]
 8002e74:	fab3 f383 	clz	r3, r3
 8002e78:	72fb      	strb	r3, [r7, #11]
 8002e7a:	7afb      	ldrb	r3, [r7, #11]
 8002e7c:	f1c3 031f 	rsb	r3, r3, #31
 8002e80:	617b      	str	r3, [r7, #20]
 8002e82:	4927      	ldr	r1, [pc, #156]	; (8002f20 <vTaskSwitchContext+0xd0>)
 8002e84:	697a      	ldr	r2, [r7, #20]
 8002e86:	4613      	mov	r3, r2
 8002e88:	009b      	lsls	r3, r3, #2
 8002e8a:	4413      	add	r3, r2
 8002e8c:	009b      	lsls	r3, r3, #2
 8002e8e:	440b      	add	r3, r1
 8002e90:	681b      	ldr	r3, [r3, #0]
 8002e92:	2b00      	cmp	r3, #0
 8002e94:	d109      	bne.n	8002eaa <vTaskSwitchContext+0x5a>
 8002e96:	f04f 0350 	mov.w	r3, #80	; 0x50
 8002e9a:	f383 8811 	msr	BASEPRI, r3
 8002e9e:	f3bf 8f6f 	isb	sy
 8002ea2:	f3bf 8f4f 	dsb	sy
 8002ea6:	607b      	str	r3, [r7, #4]
 8002ea8:	e7fe      	b.n	8002ea8 <vTaskSwitchContext+0x58>
 8002eaa:	697a      	ldr	r2, [r7, #20]
 8002eac:	4613      	mov	r3, r2
 8002eae:	009b      	lsls	r3, r3, #2
 8002eb0:	4413      	add	r3, r2
 8002eb2:	009b      	lsls	r3, r3, #2
 8002eb4:	4a1a      	ldr	r2, [pc, #104]	; (8002f20 <vTaskSwitchContext+0xd0>)
 8002eb6:	4413      	add	r3, r2
 8002eb8:	613b      	str	r3, [r7, #16]
 8002eba:	693b      	ldr	r3, [r7, #16]
 8002ebc:	685b      	ldr	r3, [r3, #4]
 8002ebe:	685a      	ldr	r2, [r3, #4]
 8002ec0:	693b      	ldr	r3, [r7, #16]
 8002ec2:	605a      	str	r2, [r3, #4]
 8002ec4:	693b      	ldr	r3, [r7, #16]
 8002ec6:	685a      	ldr	r2, [r3, #4]
 8002ec8:	693b      	ldr	r3, [r7, #16]
 8002eca:	3308      	adds	r3, #8
 8002ecc:	429a      	cmp	r2, r3
 8002ece:	d104      	bne.n	8002eda <vTaskSwitchContext+0x8a>
 8002ed0:	693b      	ldr	r3, [r7, #16]
 8002ed2:	685b      	ldr	r3, [r3, #4]
 8002ed4:	685a      	ldr	r2, [r3, #4]
 8002ed6:	693b      	ldr	r3, [r7, #16]
 8002ed8:	605a      	str	r2, [r3, #4]
 8002eda:	693b      	ldr	r3, [r7, #16]
 8002edc:	685b      	ldr	r3, [r3, #4]
 8002ede:	68db      	ldr	r3, [r3, #12]
 8002ee0:	4a10      	ldr	r2, [pc, #64]	; (8002f24 <vTaskSwitchContext+0xd4>)
 8002ee2:	6013      	str	r3, [r2, #0]
 8002ee4:	4b0f      	ldr	r3, [pc, #60]	; (8002f24 <vTaskSwitchContext+0xd4>)
 8002ee6:	681b      	ldr	r3, [r3, #0]
 8002ee8:	3334      	adds	r3, #52	; 0x34
 8002eea:	2205      	movs	r2, #5
 8002eec:	490e      	ldr	r1, [pc, #56]	; (8002f28 <vTaskSwitchContext+0xd8>)
 8002eee:	4618      	mov	r0, r3
 8002ef0:	f002 f996 	bl	8005220 <memcmp>
 8002ef4:	4603      	mov	r3, r0
 8002ef6:	2b00      	cmp	r3, #0
 8002ef8:	d005      	beq.n	8002f06 <vTaskSwitchContext+0xb6>
 8002efa:	4b0a      	ldr	r3, [pc, #40]	; (8002f24 <vTaskSwitchContext+0xd4>)
 8002efc:	681b      	ldr	r3, [r3, #0]
 8002efe:	4618      	mov	r0, r3
 8002f00:	f001 ff44 	bl	8004d8c <SEGGER_SYSVIEW_OnTaskStartExec>
 8002f04:	e001      	b.n	8002f0a <vTaskSwitchContext+0xba>
 8002f06:	f001 fee1 	bl	8004ccc <SEGGER_SYSVIEW_OnIdle>
 8002f0a:	bf00      	nop
 8002f0c:	3718      	adds	r7, #24
 8002f0e:	46bd      	mov	sp, r7
 8002f10:	bd80      	pop	{r7, pc}
 8002f12:	bf00      	nop
 8002f14:	200003fc 	.word	0x200003fc
 8002f18:	200003e8 	.word	0x200003e8
 8002f1c:	200003dc 	.word	0x200003dc
 8002f20:	20000300 	.word	0x20000300
 8002f24:	200002fc 	.word	0x200002fc
 8002f28:	08005aac 	.word	0x08005aac

08002f2c <prvIdleTask>:
 8002f2c:	b580      	push	{r7, lr}
 8002f2e:	b082      	sub	sp, #8
 8002f30:	af00      	add	r7, sp, #0
 8002f32:	6078      	str	r0, [r7, #4]
 8002f34:	f000 f852 	bl	8002fdc <prvCheckTasksWaitingTermination>
 8002f38:	4b06      	ldr	r3, [pc, #24]	; (8002f54 <prvIdleTask+0x28>)
 8002f3a:	681b      	ldr	r3, [r3, #0]
 8002f3c:	2b01      	cmp	r3, #1
 8002f3e:	d9f9      	bls.n	8002f34 <prvIdleTask+0x8>
 8002f40:	4b05      	ldr	r3, [pc, #20]	; (8002f58 <prvIdleTask+0x2c>)
 8002f42:	f04f 5280 	mov.w	r2, #268435456	; 0x10000000
 8002f46:	601a      	str	r2, [r3, #0]
 8002f48:	f3bf 8f4f 	dsb	sy
 8002f4c:	f3bf 8f6f 	isb	sy
 8002f50:	e7f0      	b.n	8002f34 <prvIdleTask+0x8>
 8002f52:	bf00      	nop
 8002f54:	20000300 	.word	0x20000300
 8002f58:	e000ed04 	.word	0xe000ed04

08002f5c <prvInitialiseTaskLists>:
 8002f5c:	b580      	push	{r7, lr}
 8002f5e:	b082      	sub	sp, #8
 8002f60:	af00      	add	r7, sp, #0
 8002f62:	2300      	movs	r3, #0
 8002f64:	607b      	str	r3, [r7, #4]
 8002f66:	e00c      	b.n	8002f82 <prvInitialiseTaskLists+0x26>
 8002f68:	687a      	ldr	r2, [r7, #4]
 8002f6a:	4613      	mov	r3, r2
 8002f6c:	009b      	lsls	r3, r3, #2
 8002f6e:	4413      	add	r3, r2
 8002f70:	009b      	lsls	r3, r3, #2
 8002f72:	4a12      	ldr	r2, [pc, #72]	; (8002fbc <prvInitialiseTaskLists+0x60>)
 8002f74:	4413      	add	r3, r2
 8002f76:	4618      	mov	r0, r3
 8002f78:	f7ff faf0 	bl	800255c <vListInitialise>
 8002f7c:	687b      	ldr	r3, [r7, #4]
 8002f7e:	3301      	adds	r3, #1
 8002f80:	607b      	str	r3, [r7, #4]
 8002f82:	687b      	ldr	r3, [r7, #4]
 8002f84:	2b04      	cmp	r3, #4
 8002f86:	d9ef      	bls.n	8002f68 <prvInitialiseTaskLists+0xc>
 8002f88:	480d      	ldr	r0, [pc, #52]	; (8002fc0 <prvInitialiseTaskLists+0x64>)
 8002f8a:	f7ff fae7 	bl	800255c <vListInitialise>
 8002f8e:	480d      	ldr	r0, [pc, #52]	; (8002fc4 <prvInitialiseTaskLists+0x68>)
 8002f90:	f7ff fae4 	bl	800255c <vListInitialise>
 8002f94:	480c      	ldr	r0, [pc, #48]	; (8002fc8 <prvInitialiseTaskLists+0x6c>)
 8002f96:	f7ff fae1 	bl	800255c <vListInitialise>
 8002f9a:	480c      	ldr	r0, [pc, #48]	; (8002fcc <prvInitialiseTaskLists+0x70>)
 8002f9c:	f7ff fade 	bl	800255c <vListInitialise>
 8002fa0:	480b      	ldr	r0, [pc, #44]	; (8002fd0 <prvInitialiseTaskLists+0x74>)
 8002fa2:	f7ff fadb 	bl	800255c <vListInitialise>
 8002fa6:	4b0b      	ldr	r3, [pc, #44]	; (8002fd4 <prvInitialiseTaskLists+0x78>)
 8002fa8:	4a05      	ldr	r2, [pc, #20]	; (8002fc0 <prvInitialiseTaskLists+0x64>)
 8002faa:	601a      	str	r2, [r3, #0]
 8002fac:	4b0a      	ldr	r3, [pc, #40]	; (8002fd8 <prvInitialiseTaskLists+0x7c>)
 8002fae:	4a05      	ldr	r2, [pc, #20]	; (8002fc4 <prvInitialiseTaskLists+0x68>)
 8002fb0:	601a      	str	r2, [r3, #0]
 8002fb2:	bf00      	nop
 8002fb4:	3708      	adds	r7, #8
 8002fb6:	46bd      	mov	sp, r7
 8002fb8:	bd80      	pop	{r7, pc}
 8002fba:	bf00      	nop
 8002fbc:	20000300 	.word	0x20000300
 8002fc0:	20000364 	.word	0x20000364
 8002fc4:	20000378 	.word	0x20000378
 8002fc8:	20000394 	.word	0x20000394
 8002fcc:	200003a8 	.word	0x200003a8
 8002fd0:	200003c0 	.word	0x200003c0
 8002fd4:	2000038c 	.word	0x2000038c
 8002fd8:	20000390 	.word	0x20000390

08002fdc <prvCheckTasksWaitingTermination>:
 8002fdc:	b580      	push	{r7, lr}
 8002fde:	b082      	sub	sp, #8
 8002fe0:	af00      	add	r7, sp, #0
 8002fe2:	e019      	b.n	8003018 <prvCheckTasksWaitingTermination+0x3c>
 8002fe4:	f000 fa1a 	bl	800341c <vPortEnterCritical>
 8002fe8:	4b0f      	ldr	r3, [pc, #60]	; (8003028 <prvCheckTasksWaitingTermination+0x4c>)
 8002fea:	68db      	ldr	r3, [r3, #12]
 8002fec:	68db      	ldr	r3, [r3, #12]
 8002fee:	607b      	str	r3, [r7, #4]
 8002ff0:	687b      	ldr	r3, [r7, #4]
 8002ff2:	3304      	adds	r3, #4
 8002ff4:	4618      	mov	r0, r3
 8002ff6:	f7ff fb3b 	bl	8002670 <uxListRemove>
 8002ffa:	4b0c      	ldr	r3, [pc, #48]	; (800302c <prvCheckTasksWaitingTermination+0x50>)
 8002ffc:	681b      	ldr	r3, [r3, #0]
 8002ffe:	3b01      	subs	r3, #1
 8003000:	4a0a      	ldr	r2, [pc, #40]	; (800302c <prvCheckTasksWaitingTermination+0x50>)
 8003002:	6013      	str	r3, [r2, #0]
 8003004:	4b0a      	ldr	r3, [pc, #40]	; (8003030 <prvCheckTasksWaitingTermination+0x54>)
 8003006:	681b      	ldr	r3, [r3, #0]
 8003008:	3b01      	subs	r3, #1
 800300a:	4a09      	ldr	r2, [pc, #36]	; (8003030 <prvCheckTasksWaitingTermination+0x54>)
 800300c:	6013      	str	r3, [r2, #0]
 800300e:	f000 fa33 	bl	8003478 <vPortExitCritical>
 8003012:	6878      	ldr	r0, [r7, #4]
 8003014:	f000 f80e 	bl	8003034 <prvDeleteTCB>
 8003018:	4b05      	ldr	r3, [pc, #20]	; (8003030 <prvCheckTasksWaitingTermination+0x54>)
 800301a:	681b      	ldr	r3, [r3, #0]
 800301c:	2b00      	cmp	r3, #0
 800301e:	d1e1      	bne.n	8002fe4 <prvCheckTasksWaitingTermination+0x8>
 8003020:	bf00      	nop
 8003022:	3708      	adds	r7, #8
 8003024:	46bd      	mov	sp, r7
 8003026:	bd80      	pop	{r7, pc}
 8003028:	200003a8 	.word	0x200003a8
 800302c:	200003d4 	.word	0x200003d4
 8003030:	200003bc 	.word	0x200003bc

08003034 <prvDeleteTCB>:
 8003034:	b580      	push	{r7, lr}
 8003036:	b084      	sub	sp, #16
 8003038:	af00      	add	r7, sp, #0
 800303a:	6078      	str	r0, [r7, #4]
 800303c:	687b      	ldr	r3, [r7, #4]
 800303e:	f893 3055 	ldrb.w	r3, [r3, #85]	; 0x55
 8003042:	2b00      	cmp	r3, #0
 8003044:	d108      	bne.n	8003058 <prvDeleteTCB+0x24>
 8003046:	687b      	ldr	r3, [r7, #4]
 8003048:	6b1b      	ldr	r3, [r3, #48]	; 0x30
 800304a:	4618      	mov	r0, r3
 800304c:	f000 fc14 	bl	8003878 <vPortFree>
 8003050:	6878      	ldr	r0, [r7, #4]
 8003052:	f000 fc11 	bl	8003878 <vPortFree>
 8003056:	e017      	b.n	8003088 <prvDeleteTCB+0x54>
 8003058:	687b      	ldr	r3, [r7, #4]
 800305a:	f893 3055 	ldrb.w	r3, [r3, #85]	; 0x55
 800305e:	2b01      	cmp	r3, #1
 8003060:	d103      	bne.n	800306a <prvDeleteTCB+0x36>
 8003062:	6878      	ldr	r0, [r7, #4]
 8003064:	f000 fc08 	bl	8003878 <vPortFree>
 8003068:	e00e      	b.n	8003088 <prvDeleteTCB+0x54>
 800306a:	687b      	ldr	r3, [r7, #4]
 800306c:	f893 3055 	ldrb.w	r3, [r3, #85]	; 0x55
 8003070:	2b02      	cmp	r3, #2
 8003072:	d009      	beq.n	8003088 <prvDeleteTCB+0x54>
 8003074:	f04f 0350 	mov.w	r3, #80	; 0x50
 8003078:	f383 8811 	msr	BASEPRI, r3
 800307c:	f3bf 8f6f 	isb	sy
 8003080:	f3bf 8f4f 	dsb	sy
 8003084:	60fb      	str	r3, [r7, #12]
 8003086:	e7fe      	b.n	8003086 <prvDeleteTCB+0x52>
 8003088:	bf00      	nop
 800308a:	3710      	adds	r7, #16
 800308c:	46bd      	mov	sp, r7
 800308e:	bd80      	pop	{r7, pc}

08003090 <prvResetNextTaskUnblockTime>:
 8003090:	b480      	push	{r7}
 8003092:	b083      	sub	sp, #12
 8003094:	af00      	add	r7, sp, #0
 8003096:	4b0f      	ldr	r3, [pc, #60]	; (80030d4 <prvResetNextTaskUnblockTime+0x44>)
 8003098:	681b      	ldr	r3, [r3, #0]
 800309a:	681b      	ldr	r3, [r3, #0]
 800309c:	2b00      	cmp	r3, #0
 800309e:	d101      	bne.n	80030a4 <prvResetNextTaskUnblockTime+0x14>
 80030a0:	2301      	movs	r3, #1
 80030a2:	e000      	b.n	80030a6 <prvResetNextTaskUnblockTime+0x16>
 80030a4:	2300      	movs	r3, #0
 80030a6:	2b00      	cmp	r3, #0
 80030a8:	d004      	beq.n	80030b4 <prvResetNextTaskUnblockTime+0x24>
 80030aa:	4b0b      	ldr	r3, [pc, #44]	; (80030d8 <prvResetNextTaskUnblockTime+0x48>)
 80030ac:	f04f 32ff 	mov.w	r2, #4294967295
 80030b0:	601a      	str	r2, [r3, #0]
 80030b2:	e008      	b.n	80030c6 <prvResetNextTaskUnblockTime+0x36>
 80030b4:	4b07      	ldr	r3, [pc, #28]	; (80030d4 <prvResetNextTaskUnblockTime+0x44>)
 80030b6:	681b      	ldr	r3, [r3, #0]
 80030b8:	68db      	ldr	r3, [r3, #12]
 80030ba:	68db      	ldr	r3, [r3, #12]
 80030bc:	607b      	str	r3, [r7, #4]
 80030be:	687b      	ldr	r3, [r7, #4]
 80030c0:	685b      	ldr	r3, [r3, #4]
 80030c2:	4a05      	ldr	r2, [pc, #20]	; (80030d8 <prvResetNextTaskUnblockTime+0x48>)
 80030c4:	6013      	str	r3, [r2, #0]
 80030c6:	bf00      	nop
 80030c8:	370c      	adds	r7, #12
 80030ca:	46bd      	mov	sp, r7
 80030cc:	f85d 7b04 	ldr.w	r7, [sp], #4
 80030d0:	4770      	bx	lr
 80030d2:	bf00      	nop
 80030d4:	2000038c 	.word	0x2000038c
 80030d8:	200003f4 	.word	0x200003f4

080030dc <prvAddCurrentTaskToDelayedList>:
 80030dc:	b580      	push	{r7, lr}
 80030de:	b084      	sub	sp, #16
 80030e0:	af00      	add	r7, sp, #0
 80030e2:	6078      	str	r0, [r7, #4]
 80030e4:	6039      	str	r1, [r7, #0]
 80030e6:	4b32      	ldr	r3, [pc, #200]	; (80031b0 <prvAddCurrentTaskToDelayedList+0xd4>)
 80030e8:	681b      	ldr	r3, [r3, #0]
 80030ea:	60fb      	str	r3, [r7, #12]
 80030ec:	4b31      	ldr	r3, [pc, #196]	; (80031b4 <prvAddCurrentTaskToDelayedList+0xd8>)
 80030ee:	681b      	ldr	r3, [r3, #0]
 80030f0:	3304      	adds	r3, #4
 80030f2:	4618      	mov	r0, r3
 80030f4:	f7ff fabc 	bl	8002670 <uxListRemove>
 80030f8:	4603      	mov	r3, r0
 80030fa:	2b00      	cmp	r3, #0
 80030fc:	d10b      	bne.n	8003116 <prvAddCurrentTaskToDelayedList+0x3a>
 80030fe:	4b2d      	ldr	r3, [pc, #180]	; (80031b4 <prvAddCurrentTaskToDelayedList+0xd8>)
 8003100:	681b      	ldr	r3, [r3, #0]
 8003102:	6adb      	ldr	r3, [r3, #44]	; 0x2c
 8003104:	2201      	movs	r2, #1
 8003106:	fa02 f303 	lsl.w	r3, r2, r3
 800310a:	43da      	mvns	r2, r3
 800310c:	4b2a      	ldr	r3, [pc, #168]	; (80031b8 <prvAddCurrentTaskToDelayedList+0xdc>)
 800310e:	681b      	ldr	r3, [r3, #0]
 8003110:	4013      	ands	r3, r2
 8003112:	4a29      	ldr	r2, [pc, #164]	; (80031b8 <prvAddCurrentTaskToDelayedList+0xdc>)
 8003114:	6013      	str	r3, [r2, #0]
 8003116:	687b      	ldr	r3, [r7, #4]
 8003118:	f1b3 3fff 	cmp.w	r3, #4294967295
 800311c:	d110      	bne.n	8003140 <prvAddCurrentTaskToDelayedList+0x64>
 800311e:	683b      	ldr	r3, [r7, #0]
 8003120:	2b00      	cmp	r3, #0
 8003122:	d00d      	beq.n	8003140 <prvAddCurrentTaskToDelayedList+0x64>
 8003124:	4b23      	ldr	r3, [pc, #140]	; (80031b4 <prvAddCurrentTaskToDelayedList+0xd8>)
 8003126:	681b      	ldr	r3, [r3, #0]
 8003128:	211b      	movs	r1, #27
 800312a:	4618      	mov	r0, r3
 800312c:	f001 feb6 	bl	8004e9c <SEGGER_SYSVIEW_OnTaskStopReady>
 8003130:	4b20      	ldr	r3, [pc, #128]	; (80031b4 <prvAddCurrentTaskToDelayedList+0xd8>)
 8003132:	681b      	ldr	r3, [r3, #0]
 8003134:	3304      	adds	r3, #4
 8003136:	4619      	mov	r1, r3
 8003138:	4820      	ldr	r0, [pc, #128]	; (80031bc <prvAddCurrentTaskToDelayedList+0xe0>)
 800313a:	f7ff fa3c 	bl	80025b6 <vListInsertEnd>
 800313e:	e032      	b.n	80031a6 <prvAddCurrentTaskToDelayedList+0xca>
 8003140:	68fa      	ldr	r2, [r7, #12]
 8003142:	687b      	ldr	r3, [r7, #4]
 8003144:	4413      	add	r3, r2
 8003146:	60bb      	str	r3, [r7, #8]
 8003148:	4b1a      	ldr	r3, [pc, #104]	; (80031b4 <prvAddCurrentTaskToDelayedList+0xd8>)
 800314a:	681b      	ldr	r3, [r3, #0]
 800314c:	68ba      	ldr	r2, [r7, #8]
 800314e:	605a      	str	r2, [r3, #4]
 8003150:	68ba      	ldr	r2, [r7, #8]
 8003152:	68fb      	ldr	r3, [r7, #12]
 8003154:	429a      	cmp	r2, r3
 8003156:	d20f      	bcs.n	8003178 <prvAddCurrentTaskToDelayedList+0x9c>
 8003158:	4b16      	ldr	r3, [pc, #88]	; (80031b4 <prvAddCurrentTaskToDelayedList+0xd8>)
 800315a:	681b      	ldr	r3, [r3, #0]
 800315c:	2104      	movs	r1, #4
 800315e:	4618      	mov	r0, r3
 8003160:	f001 fe9c 	bl	8004e9c <SEGGER_SYSVIEW_OnTaskStopReady>
 8003164:	4b16      	ldr	r3, [pc, #88]	; (80031c0 <prvAddCurrentTaskToDelayedList+0xe4>)
 8003166:	681a      	ldr	r2, [r3, #0]
 8003168:	4b12      	ldr	r3, [pc, #72]	; (80031b4 <prvAddCurrentTaskToDelayedList+0xd8>)
 800316a:	681b      	ldr	r3, [r3, #0]
 800316c:	3304      	adds	r3, #4
 800316e:	4619      	mov	r1, r3
 8003170:	4610      	mov	r0, r2
 8003172:	f7ff fa44 	bl	80025fe <vListInsert>
 8003176:	e016      	b.n	80031a6 <prvAddCurrentTaskToDelayedList+0xca>
 8003178:	4b0e      	ldr	r3, [pc, #56]	; (80031b4 <prvAddCurrentTaskToDelayedList+0xd8>)
 800317a:	681b      	ldr	r3, [r3, #0]
 800317c:	2104      	movs	r1, #4
 800317e:	4618      	mov	r0, r3
 8003180:	f001 fe8c 	bl	8004e9c <SEGGER_SYSVIEW_OnTaskStopReady>
 8003184:	4b0f      	ldr	r3, [pc, #60]	; (80031c4 <prvAddCurrentTaskToDelayedList+0xe8>)
 8003186:	681a      	ldr	r2, [r3, #0]
 8003188:	4b0a      	ldr	r3, [pc, #40]	; (80031b4 <prvAddCurrentTaskToDelayedList+0xd8>)
 800318a:	681b      	ldr	r3, [r3, #0]
 800318c:	3304      	adds	r3, #4
 800318e:	4619      	mov	r1, r3
 8003190:	4610      	mov	r0, r2
 8003192:	f7ff fa34 	bl	80025fe <vListInsert>
 8003196:	4b0c      	ldr	r3, [pc, #48]	; (80031c8 <prvAddCurrentTaskToDelayedList+0xec>)
 8003198:	681b      	ldr	r3, [r3, #0]
 800319a:	68ba      	ldr	r2, [r7, #8]
 800319c:	429a      	cmp	r2, r3
 800319e:	d202      	bcs.n	80031a6 <prvAddCurrentTaskToDelayedList+0xca>
 80031a0:	4a09      	ldr	r2, [pc, #36]	; (80031c8 <prvAddCurrentTaskToDelayedList+0xec>)
 80031a2:	68bb      	ldr	r3, [r7, #8]
 80031a4:	6013      	str	r3, [r2, #0]
 80031a6:	bf00      	nop
 80031a8:	3710      	adds	r7, #16
 80031aa:	46bd      	mov	sp, r7
 80031ac:	bd80      	pop	{r7, pc}
 80031ae:	bf00      	nop
 80031b0:	200003d8 	.word	0x200003d8
 80031b4:	200002fc 	.word	0x200002fc
 80031b8:	200003dc 	.word	0x200003dc
 80031bc:	200003c0 	.word	0x200003c0
 80031c0:	20000390 	.word	0x20000390
 80031c4:	2000038c 	.word	0x2000038c
 80031c8:	200003f4 	.word	0x200003f4

080031cc <pxPortInitialiseStack>:
 80031cc:	b480      	push	{r7}
 80031ce:	b085      	sub	sp, #20
 80031d0:	af00      	add	r7, sp, #0
 80031d2:	60f8      	str	r0, [r7, #12]
 80031d4:	60b9      	str	r1, [r7, #8]
 80031d6:	607a      	str	r2, [r7, #4]
 80031d8:	68fb      	ldr	r3, [r7, #12]
 80031da:	3b04      	subs	r3, #4
 80031dc:	60fb      	str	r3, [r7, #12]
 80031de:	68fb      	ldr	r3, [r7, #12]
 80031e0:	f04f 7280 	mov.w	r2, #16777216	; 0x1000000
 80031e4:	601a      	str	r2, [r3, #0]
 80031e6:	68fb      	ldr	r3, [r7, #12]
 80031e8:	3b04      	subs	r3, #4
 80031ea:	60fb      	str	r3, [r7, #12]
 80031ec:	68bb      	ldr	r3, [r7, #8]
 80031ee:	f023 0201 	bic.w	r2, r3, #1
 80031f2:	68fb      	ldr	r3, [r7, #12]
 80031f4:	601a      	str	r2, [r3, #0]
 80031f6:	68fb      	ldr	r3, [r7, #12]
 80031f8:	3b04      	subs	r3, #4
 80031fa:	60fb      	str	r3, [r7, #12]
 80031fc:	4a0c      	ldr	r2, [pc, #48]	; (8003230 <pxPortInitialiseStack+0x64>)
 80031fe:	68fb      	ldr	r3, [r7, #12]
 8003200:	601a      	str	r2, [r3, #0]
 8003202:	68fb      	ldr	r3, [r7, #12]
 8003204:	3b14      	subs	r3, #20
 8003206:	60fb      	str	r3, [r7, #12]
 8003208:	687a      	ldr	r2, [r7, #4]
 800320a:	68fb      	ldr	r3, [r7, #12]
 800320c:	601a      	str	r2, [r3, #0]
 800320e:	68fb      	ldr	r3, [r7, #12]
 8003210:	3b04      	subs	r3, #4
 8003212:	60fb      	str	r3, [r7, #12]
 8003214:	68fb      	ldr	r3, [r7, #12]
 8003216:	f06f 0202 	mvn.w	r2, #2
 800321a:	601a      	str	r2, [r3, #0]
 800321c:	68fb      	ldr	r3, [r7, #12]
 800321e:	3b20      	subs	r3, #32
 8003220:	60fb      	str	r3, [r7, #12]
 8003222:	68fb      	ldr	r3, [r7, #12]
 8003224:	4618      	mov	r0, r3
 8003226:	3714      	adds	r7, #20
 8003228:	46bd      	mov	sp, r7
 800322a:	f85d 7b04 	ldr.w	r7, [sp], #4
 800322e:	4770      	bx	lr
 8003230:	08003235 	.word	0x08003235

08003234 <prvTaskExitError>:
 8003234:	b480      	push	{r7}
 8003236:	b085      	sub	sp, #20
 8003238:	af00      	add	r7, sp, #0
 800323a:	2300      	movs	r3, #0
 800323c:	607b      	str	r3, [r7, #4]
 800323e:	4b11      	ldr	r3, [pc, #68]	; (8003284 <prvTaskExitError+0x50>)
 8003240:	681b      	ldr	r3, [r3, #0]
 8003242:	f1b3 3fff 	cmp.w	r3, #4294967295
 8003246:	d009      	beq.n	800325c <prvTaskExitError+0x28>
 8003248:	f04f 0350 	mov.w	r3, #80	; 0x50
 800324c:	f383 8811 	msr	BASEPRI, r3
 8003250:	f3bf 8f6f 	isb	sy
 8003254:	f3bf 8f4f 	dsb	sy
 8003258:	60fb      	str	r3, [r7, #12]
 800325a:	e7fe      	b.n	800325a <prvTaskExitError+0x26>
 800325c:	f04f 0350 	mov.w	r3, #80	; 0x50
 8003260:	f383 8811 	msr	BASEPRI, r3
 8003264:	f3bf 8f6f 	isb	sy
 8003268:	f3bf 8f4f 	dsb	sy
 800326c:	60bb      	str	r3, [r7, #8]
 800326e:	bf00      	nop
 8003270:	687b      	ldr	r3, [r7, #4]
 8003272:	2b00      	cmp	r3, #0
 8003274:	d0fc      	beq.n	8003270 <prvTaskExitError+0x3c>
 8003276:	bf00      	nop
 8003278:	3714      	adds	r7, #20
 800327a:	46bd      	mov	sp, r7
 800327c:	f85d 7b04 	ldr.w	r7, [sp], #4
 8003280:	4770      	bx	lr
 8003282:	bf00      	nop
 8003284:	2000000c 	.word	0x2000000c
	...

08003290 <SVC_Handler>:
 8003290:	4b07      	ldr	r3, [pc, #28]	; (80032b0 <pxCurrentTCBConst2>)
 8003292:	6819      	ldr	r1, [r3, #0]
 8003294:	6808      	ldr	r0, [r1, #0]
 8003296:	e8b0 4ff0 	ldmia.w	r0!, {r4, r5, r6, r7, r8, r9, sl, fp, lr}
 800329a:	f380 8809 	msr	PSP, r0
 800329e:	f3bf 8f6f 	isb	sy
 80032a2:	f04f 0000 	mov.w	r0, #0
 80032a6:	f380 8811 	msr	BASEPRI, r0
 80032aa:	4770      	bx	lr
 80032ac:	f3af 8000 	nop.w

080032b0 <pxCurrentTCBConst2>:
 80032b0:	200002fc 	.word	0x200002fc
 80032b4:	bf00      	nop
 80032b6:	bf00      	nop

080032b8 <prvPortStartFirstTask>:
 80032b8:	4808      	ldr	r0, [pc, #32]	; (80032dc <prvPortStartFirstTask+0x24>)
 80032ba:	6800      	ldr	r0, [r0, #0]
 80032bc:	6800      	ldr	r0, [r0, #0]
 80032be:	f380 8808 	msr	MSP, r0
 80032c2:	f04f 0000 	mov.w	r0, #0
 80032c6:	f380 8814 	msr	CONTROL, r0
 80032ca:	b662      	cpsie	i
 80032cc:	b661      	cpsie	f
 80032ce:	f3bf 8f4f 	dsb	sy
 80032d2:	f3bf 8f6f 	isb	sy
 80032d6:	df00      	svc	0
 80032d8:	bf00      	nop
 80032da:	bf00      	nop
 80032dc:	e000ed08 	.word	0xe000ed08

080032e0 <xPortStartScheduler>:
 80032e0:	b580      	push	{r7, lr}
 80032e2:	b086      	sub	sp, #24
 80032e4:	af00      	add	r7, sp, #0
 80032e6:	4b44      	ldr	r3, [pc, #272]	; (80033f8 <xPortStartScheduler+0x118>)
 80032e8:	681b      	ldr	r3, [r3, #0]
 80032ea:	4a44      	ldr	r2, [pc, #272]	; (80033fc <xPortStartScheduler+0x11c>)
 80032ec:	4293      	cmp	r3, r2
 80032ee:	d109      	bne.n	8003304 <xPortStartScheduler+0x24>
 80032f0:	f04f 0350 	mov.w	r3, #80	; 0x50
 80032f4:	f383 8811 	msr	BASEPRI, r3
 80032f8:	f3bf 8f6f 	isb	sy
 80032fc:	f3bf 8f4f 	dsb	sy
 8003300:	613b      	str	r3, [r7, #16]
 8003302:	e7fe      	b.n	8003302 <xPortStartScheduler+0x22>
 8003304:	4b3c      	ldr	r3, [pc, #240]	; (80033f8 <xPortStartScheduler+0x118>)
 8003306:	681b      	ldr	r3, [r3, #0]
 8003308:	4a3d      	ldr	r2, [pc, #244]	; (8003400 <xPortStartScheduler+0x120>)
 800330a:	4293      	cmp	r3, r2
 800330c:	d109      	bne.n	8003322 <xPortStartScheduler+0x42>
 800330e:	f04f 0350 	mov.w	r3, #80	; 0x50
 8003312:	f383 8811 	msr	BASEPRI, r3
 8003316:	f3bf 8f6f 	isb	sy
 800331a:	f3bf 8f4f 	dsb	sy
 800331e:	60fb      	str	r3, [r7, #12]
 8003320:	e7fe      	b.n	8003320 <xPortStartScheduler+0x40>
 8003322:	4b38      	ldr	r3, [pc, #224]	; (8003404 <xPortStartScheduler+0x124>)
 8003324:	617b      	str	r3, [r7, #20]
 8003326:	697b      	ldr	r3, [r7, #20]
 8003328:	781b      	ldrb	r3, [r3, #0]
 800332a:	b2db      	uxtb	r3, r3
 800332c:	607b      	str	r3, [r7, #4]
 800332e:	697b      	ldr	r3, [r7, #20]
 8003330:	22ff      	movs	r2, #255	; 0xff
 8003332:	701a      	strb	r2, [r3, #0]
 8003334:	697b      	ldr	r3, [r7, #20]
 8003336:	781b      	ldrb	r3, [r3, #0]
 8003338:	b2db      	uxtb	r3, r3
 800333a:	70fb      	strb	r3, [r7, #3]
 800333c:	78fb      	ldrb	r3, [r7, #3]
 800333e:	b2db      	uxtb	r3, r3
 8003340:	f003 0350 	and.w	r3, r3, #80	; 0x50
 8003344:	b2da      	uxtb	r2, r3
 8003346:	4b30      	ldr	r3, [pc, #192]	; (8003408 <xPortStartScheduler+0x128>)
 8003348:	701a      	strb	r2, [r3, #0]
 800334a:	4b30      	ldr	r3, [pc, #192]	; (800340c <xPortStartScheduler+0x12c>)
 800334c:	2207      	movs	r2, #7
 800334e:	601a      	str	r2, [r3, #0]
 8003350:	e009      	b.n	8003366 <xPortStartScheduler+0x86>
 8003352:	4b2e      	ldr	r3, [pc, #184]	; (800340c <xPortStartScheduler+0x12c>)
 8003354:	681b      	ldr	r3, [r3, #0]
 8003356:	3b01      	subs	r3, #1
 8003358:	4a2c      	ldr	r2, [pc, #176]	; (800340c <xPortStartScheduler+0x12c>)
 800335a:	6013      	str	r3, [r2, #0]
 800335c:	78fb      	ldrb	r3, [r7, #3]
 800335e:	b2db      	uxtb	r3, r3
 8003360:	005b      	lsls	r3, r3, #1
 8003362:	b2db      	uxtb	r3, r3
 8003364:	70fb      	strb	r3, [r7, #3]
 8003366:	78fb      	ldrb	r3, [r7, #3]
 8003368:	b2db      	uxtb	r3, r3
 800336a:	f003 0380 	and.w	r3, r3, #128	; 0x80
 800336e:	2b80      	cmp	r3, #128	; 0x80
 8003370:	d0ef      	beq.n	8003352 <xPortStartScheduler+0x72>
 8003372:	4b26      	ldr	r3, [pc, #152]	; (800340c <xPortStartScheduler+0x12c>)
 8003374:	681b      	ldr	r3, [r3, #0]
 8003376:	f1c3 0307 	rsb	r3, r3, #7
 800337a:	2b04      	cmp	r3, #4
 800337c:	d009      	beq.n	8003392 <xPortStartScheduler+0xb2>
 800337e:	f04f 0350 	mov.w	r3, #80	; 0x50
 8003382:	f383 8811 	msr	BASEPRI, r3
 8003386:	f3bf 8f6f 	isb	sy
 800338a:	f3bf 8f4f 	dsb	sy
 800338e:	60bb      	str	r3, [r7, #8]
 8003390:	e7fe      	b.n	8003390 <xPortStartScheduler+0xb0>
 8003392:	4b1e      	ldr	r3, [pc, #120]	; (800340c <xPortStartScheduler+0x12c>)
 8003394:	681b      	ldr	r3, [r3, #0]
 8003396:	021b      	lsls	r3, r3, #8
 8003398:	4a1c      	ldr	r2, [pc, #112]	; (800340c <xPortStartScheduler+0x12c>)
 800339a:	6013      	str	r3, [r2, #0]
 800339c:	4b1b      	ldr	r3, [pc, #108]	; (800340c <xPortStartScheduler+0x12c>)
 800339e:	681b      	ldr	r3, [r3, #0]
 80033a0:	f403 63e0 	and.w	r3, r3, #1792	; 0x700
 80033a4:	4a19      	ldr	r2, [pc, #100]	; (800340c <xPortStartScheduler+0x12c>)
 80033a6:	6013      	str	r3, [r2, #0]
 80033a8:	687b      	ldr	r3, [r7, #4]
 80033aa:	b2da      	uxtb	r2, r3
 80033ac:	697b      	ldr	r3, [r7, #20]
 80033ae:	701a      	strb	r2, [r3, #0]
 80033b0:	4b17      	ldr	r3, [pc, #92]	; (8003410 <xPortStartScheduler+0x130>)
 80033b2:	681b      	ldr	r3, [r3, #0]
 80033b4:	4a16      	ldr	r2, [pc, #88]	; (8003410 <xPortStartScheduler+0x130>)
 80033b6:	f443 0370 	orr.w	r3, r3, #15728640	; 0xf00000
 80033ba:	6013      	str	r3, [r2, #0]
 80033bc:	4b14      	ldr	r3, [pc, #80]	; (8003410 <xPortStartScheduler+0x130>)
 80033be:	681b      	ldr	r3, [r3, #0]
 80033c0:	4a13      	ldr	r2, [pc, #76]	; (8003410 <xPortStartScheduler+0x130>)
 80033c2:	f043 4370 	orr.w	r3, r3, #4026531840	; 0xf0000000
 80033c6:	6013      	str	r3, [r2, #0]
 80033c8:	f000 f8de 	bl	8003588 <vPortSetupTimerInterrupt>
 80033cc:	4b11      	ldr	r3, [pc, #68]	; (8003414 <xPortStartScheduler+0x134>)
 80033ce:	2200      	movs	r2, #0
 80033d0:	601a      	str	r2, [r3, #0]
 80033d2:	f000 f8fd 	bl	80035d0 <vPortEnableVFP>
 80033d6:	4b10      	ldr	r3, [pc, #64]	; (8003418 <xPortStartScheduler+0x138>)
 80033d8:	681b      	ldr	r3, [r3, #0]
 80033da:	4a0f      	ldr	r2, [pc, #60]	; (8003418 <xPortStartScheduler+0x138>)
 80033dc:	f043 4340 	orr.w	r3, r3, #3221225472	; 0xc0000000
 80033e0:	6013      	str	r3, [r2, #0]
 80033e2:	f7ff ff69 	bl	80032b8 <prvPortStartFirstTask>
 80033e6:	f7ff fd33 	bl	8002e50 <vTaskSwitchContext>
 80033ea:	f7ff ff23 	bl	8003234 <prvTaskExitError>
 80033ee:	2300      	movs	r3, #0
 80033f0:	4618      	mov	r0, r3
 80033f2:	3718      	adds	r7, #24
 80033f4:	46bd      	mov	sp, r7
 80033f6:	bd80      	pop	{r7, pc}
 80033f8:	e000ed00 	.word	0xe000ed00
 80033fc:	410fc271 	.word	0x410fc271
 8003400:	410fc270 	.word	0x410fc270
 8003404:	e000e400 	.word	0xe000e400
 8003408:	20000400 	.word	0x20000400
 800340c:	20000404 	.word	0x20000404
 8003410:	e000ed20 	.word	0xe000ed20
 8003414:	2000000c 	.word	0x2000000c
 8003418:	e000ef34 	.word	0xe000ef34

0800341c <vPortEnterCritical>:
 800341c:	b480      	push	{r7}
 800341e:	b083      	sub	sp, #12
 8003420:	af00      	add	r7, sp, #0
 8003422:	f04f 0350 	mov.w	r3, #80	; 0x50
 8003426:	f383 8811 	msr	BASEPRI, r3
 800342a:	f3bf 8f6f 	isb	sy
 800342e:	f3bf 8f4f 	dsb	sy
 8003432:	607b      	str	r3, [r7, #4]
 8003434:	4b0e      	ldr	r3, [pc, #56]	; (8003470 <vPortEnterCritical+0x54>)
 8003436:	681b      	ldr	r3, [r3, #0]
 8003438:	3301      	adds	r3, #1
 800343a:	4a0d      	ldr	r2, [pc, #52]	; (8003470 <vPortEnterCritical+0x54>)
 800343c:	6013      	str	r3, [r2, #0]
 800343e:	4b0c      	ldr	r3, [pc, #48]	; (8003470 <vPortEnterCritical+0x54>)
 8003440:	681b      	ldr	r3, [r3, #0]
 8003442:	2b01      	cmp	r3, #1
 8003444:	d10e      	bne.n	8003464 <vPortEnterCritical+0x48>
 8003446:	4b0b      	ldr	r3, [pc, #44]	; (8003474 <vPortEnterCritical+0x58>)
 8003448:	681b      	ldr	r3, [r3, #0]
 800344a:	b2db      	uxtb	r3, r3
 800344c:	2b00      	cmp	r3, #0
 800344e:	d009      	beq.n	8003464 <vPortEnterCritical+0x48>
 8003450:	f04f 0350 	mov.w	r3, #80	; 0x50
 8003454:	f383 8811 	msr	BASEPRI, r3
 8003458:	f3bf 8f6f 	isb	sy
 800345c:	f3bf 8f4f 	dsb	sy
 8003460:	603b      	str	r3, [r7, #0]
 8003462:	e7fe      	b.n	8003462 <vPortEnterCritical+0x46>
 8003464:	bf00      	nop
 8003466:	370c      	adds	r7, #12
 8003468:	46bd      	mov	sp, r7
 800346a:	f85d 7b04 	ldr.w	r7, [sp], #4
 800346e:	4770      	bx	lr
 8003470:	2000000c 	.word	0x2000000c
 8003474:	e000ed04 	.word	0xe000ed04

08003478 <vPortExitCritical>:
 8003478:	b480      	push	{r7}
 800347a:	b083      	sub	sp, #12
 800347c:	af00      	add	r7, sp, #0
 800347e:	4b11      	ldr	r3, [pc, #68]	; (80034c4 <vPortExitCritical+0x4c>)
 8003480:	681b      	ldr	r3, [r3, #0]
 8003482:	2b00      	cmp	r3, #0
 8003484:	d109      	bne.n	800349a <vPortExitCritical+0x22>
 8003486:	f04f 0350 	mov.w	r3, #80	; 0x50
 800348a:	f383 8811 	msr	BASEPRI, r3
 800348e:	f3bf 8f6f 	isb	sy
 8003492:	f3bf 8f4f 	dsb	sy
 8003496:	607b      	str	r3, [r7, #4]
 8003498:	e7fe      	b.n	8003498 <vPortExitCritical+0x20>
 800349a:	4b0a      	ldr	r3, [pc, #40]	; (80034c4 <vPortExitCritical+0x4c>)
 800349c:	681b      	ldr	r3, [r3, #0]
 800349e:	3b01      	subs	r3, #1
 80034a0:	4a08      	ldr	r2, [pc, #32]	; (80034c4 <vPortExitCritical+0x4c>)
 80034a2:	6013      	str	r3, [r2, #0]
 80034a4:	4b07      	ldr	r3, [pc, #28]	; (80034c4 <vPortExitCritical+0x4c>)
 80034a6:	681b      	ldr	r3, [r3, #0]
 80034a8:	2b00      	cmp	r3, #0
 80034aa:	d104      	bne.n	80034b6 <vPortExitCritical+0x3e>
 80034ac:	2300      	movs	r3, #0
 80034ae:	603b      	str	r3, [r7, #0]
 80034b0:	683b      	ldr	r3, [r7, #0]
 80034b2:	f383 8811 	msr	BASEPRI, r3
 80034b6:	bf00      	nop
 80034b8:	370c      	adds	r7, #12
 80034ba:	46bd      	mov	sp, r7
 80034bc:	f85d 7b04 	ldr.w	r7, [sp], #4
 80034c0:	4770      	bx	lr
 80034c2:	bf00      	nop
 80034c4:	2000000c 	.word	0x2000000c
	...

080034d0 <PendSV_Handler>:
 80034d0:	f3ef 8009 	mrs	r0, PSP
 80034d4:	f3bf 8f6f 	isb	sy
 80034d8:	4b15      	ldr	r3, [pc, #84]	; (8003530 <pxCurrentTCBConst>)
 80034da:	681a      	ldr	r2, [r3, #0]
 80034dc:	f01e 0f10 	tst.w	lr, #16
 80034e0:	bf08      	it	eq
 80034e2:	ed20 8a10 	vstmdbeq	r0!, {s16-s31}
 80034e6:	e920 4ff0 	stmdb	r0!, {r4, r5, r6, r7, r8, r9, sl, fp, lr}
 80034ea:	6010      	str	r0, [r2, #0]
 80034ec:	e92d 0009 	stmdb	sp!, {r0, r3}
 80034f0:	f04f 0050 	mov.w	r0, #80	; 0x50
 80034f4:	f380 8811 	msr	BASEPRI, r0
 80034f8:	f3bf 8f4f 	dsb	sy
 80034fc:	f3bf 8f6f 	isb	sy
 8003500:	f7ff fca6 	bl	8002e50 <vTaskSwitchContext>
 8003504:	f04f 0000 	mov.w	r0, #0
 8003508:	f380 8811 	msr	BASEPRI, r0
 800350c:	bc09      	pop	{r0, r3}
 800350e:	6819      	ldr	r1, [r3, #0]
 8003510:	6808      	ldr	r0, [r1, #0]
 8003512:	e8b0 4ff0 	ldmia.w	r0!, {r4, r5, r6, r7, r8, r9, sl, fp, lr}
 8003516:	f01e 0f10 	tst.w	lr, #16
 800351a:	bf08      	it	eq
 800351c:	ecb0 8a10 	vldmiaeq	r0!, {s16-s31}
 8003520:	f380 8809 	msr	PSP, r0
 8003524:	f3bf 8f6f 	isb	sy
 8003528:	4770      	bx	lr
 800352a:	bf00      	nop
 800352c:	f3af 8000 	nop.w

08003530 <pxCurrentTCBConst>:
 8003530:	200002fc 	.word	0x200002fc
 8003534:	bf00      	nop
 8003536:	bf00      	nop

08003538 <xPortSysTickHandler>:
 8003538:	b580      	push	{r7, lr}
 800353a:	b082      	sub	sp, #8
 800353c:	af00      	add	r7, sp, #0
 800353e:	f04f 0350 	mov.w	r3, #80	; 0x50
 8003542:	f383 8811 	msr	BASEPRI, r3
 8003546:	f3bf 8f6f 	isb	sy
 800354a:	f3bf 8f4f 	dsb	sy
 800354e:	607b      	str	r3, [r7, #4]
 8003550:	f001 fb42 	bl	8004bd8 <SEGGER_SYSVIEW_RecordEnterISR>
 8003554:	f7ff fbbc 	bl	8002cd0 <xTaskIncrementTick>
 8003558:	4603      	mov	r3, r0
 800355a:	2b00      	cmp	r3, #0
 800355c:	d006      	beq.n	800356c <xPortSysTickHandler+0x34>
 800355e:	f001 fb99 	bl	8004c94 <SEGGER_SYSVIEW_RecordExitISRToScheduler>
 8003562:	4b08      	ldr	r3, [pc, #32]	; (8003584 <xPortSysTickHandler+0x4c>)
 8003564:	f04f 5280 	mov.w	r2, #268435456	; 0x10000000
 8003568:	601a      	str	r2, [r3, #0]
 800356a:	e001      	b.n	8003570 <xPortSysTickHandler+0x38>
 800356c:	f001 fb76 	bl	8004c5c <SEGGER_SYSVIEW_RecordExitISR>
 8003570:	2300      	movs	r3, #0
 8003572:	603b      	str	r3, [r7, #0]
 8003574:	683b      	ldr	r3, [r7, #0]
 8003576:	f383 8811 	msr	BASEPRI, r3
 800357a:	bf00      	nop
 800357c:	3708      	adds	r7, #8
 800357e:	46bd      	mov	sp, r7
 8003580:	bd80      	pop	{r7, pc}
 8003582:	bf00      	nop
 8003584:	e000ed04 	.word	0xe000ed04

08003588 <vPortSetupTimerInterrupt>:
 8003588:	b480      	push	{r7}
 800358a:	af00      	add	r7, sp, #0
 800358c:	4b0b      	ldr	r3, [pc, #44]	; (80035bc <vPortSetupTimerInterrupt+0x34>)
 800358e:	2200      	movs	r2, #0
 8003590:	601a      	str	r2, [r3, #0]
 8003592:	4b0b      	ldr	r3, [pc, #44]	; (80035c0 <vPortSetupTimerInterrupt+0x38>)
 8003594:	2200      	movs	r2, #0
 8003596:	601a      	str	r2, [r3, #0]
 8003598:	4b0a      	ldr	r3, [pc, #40]	; (80035c4 <vPortSetupTimerInterrupt+0x3c>)
 800359a:	681b      	ldr	r3, [r3, #0]
 800359c:	4a0a      	ldr	r2, [pc, #40]	; (80035c8 <vPortSetupTimerInterrupt+0x40>)
 800359e:	fba2 2303 	umull	r2, r3, r2, r3
 80035a2:	099b      	lsrs	r3, r3, #6
 80035a4:	4a09      	ldr	r2, [pc, #36]	; (80035cc <vPortSetupTimerInterrupt+0x44>)
 80035a6:	3b01      	subs	r3, #1
 80035a8:	6013      	str	r3, [r2, #0]
 80035aa:	4b04      	ldr	r3, [pc, #16]	; (80035bc <vPortSetupTimerInterrupt+0x34>)
 80035ac:	2207      	movs	r2, #7
 80035ae:	601a      	str	r2, [r3, #0]
 80035b0:	bf00      	nop
 80035b2:	46bd      	mov	sp, r7
 80035b4:	f85d 7b04 	ldr.w	r7, [sp], #4
 80035b8:	4770      	bx	lr
 80035ba:	bf00      	nop
 80035bc:	e000e010 	.word	0xe000e010
 80035c0:	e000e018 	.word	0xe000e018
 80035c4:	20000000 	.word	0x20000000
 80035c8:	10624dd3 	.word	0x10624dd3
 80035cc:	e000e014 	.word	0xe000e014

080035d0 <vPortEnableVFP>:
 80035d0:	f8df 000c 	ldr.w	r0, [pc, #12]	; 80035e0 <vPortEnableVFP+0x10>
 80035d4:	6801      	ldr	r1, [r0, #0]
 80035d6:	f441 0170 	orr.w	r1, r1, #15728640	; 0xf00000
 80035da:	6001      	str	r1, [r0, #0]
 80035dc:	4770      	bx	lr
 80035de:	bf00      	nop
 80035e0:	e000ed88 	.word	0xe000ed88

080035e4 <vPortValidateInterruptPriority>:
 80035e4:	b580      	push	{r7, lr}
 80035e6:	b084      	sub	sp, #16
 80035e8:	af00      	add	r7, sp, #0
 80035ea:	f000 f839 	bl	8003660 <vSetVarulMaxPRIGROUPValue>
 80035ee:	f3ef 8305 	mrs	r3, IPSR
 80035f2:	60fb      	str	r3, [r7, #12]
 80035f4:	68fb      	ldr	r3, [r7, #12]
 80035f6:	2b0f      	cmp	r3, #15
 80035f8:	d913      	bls.n	8003622 <vPortValidateInterruptPriority+0x3e>
 80035fa:	4a15      	ldr	r2, [pc, #84]	; (8003650 <vPortValidateInterruptPriority+0x6c>)
 80035fc:	68fb      	ldr	r3, [r7, #12]
 80035fe:	4413      	add	r3, r2
 8003600:	781b      	ldrb	r3, [r3, #0]
 8003602:	72fb      	strb	r3, [r7, #11]
 8003604:	4b13      	ldr	r3, [pc, #76]	; (8003654 <vPortValidateInterruptPriority+0x70>)
 8003606:	781b      	ldrb	r3, [r3, #0]
 8003608:	7afa      	ldrb	r2, [r7, #11]
 800360a:	429a      	cmp	r2, r3
 800360c:	d209      	bcs.n	8003622 <vPortValidateInterruptPriority+0x3e>
 800360e:	f04f 0350 	mov.w	r3, #80	; 0x50
 8003612:	f383 8811 	msr	BASEPRI, r3
 8003616:	f3bf 8f6f 	isb	sy
 800361a:	f3bf 8f4f 	dsb	sy
 800361e:	607b      	str	r3, [r7, #4]
 8003620:	e7fe      	b.n	8003620 <vPortValidateInterruptPriority+0x3c>
 8003622:	4b0d      	ldr	r3, [pc, #52]	; (8003658 <vPortValidateInterruptPriority+0x74>)
 8003624:	681b      	ldr	r3, [r3, #0]
 8003626:	f403 62e0 	and.w	r2, r3, #1792	; 0x700
 800362a:	4b0c      	ldr	r3, [pc, #48]	; (800365c <vPortValidateInterruptPriority+0x78>)
 800362c:	681b      	ldr	r3, [r3, #0]
 800362e:	429a      	cmp	r2, r3
 8003630:	d909      	bls.n	8003646 <vPortValidateInterruptPriority+0x62>
 8003632:	f04f 0350 	mov.w	r3, #80	; 0x50
 8003636:	f383 8811 	msr	BASEPRI, r3
 800363a:	f3bf 8f6f 	isb	sy
 800363e:	f3bf 8f4f 	dsb	sy
 8003642:	603b      	str	r3, [r7, #0]
 8003644:	e7fe      	b.n	8003644 <vPortValidateInterruptPriority+0x60>
 8003646:	bf00      	nop
 8003648:	3710      	adds	r7, #16
 800364a:	46bd      	mov	sp, r7
 800364c:	bd80      	pop	{r7, pc}
 800364e:	bf00      	nop
 8003650:	e000e3f0 	.word	0xe000e3f0
 8003654:	20000400 	.word	0x20000400
 8003658:	e000ed0c 	.word	0xe000ed0c
 800365c:	20000404 	.word	0x20000404

08003660 <vSetVarulMaxPRIGROUPValue>:
 8003660:	b480      	push	{r7}
 8003662:	b085      	sub	sp, #20
 8003664:	af00      	add	r7, sp, #0
 8003666:	4b1f      	ldr	r3, [pc, #124]	; (80036e4 <vSetVarulMaxPRIGROUPValue+0x84>)
 8003668:	60fb      	str	r3, [r7, #12]
 800366a:	68fb      	ldr	r3, [r7, #12]
 800366c:	22ff      	movs	r2, #255	; 0xff
 800366e:	701a      	strb	r2, [r3, #0]
 8003670:	68fb      	ldr	r3, [r7, #12]
 8003672:	781b      	ldrb	r3, [r3, #0]
 8003674:	b2db      	uxtb	r3, r3
 8003676:	71fb      	strb	r3, [r7, #7]
 8003678:	4b1b      	ldr	r3, [pc, #108]	; (80036e8 <vSetVarulMaxPRIGROUPValue+0x88>)
 800367a:	2207      	movs	r2, #7
 800367c:	601a      	str	r2, [r3, #0]
 800367e:	e009      	b.n	8003694 <vSetVarulMaxPRIGROUPValue+0x34>
 8003680:	4b19      	ldr	r3, [pc, #100]	; (80036e8 <vSetVarulMaxPRIGROUPValue+0x88>)
 8003682:	681b      	ldr	r3, [r3, #0]
 8003684:	3b01      	subs	r3, #1
 8003686:	4a18      	ldr	r2, [pc, #96]	; (80036e8 <vSetVarulMaxPRIGROUPValue+0x88>)
 8003688:	6013      	str	r3, [r2, #0]
 800368a:	79fb      	ldrb	r3, [r7, #7]
 800368c:	b2db      	uxtb	r3, r3
 800368e:	005b      	lsls	r3, r3, #1
 8003690:	b2db      	uxtb	r3, r3
 8003692:	71fb      	strb	r3, [r7, #7]
 8003694:	79fb      	ldrb	r3, [r7, #7]
 8003696:	b2db      	uxtb	r3, r3
 8003698:	f003 0380 	and.w	r3, r3, #128	; 0x80
 800369c:	2b80      	cmp	r3, #128	; 0x80
 800369e:	d0ef      	beq.n	8003680 <vSetVarulMaxPRIGROUPValue+0x20>
 80036a0:	4b11      	ldr	r3, [pc, #68]	; (80036e8 <vSetVarulMaxPRIGROUPValue+0x88>)
 80036a2:	681b      	ldr	r3, [r3, #0]
 80036a4:	f1c3 0307 	rsb	r3, r3, #7
 80036a8:	2b04      	cmp	r3, #4
 80036aa:	d009      	beq.n	80036c0 <vSetVarulMaxPRIGROUPValue+0x60>
 80036ac:	f04f 0350 	mov.w	r3, #80	; 0x50
 80036b0:	f383 8811 	msr	BASEPRI, r3
 80036b4:	f3bf 8f6f 	isb	sy
 80036b8:	f3bf 8f4f 	dsb	sy
 80036bc:	60bb      	str	r3, [r7, #8]
 80036be:	e7fe      	b.n	80036be <vSetVarulMaxPRIGROUPValue+0x5e>
 80036c0:	4b09      	ldr	r3, [pc, #36]	; (80036e8 <vSetVarulMaxPRIGROUPValue+0x88>)
 80036c2:	681b      	ldr	r3, [r3, #0]
 80036c4:	021b      	lsls	r3, r3, #8
 80036c6:	4a08      	ldr	r2, [pc, #32]	; (80036e8 <vSetVarulMaxPRIGROUPValue+0x88>)
 80036c8:	6013      	str	r3, [r2, #0]
 80036ca:	4b07      	ldr	r3, [pc, #28]	; (80036e8 <vSetVarulMaxPRIGROUPValue+0x88>)
 80036cc:	681b      	ldr	r3, [r3, #0]
 80036ce:	f403 63e0 	and.w	r3, r3, #1792	; 0x700
 80036d2:	4a05      	ldr	r2, [pc, #20]	; (80036e8 <vSetVarulMaxPRIGROUPValue+0x88>)
 80036d4:	6013      	str	r3, [r2, #0]
 80036d6:	bf00      	nop
 80036d8:	3714      	adds	r7, #20
 80036da:	46bd      	mov	sp, r7
 80036dc:	f85d 7b04 	ldr.w	r7, [sp], #4
 80036e0:	4770      	bx	lr
 80036e2:	bf00      	nop
 80036e4:	e000e400 	.word	0xe000e400
 80036e8:	20000404 	.word	0x20000404

080036ec <pvPortMalloc>:
 80036ec:	b580      	push	{r7, lr}
 80036ee:	b08a      	sub	sp, #40	; 0x28
 80036f0:	af00      	add	r7, sp, #0
 80036f2:	6078      	str	r0, [r7, #4]
 80036f4:	2300      	movs	r3, #0
 80036f6:	61fb      	str	r3, [r7, #28]
 80036f8:	f7ff fa2a 	bl	8002b50 <vTaskSuspendAll>
 80036fc:	4b59      	ldr	r3, [pc, #356]	; (8003864 <pvPortMalloc+0x178>)
 80036fe:	681b      	ldr	r3, [r3, #0]
 8003700:	2b00      	cmp	r3, #0
 8003702:	d101      	bne.n	8003708 <pvPortMalloc+0x1c>
 8003704:	f000 f910 	bl	8003928 <prvHeapInit>
 8003708:	4b57      	ldr	r3, [pc, #348]	; (8003868 <pvPortMalloc+0x17c>)
 800370a:	681a      	ldr	r2, [r3, #0]
 800370c:	687b      	ldr	r3, [r7, #4]
 800370e:	4013      	ands	r3, r2
 8003710:	2b00      	cmp	r3, #0
 8003712:	f040 808c 	bne.w	800382e <pvPortMalloc+0x142>
 8003716:	687b      	ldr	r3, [r7, #4]
 8003718:	2b00      	cmp	r3, #0
 800371a:	d01c      	beq.n	8003756 <pvPortMalloc+0x6a>
 800371c:	2208      	movs	r2, #8
 800371e:	687b      	ldr	r3, [r7, #4]
 8003720:	4413      	add	r3, r2
 8003722:	607b      	str	r3, [r7, #4]
 8003724:	687b      	ldr	r3, [r7, #4]
 8003726:	f003 0307 	and.w	r3, r3, #7
 800372a:	2b00      	cmp	r3, #0
 800372c:	d013      	beq.n	8003756 <pvPortMalloc+0x6a>
 800372e:	687b      	ldr	r3, [r7, #4]
 8003730:	f023 0307 	bic.w	r3, r3, #7
 8003734:	3308      	adds	r3, #8
 8003736:	607b      	str	r3, [r7, #4]
 8003738:	687b      	ldr	r3, [r7, #4]
 800373a:	f003 0307 	and.w	r3, r3, #7
 800373e:	2b00      	cmp	r3, #0
 8003740:	d009      	beq.n	8003756 <pvPortMalloc+0x6a>
 8003742:	f04f 0350 	mov.w	r3, #80	; 0x50
 8003746:	f383 8811 	msr	BASEPRI, r3
 800374a:	f3bf 8f6f 	isb	sy
 800374e:	f3bf 8f4f 	dsb	sy
 8003752:	617b      	str	r3, [r7, #20]
 8003754:	e7fe      	b.n	8003754 <pvPortMalloc+0x68>
 8003756:	687b      	ldr	r3, [r7, #4]
 8003758:	2b00      	cmp	r3, #0
 800375a:	d068      	beq.n	800382e <pvPortMalloc+0x142>
 800375c:	4b43      	ldr	r3, [pc, #268]	; (800386c <pvPortMalloc+0x180>)
 800375e:	681b      	ldr	r3, [r3, #0]
 8003760:	687a      	ldr	r2, [r7, #4]
 8003762:	429a      	cmp	r2, r3
 8003764:	d863      	bhi.n	800382e <pvPortMalloc+0x142>
 8003766:	4b42      	ldr	r3, [pc, #264]	; (8003870 <pvPortMalloc+0x184>)
 8003768:	623b      	str	r3, [r7, #32]
 800376a:	4b41      	ldr	r3, [pc, #260]	; (8003870 <pvPortMalloc+0x184>)
 800376c:	681b      	ldr	r3, [r3, #0]
 800376e:	627b      	str	r3, [r7, #36]	; 0x24
 8003770:	e004      	b.n	800377c <pvPortMalloc+0x90>
 8003772:	6a7b      	ldr	r3, [r7, #36]	; 0x24
 8003774:	623b      	str	r3, [r7, #32]
 8003776:	6a7b      	ldr	r3, [r7, #36]	; 0x24
 8003778:	681b      	ldr	r3, [r3, #0]
 800377a:	627b      	str	r3, [r7, #36]	; 0x24
 800377c:	6a7b      	ldr	r3, [r7, #36]	; 0x24
 800377e:	685b      	ldr	r3, [r3, #4]
 8003780:	687a      	ldr	r2, [r7, #4]
 8003782:	429a      	cmp	r2, r3
 8003784:	d903      	bls.n	800378e <pvPortMalloc+0xa2>
 8003786:	6a7b      	ldr	r3, [r7, #36]	; 0x24
 8003788:	681b      	ldr	r3, [r3, #0]
 800378a:	2b00      	cmp	r3, #0
 800378c:	d1f1      	bne.n	8003772 <pvPortMalloc+0x86>
 800378e:	4b35      	ldr	r3, [pc, #212]	; (8003864 <pvPortMalloc+0x178>)
 8003790:	681b      	ldr	r3, [r3, #0]
 8003792:	6a7a      	ldr	r2, [r7, #36]	; 0x24
 8003794:	429a      	cmp	r2, r3
 8003796:	d04a      	beq.n	800382e <pvPortMalloc+0x142>
 8003798:	6a3b      	ldr	r3, [r7, #32]
 800379a:	681b      	ldr	r3, [r3, #0]
 800379c:	2208      	movs	r2, #8
 800379e:	4413      	add	r3, r2
 80037a0:	61fb      	str	r3, [r7, #28]
 80037a2:	6a7b      	ldr	r3, [r7, #36]	; 0x24
 80037a4:	681a      	ldr	r2, [r3, #0]
 80037a6:	6a3b      	ldr	r3, [r7, #32]
 80037a8:	601a      	str	r2, [r3, #0]
 80037aa:	6a7b      	ldr	r3, [r7, #36]	; 0x24
 80037ac:	685a      	ldr	r2, [r3, #4]
 80037ae:	687b      	ldr	r3, [r7, #4]
 80037b0:	1ad2      	subs	r2, r2, r3
 80037b2:	2308      	movs	r3, #8
 80037b4:	005b      	lsls	r3, r3, #1
 80037b6:	429a      	cmp	r2, r3
 80037b8:	d91e      	bls.n	80037f8 <pvPortMalloc+0x10c>
 80037ba:	6a7a      	ldr	r2, [r7, #36]	; 0x24
 80037bc:	687b      	ldr	r3, [r7, #4]
 80037be:	4413      	add	r3, r2
 80037c0:	61bb      	str	r3, [r7, #24]
 80037c2:	69bb      	ldr	r3, [r7, #24]
 80037c4:	f003 0307 	and.w	r3, r3, #7
 80037c8:	2b00      	cmp	r3, #0
 80037ca:	d009      	beq.n	80037e0 <pvPortMalloc+0xf4>
 80037cc:	f04f 0350 	mov.w	r3, #80	; 0x50
 80037d0:	f383 8811 	msr	BASEPRI, r3
 80037d4:	f3bf 8f6f 	isb	sy
 80037d8:	f3bf 8f4f 	dsb	sy
 80037dc:	613b      	str	r3, [r7, #16]
 80037de:	e7fe      	b.n	80037de <pvPortMalloc+0xf2>
 80037e0:	6a7b      	ldr	r3, [r7, #36]	; 0x24
 80037e2:	685a      	ldr	r2, [r3, #4]
 80037e4:	687b      	ldr	r3, [r7, #4]
 80037e6:	1ad2      	subs	r2, r2, r3
 80037e8:	69bb      	ldr	r3, [r7, #24]
 80037ea:	605a      	str	r2, [r3, #4]
 80037ec:	6a7b      	ldr	r3, [r7, #36]	; 0x24
 80037ee:	687a      	ldr	r2, [r7, #4]
 80037f0:	605a      	str	r2, [r3, #4]
 80037f2:	69b8      	ldr	r0, [r7, #24]
 80037f4:	f000 f8fa 	bl	80039ec <prvInsertBlockIntoFreeList>
 80037f8:	4b1c      	ldr	r3, [pc, #112]	; (800386c <pvPortMalloc+0x180>)
 80037fa:	681a      	ldr	r2, [r3, #0]
 80037fc:	6a7b      	ldr	r3, [r7, #36]	; 0x24
 80037fe:	685b      	ldr	r3, [r3, #4]
 8003800:	1ad3      	subs	r3, r2, r3
 8003802:	4a1a      	ldr	r2, [pc, #104]	; (800386c <pvPortMalloc+0x180>)
 8003804:	6013      	str	r3, [r2, #0]
 8003806:	4b19      	ldr	r3, [pc, #100]	; (800386c <pvPortMalloc+0x180>)
 8003808:	681a      	ldr	r2, [r3, #0]
 800380a:	4b1a      	ldr	r3, [pc, #104]	; (8003874 <pvPortMalloc+0x188>)
 800380c:	681b      	ldr	r3, [r3, #0]
 800380e:	429a      	cmp	r2, r3
 8003810:	d203      	bcs.n	800381a <pvPortMalloc+0x12e>
 8003812:	4b16      	ldr	r3, [pc, #88]	; (800386c <pvPortMalloc+0x180>)
 8003814:	681b      	ldr	r3, [r3, #0]
 8003816:	4a17      	ldr	r2, [pc, #92]	; (8003874 <pvPortMalloc+0x188>)
 8003818:	6013      	str	r3, [r2, #0]
 800381a:	6a7b      	ldr	r3, [r7, #36]	; 0x24
 800381c:	685a      	ldr	r2, [r3, #4]
 800381e:	4b12      	ldr	r3, [pc, #72]	; (8003868 <pvPortMalloc+0x17c>)
 8003820:	681b      	ldr	r3, [r3, #0]
 8003822:	431a      	orrs	r2, r3
 8003824:	6a7b      	ldr	r3, [r7, #36]	; 0x24
 8003826:	605a      	str	r2, [r3, #4]
 8003828:	6a7b      	ldr	r3, [r7, #36]	; 0x24
 800382a:	2200      	movs	r2, #0
 800382c:	601a      	str	r2, [r3, #0]
 800382e:	f7ff f99d 	bl	8002b6c <xTaskResumeAll>
 8003832:	69fb      	ldr	r3, [r7, #28]
 8003834:	2b00      	cmp	r3, #0
 8003836:	d101      	bne.n	800383c <pvPortMalloc+0x150>
 8003838:	f7fe fe6f 	bl	800251a <vApplicationMallocFailedHook>
 800383c:	69fb      	ldr	r3, [r7, #28]
 800383e:	f003 0307 	and.w	r3, r3, #7
 8003842:	2b00      	cmp	r3, #0
 8003844:	d009      	beq.n	800385a <pvPortMalloc+0x16e>
 8003846:	f04f 0350 	mov.w	r3, #80	; 0x50
 800384a:	f383 8811 	msr	BASEPRI, r3
 800384e:	f3bf 8f6f 	isb	sy
 8003852:	f3bf 8f4f 	dsb	sy
 8003856:	60fb      	str	r3, [r7, #12]
 8003858:	e7fe      	b.n	8003858 <pvPortMalloc+0x16c>
 800385a:	69fb      	ldr	r3, [r7, #28]
 800385c:	4618      	mov	r0, r3
 800385e:	3728      	adds	r7, #40	; 0x28
 8003860:	46bd      	mov	sp, r7
 8003862:	bd80      	pop	{r7, pc}
 8003864:	20013010 	.word	0x20013010
 8003868:	2001301c 	.word	0x2001301c
 800386c:	20013014 	.word	0x20013014
 8003870:	20013008 	.word	0x20013008
 8003874:	20013018 	.word	0x20013018

08003878 <vPortFree>:
 8003878:	b580      	push	{r7, lr}
 800387a:	b086      	sub	sp, #24
 800387c:	af00      	add	r7, sp, #0
 800387e:	6078      	str	r0, [r7, #4]
 8003880:	687b      	ldr	r3, [r7, #4]
 8003882:	617b      	str	r3, [r7, #20]
 8003884:	687b      	ldr	r3, [r7, #4]
 8003886:	2b00      	cmp	r3, #0
 8003888:	d046      	beq.n	8003918 <vPortFree+0xa0>
 800388a:	2308      	movs	r3, #8
 800388c:	425b      	negs	r3, r3
 800388e:	697a      	ldr	r2, [r7, #20]
 8003890:	4413      	add	r3, r2
 8003892:	617b      	str	r3, [r7, #20]
 8003894:	697b      	ldr	r3, [r7, #20]
 8003896:	613b      	str	r3, [r7, #16]
 8003898:	693b      	ldr	r3, [r7, #16]
 800389a:	685a      	ldr	r2, [r3, #4]
 800389c:	4b20      	ldr	r3, [pc, #128]	; (8003920 <vPortFree+0xa8>)
 800389e:	681b      	ldr	r3, [r3, #0]
 80038a0:	4013      	ands	r3, r2
 80038a2:	2b00      	cmp	r3, #0
 80038a4:	d109      	bne.n	80038ba <vPortFree+0x42>
 80038a6:	f04f 0350 	mov.w	r3, #80	; 0x50
 80038aa:	f383 8811 	msr	BASEPRI, r3
 80038ae:	f3bf 8f6f 	isb	sy
 80038b2:	f3bf 8f4f 	dsb	sy
 80038b6:	60fb      	str	r3, [r7, #12]
 80038b8:	e7fe      	b.n	80038b8 <vPortFree+0x40>
 80038ba:	693b      	ldr	r3, [r7, #16]
 80038bc:	681b      	ldr	r3, [r3, #0]
 80038be:	2b00      	cmp	r3, #0
 80038c0:	d009      	beq.n	80038d6 <vPortFree+0x5e>
 80038c2:	f04f 0350 	mov.w	r3, #80	; 0x50
 80038c6:	f383 8811 	msr	BASEPRI, r3
 80038ca:	f3bf 8f6f 	isb	sy
 80038ce:	f3bf 8f4f 	dsb	sy
 80038d2:	60bb      	str	r3, [r7, #8]
 80038d4:	e7fe      	b.n	80038d4 <vPortFree+0x5c>
 80038d6:	693b      	ldr	r3, [r7, #16]
 80038d8:	685a      	ldr	r2, [r3, #4]
 80038da:	4b11      	ldr	r3, [pc, #68]	; (8003920 <vPortFree+0xa8>)
 80038dc:	681b      	ldr	r3, [r3, #0]
 80038de:	4013      	ands	r3, r2
 80038e0:	2b00      	cmp	r3, #0
 80038e2:	d019      	beq.n	8003918 <vPortFree+0xa0>
 80038e4:	693b      	ldr	r3, [r7, #16]
 80038e6:	681b      	ldr	r3, [r3, #0]
 80038e8:	2b00      	cmp	r3, #0
 80038ea:	d115      	bne.n	8003918 <vPortFree+0xa0>
 80038ec:	693b      	ldr	r3, [r7, #16]
 80038ee:	685a      	ldr	r2, [r3, #4]
 80038f0:	4b0b      	ldr	r3, [pc, #44]	; (8003920 <vPortFree+0xa8>)
 80038f2:	681b      	ldr	r3, [r3, #0]
 80038f4:	43db      	mvns	r3, r3
 80038f6:	401a      	ands	r2, r3
 80038f8:	693b      	ldr	r3, [r7, #16]
 80038fa:	605a      	str	r2, [r3, #4]
 80038fc:	f7ff f928 	bl	8002b50 <vTaskSuspendAll>
 8003900:	693b      	ldr	r3, [r7, #16]
 8003902:	685a      	ldr	r2, [r3, #4]
 8003904:	4b07      	ldr	r3, [pc, #28]	; (8003924 <vPortFree+0xac>)
 8003906:	681b      	ldr	r3, [r3, #0]
 8003908:	4413      	add	r3, r2
 800390a:	4a06      	ldr	r2, [pc, #24]	; (8003924 <vPortFree+0xac>)
 800390c:	6013      	str	r3, [r2, #0]
 800390e:	6938      	ldr	r0, [r7, #16]
 8003910:	f000 f86c 	bl	80039ec <prvInsertBlockIntoFreeList>
 8003914:	f7ff f92a 	bl	8002b6c <xTaskResumeAll>
 8003918:	bf00      	nop
 800391a:	3718      	adds	r7, #24
 800391c:	46bd      	mov	sp, r7
 800391e:	bd80      	pop	{r7, pc}
 8003920:	2001301c 	.word	0x2001301c
 8003924:	20013014 	.word	0x20013014

08003928 <prvHeapInit>:
 8003928:	b480      	push	{r7}
 800392a:	b085      	sub	sp, #20
 800392c:	af00      	add	r7, sp, #0
 800392e:	f44f 3396 	mov.w	r3, #76800	; 0x12c00
 8003932:	60bb      	str	r3, [r7, #8]
 8003934:	4b27      	ldr	r3, [pc, #156]	; (80039d4 <prvHeapInit+0xac>)
 8003936:	60fb      	str	r3, [r7, #12]
 8003938:	68fb      	ldr	r3, [r7, #12]
 800393a:	f003 0307 	and.w	r3, r3, #7
 800393e:	2b00      	cmp	r3, #0
 8003940:	d00c      	beq.n	800395c <prvHeapInit+0x34>
 8003942:	68fb      	ldr	r3, [r7, #12]
 8003944:	3307      	adds	r3, #7
 8003946:	60fb      	str	r3, [r7, #12]
 8003948:	68fb      	ldr	r3, [r7, #12]
 800394a:	f023 0307 	bic.w	r3, r3, #7
 800394e:	60fb      	str	r3, [r7, #12]
 8003950:	68ba      	ldr	r2, [r7, #8]
 8003952:	68fb      	ldr	r3, [r7, #12]
 8003954:	1ad3      	subs	r3, r2, r3
 8003956:	4a1f      	ldr	r2, [pc, #124]	; (80039d4 <prvHeapInit+0xac>)
 8003958:	4413      	add	r3, r2
 800395a:	60bb      	str	r3, [r7, #8]
 800395c:	68fb      	ldr	r3, [r7, #12]
 800395e:	607b      	str	r3, [r7, #4]
 8003960:	4a1d      	ldr	r2, [pc, #116]	; (80039d8 <prvHeapInit+0xb0>)
 8003962:	687b      	ldr	r3, [r7, #4]
 8003964:	6013      	str	r3, [r2, #0]
 8003966:	4b1c      	ldr	r3, [pc, #112]	; (80039d8 <prvHeapInit+0xb0>)
 8003968:	2200      	movs	r2, #0
 800396a:	605a      	str	r2, [r3, #4]
 800396c:	687b      	ldr	r3, [r7, #4]
 800396e:	68ba      	ldr	r2, [r7, #8]
 8003970:	4413      	add	r3, r2
 8003972:	60fb      	str	r3, [r7, #12]
 8003974:	2208      	movs	r2, #8
 8003976:	68fb      	ldr	r3, [r7, #12]
 8003978:	1a9b      	subs	r3, r3, r2
 800397a:	60fb      	str	r3, [r7, #12]
 800397c:	68fb      	ldr	r3, [r7, #12]
 800397e:	f023 0307 	bic.w	r3, r3, #7
 8003982:	60fb      	str	r3, [r7, #12]
 8003984:	68fb      	ldr	r3, [r7, #12]
 8003986:	4a15      	ldr	r2, [pc, #84]	; (80039dc <prvHeapInit+0xb4>)
 8003988:	6013      	str	r3, [r2, #0]
 800398a:	4b14      	ldr	r3, [pc, #80]	; (80039dc <prvHeapInit+0xb4>)
 800398c:	681b      	ldr	r3, [r3, #0]
 800398e:	2200      	movs	r2, #0
 8003990:	605a      	str	r2, [r3, #4]
 8003992:	4b12      	ldr	r3, [pc, #72]	; (80039dc <prvHeapInit+0xb4>)
 8003994:	681b      	ldr	r3, [r3, #0]
 8003996:	2200      	movs	r2, #0
 8003998:	601a      	str	r2, [r3, #0]
 800399a:	687b      	ldr	r3, [r7, #4]
 800399c:	603b      	str	r3, [r7, #0]
 800399e:	683b      	ldr	r3, [r7, #0]
 80039a0:	68fa      	ldr	r2, [r7, #12]
 80039a2:	1ad2      	subs	r2, r2, r3
 80039a4:	683b      	ldr	r3, [r7, #0]
 80039a6:	605a      	str	r2, [r3, #4]
 80039a8:	4b0c      	ldr	r3, [pc, #48]	; (80039dc <prvHeapInit+0xb4>)
 80039aa:	681a      	ldr	r2, [r3, #0]
 80039ac:	683b      	ldr	r3, [r7, #0]
 80039ae:	601a      	str	r2, [r3, #0]
 80039b0:	683b      	ldr	r3, [r7, #0]
 80039b2:	685b      	ldr	r3, [r3, #4]
 80039b4:	4a0a      	ldr	r2, [pc, #40]	; (80039e0 <prvHeapInit+0xb8>)
 80039b6:	6013      	str	r3, [r2, #0]
 80039b8:	683b      	ldr	r3, [r7, #0]
 80039ba:	685b      	ldr	r3, [r3, #4]
 80039bc:	4a09      	ldr	r2, [pc, #36]	; (80039e4 <prvHeapInit+0xbc>)
 80039be:	6013      	str	r3, [r2, #0]
 80039c0:	4b09      	ldr	r3, [pc, #36]	; (80039e8 <prvHeapInit+0xc0>)
 80039c2:	f04f 4200 	mov.w	r2, #2147483648	; 0x80000000
 80039c6:	601a      	str	r2, [r3, #0]
 80039c8:	bf00      	nop
 80039ca:	3714      	adds	r7, #20
 80039cc:	46bd      	mov	sp, r7
 80039ce:	f85d 7b04 	ldr.w	r7, [sp], #4
 80039d2:	4770      	bx	lr
 80039d4:	20000408 	.word	0x20000408
 80039d8:	20013008 	.word	0x20013008
 80039dc:	20013010 	.word	0x20013010
 80039e0:	20013018 	.word	0x20013018
 80039e4:	20013014 	.word	0x20013014
 80039e8:	2001301c 	.word	0x2001301c

080039ec <prvInsertBlockIntoFreeList>:
 80039ec:	b480      	push	{r7}
 80039ee:	b085      	sub	sp, #20
 80039f0:	af00      	add	r7, sp, #0
 80039f2:	6078      	str	r0, [r7, #4]
 80039f4:	4b28      	ldr	r3, [pc, #160]	; (8003a98 <prvInsertBlockIntoFreeList+0xac>)
 80039f6:	60fb      	str	r3, [r7, #12]
 80039f8:	e002      	b.n	8003a00 <prvInsertBlockIntoFreeList+0x14>
 80039fa:	68fb      	ldr	r3, [r7, #12]
 80039fc:	681b      	ldr	r3, [r3, #0]
 80039fe:	60fb      	str	r3, [r7, #12]
 8003a00:	68fb      	ldr	r3, [r7, #12]
 8003a02:	681b      	ldr	r3, [r3, #0]
 8003a04:	687a      	ldr	r2, [r7, #4]
 8003a06:	429a      	cmp	r2, r3
 8003a08:	d8f7      	bhi.n	80039fa <prvInsertBlockIntoFreeList+0xe>
 8003a0a:	68fb      	ldr	r3, [r7, #12]
 8003a0c:	60bb      	str	r3, [r7, #8]
 8003a0e:	68fb      	ldr	r3, [r7, #12]
 8003a10:	685b      	ldr	r3, [r3, #4]
 8003a12:	68ba      	ldr	r2, [r7, #8]
 8003a14:	4413      	add	r3, r2
 8003a16:	687a      	ldr	r2, [r7, #4]
 8003a18:	429a      	cmp	r2, r3
 8003a1a:	d108      	bne.n	8003a2e <prvInsertBlockIntoFreeList+0x42>
 8003a1c:	68fb      	ldr	r3, [r7, #12]
 8003a1e:	685a      	ldr	r2, [r3, #4]
 8003a20:	687b      	ldr	r3, [r7, #4]
 8003a22:	685b      	ldr	r3, [r3, #4]
 8003a24:	441a      	add	r2, r3
 8003a26:	68fb      	ldr	r3, [r7, #12]
 8003a28:	605a      	str	r2, [r3, #4]
 8003a2a:	68fb      	ldr	r3, [r7, #12]
 8003a2c:	607b      	str	r3, [r7, #4]
 8003a2e:	687b      	ldr	r3, [r7, #4]
 8003a30:	60bb      	str	r3, [r7, #8]
 8003a32:	687b      	ldr	r3, [r7, #4]
 8003a34:	685b      	ldr	r3, [r3, #4]
 8003a36:	68ba      	ldr	r2, [r7, #8]
 8003a38:	441a      	add	r2, r3
 8003a3a:	68fb      	ldr	r3, [r7, #12]
 8003a3c:	681b      	ldr	r3, [r3, #0]
 8003a3e:	429a      	cmp	r2, r3
 8003a40:	d118      	bne.n	8003a74 <prvInsertBlockIntoFreeList+0x88>
 8003a42:	68fb      	ldr	r3, [r7, #12]
 8003a44:	681a      	ldr	r2, [r3, #0]
 8003a46:	4b15      	ldr	r3, [pc, #84]	; (8003a9c <prvInsertBlockIntoFreeList+0xb0>)
 8003a48:	681b      	ldr	r3, [r3, #0]
 8003a4a:	429a      	cmp	r2, r3
 8003a4c:	d00d      	beq.n	8003a6a <prvInsertBlockIntoFreeList+0x7e>
 8003a4e:	687b      	ldr	r3, [r7, #4]
 8003a50:	685a      	ldr	r2, [r3, #4]
 8003a52:	68fb      	ldr	r3, [r7, #12]
 8003a54:	681b      	ldr	r3, [r3, #0]
 8003a56:	685b      	ldr	r3, [r3, #4]
 8003a58:	441a      	add	r2, r3
 8003a5a:	687b      	ldr	r3, [r7, #4]
 8003a5c:	605a      	str	r2, [r3, #4]
 8003a5e:	68fb      	ldr	r3, [r7, #12]
 8003a60:	681b      	ldr	r3, [r3, #0]
 8003a62:	681a      	ldr	r2, [r3, #0]
 8003a64:	687b      	ldr	r3, [r7, #4]
 8003a66:	601a      	str	r2, [r3, #0]
 8003a68:	e008      	b.n	8003a7c <prvInsertBlockIntoFreeList+0x90>
 8003a6a:	4b0c      	ldr	r3, [pc, #48]	; (8003a9c <prvInsertBlockIntoFreeList+0xb0>)
 8003a6c:	681a      	ldr	r2, [r3, #0]
 8003a6e:	687b      	ldr	r3, [r7, #4]
 8003a70:	601a      	str	r2, [r3, #0]
 8003a72:	e003      	b.n	8003a7c <prvInsertBlockIntoFreeList+0x90>
 8003a74:	68fb      	ldr	r3, [r7, #12]
 8003a76:	681a      	ldr	r2, [r3, #0]
 8003a78:	687b      	ldr	r3, [r7, #4]
 8003a7a:	601a      	str	r2, [r3, #0]
 8003a7c:	68fa      	ldr	r2, [r7, #12]
 8003a7e:	687b      	ldr	r3, [r7, #4]
 8003a80:	429a      	cmp	r2, r3
 8003a82:	d002      	beq.n	8003a8a <prvInsertBlockIntoFreeList+0x9e>
 8003a84:	68fb      	ldr	r3, [r7, #12]
 8003a86:	687a      	ldr	r2, [r7, #4]
 8003a88:	601a      	str	r2, [r3, #0]
 8003a8a:	bf00      	nop
 8003a8c:	3714      	adds	r7, #20
 8003a8e:	46bd      	mov	sp, r7
 8003a90:	f85d 7b04 	ldr.w	r7, [sp], #4
 8003a94:	4770      	bx	lr
 8003a96:	bf00      	nop
 8003a98:	20013008 	.word	0x20013008
 8003a9c:	20013010 	.word	0x20013010

08003aa0 <_cbSendSystemDesc>:
 8003aa0:	b580      	push	{r7, lr}
 8003aa2:	af00      	add	r7, sp, #0
 8003aa4:	4803      	ldr	r0, [pc, #12]	; (8003ab4 <_cbSendSystemDesc+0x14>)
 8003aa6:	f001 f843 	bl	8004b30 <SEGGER_SYSVIEW_SendSysDesc>
 8003aaa:	4803      	ldr	r0, [pc, #12]	; (8003ab8 <_cbSendSystemDesc+0x18>)
 8003aac:	f001 f840 	bl	8004b30 <SEGGER_SYSVIEW_SendSysDesc>
 8003ab0:	bf00      	nop
 8003ab2:	bd80      	pop	{r7, pc}
 8003ab4:	08005ab4 	.word	0x08005ab4
 8003ab8:	08005ae8 	.word	0x08005ae8

08003abc <SEGGER_SYSVIEW_Conf>:
 8003abc:	b580      	push	{r7, lr}
 8003abe:	af00      	add	r7, sp, #0
 8003ac0:	4b06      	ldr	r3, [pc, #24]	; (8003adc <SEGGER_SYSVIEW_Conf+0x20>)
 8003ac2:	6818      	ldr	r0, [r3, #0]
 8003ac4:	4b05      	ldr	r3, [pc, #20]	; (8003adc <SEGGER_SYSVIEW_Conf+0x20>)
 8003ac6:	6819      	ldr	r1, [r3, #0]
 8003ac8:	4b05      	ldr	r3, [pc, #20]	; (8003ae0 <SEGGER_SYSVIEW_Conf+0x24>)
 8003aca:	4a06      	ldr	r2, [pc, #24]	; (8003ae4 <SEGGER_SYSVIEW_Conf+0x28>)
 8003acc:	f000 fcbc 	bl	8004448 <SEGGER_SYSVIEW_Init>
 8003ad0:	f04f 5000 	mov.w	r0, #536870912	; 0x20000000
 8003ad4:	f000 fcf6 	bl	80044c4 <SEGGER_SYSVIEW_SetRAMBase>
 8003ad8:	bf00      	nop
 8003ada:	bd80      	pop	{r7, pc}
 8003adc:	20000000 	.word	0x20000000
 8003ae0:	08003aa1 	.word	0x08003aa1
 8003ae4:	08005b88 	.word	0x08005b88

08003ae8 <_cbSendTaskList>:
 8003ae8:	b5f0      	push	{r4, r5, r6, r7, lr}
 8003aea:	b085      	sub	sp, #20
 8003aec:	af02      	add	r7, sp, #8
 8003aee:	2300      	movs	r3, #0
 8003af0:	607b      	str	r3, [r7, #4]
 8003af2:	e034      	b.n	8003b5e <_cbSendTaskList+0x76>
 8003af4:	491e      	ldr	r1, [pc, #120]	; (8003b70 <_cbSendTaskList+0x88>)
 8003af6:	687a      	ldr	r2, [r7, #4]
 8003af8:	4613      	mov	r3, r2
 8003afa:	009b      	lsls	r3, r3, #2
 8003afc:	4413      	add	r3, r2
 8003afe:	009b      	lsls	r3, r3, #2
 8003b00:	440b      	add	r3, r1
 8003b02:	6818      	ldr	r0, [r3, #0]
 8003b04:	491a      	ldr	r1, [pc, #104]	; (8003b70 <_cbSendTaskList+0x88>)
 8003b06:	687a      	ldr	r2, [r7, #4]
 8003b08:	4613      	mov	r3, r2
 8003b0a:	009b      	lsls	r3, r3, #2
 8003b0c:	4413      	add	r3, r2
 8003b0e:	009b      	lsls	r3, r3, #2
 8003b10:	440b      	add	r3, r1
 8003b12:	3304      	adds	r3, #4
 8003b14:	681c      	ldr	r4, [r3, #0]
 8003b16:	4916      	ldr	r1, [pc, #88]	; (8003b70 <_cbSendTaskList+0x88>)
 8003b18:	687a      	ldr	r2, [r7, #4]
 8003b1a:	4613      	mov	r3, r2
 8003b1c:	009b      	lsls	r3, r3, #2
 8003b1e:	4413      	add	r3, r2
 8003b20:	009b      	lsls	r3, r3, #2
 8003b22:	440b      	add	r3, r1
 8003b24:	3308      	adds	r3, #8
 8003b26:	681d      	ldr	r5, [r3, #0]
 8003b28:	4911      	ldr	r1, [pc, #68]	; (8003b70 <_cbSendTaskList+0x88>)
 8003b2a:	687a      	ldr	r2, [r7, #4]
 8003b2c:	4613      	mov	r3, r2
 8003b2e:	009b      	lsls	r3, r3, #2
 8003b30:	4413      	add	r3, r2
 8003b32:	009b      	lsls	r3, r3, #2
 8003b34:	440b      	add	r3, r1
 8003b36:	330c      	adds	r3, #12
 8003b38:	681e      	ldr	r6, [r3, #0]
 8003b3a:	490d      	ldr	r1, [pc, #52]	; (8003b70 <_cbSendTaskList+0x88>)
 8003b3c:	687a      	ldr	r2, [r7, #4]
 8003b3e:	4613      	mov	r3, r2
 8003b40:	009b      	lsls	r3, r3, #2
 8003b42:	4413      	add	r3, r2
 8003b44:	009b      	lsls	r3, r3, #2
 8003b46:	440b      	add	r3, r1
 8003b48:	3310      	adds	r3, #16
 8003b4a:	681b      	ldr	r3, [r3, #0]
 8003b4c:	9300      	str	r3, [sp, #0]
 8003b4e:	4633      	mov	r3, r6
 8003b50:	462a      	mov	r2, r5
 8003b52:	4621      	mov	r1, r4
 8003b54:	f000 f8b4 	bl	8003cc0 <SYSVIEW_SendTaskInfo>
 8003b58:	687b      	ldr	r3, [r7, #4]
 8003b5a:	3301      	adds	r3, #1
 8003b5c:	607b      	str	r3, [r7, #4]
 8003b5e:	4b05      	ldr	r3, [pc, #20]	; (8003b74 <_cbSendTaskList+0x8c>)
 8003b60:	681b      	ldr	r3, [r3, #0]
 8003b62:	687a      	ldr	r2, [r7, #4]
 8003b64:	429a      	cmp	r2, r3
 8003b66:	d3c5      	bcc.n	8003af4 <_cbSendTaskList+0xc>
 8003b68:	bf00      	nop
 8003b6a:	370c      	adds	r7, #12
 8003b6c:	46bd      	mov	sp, r7
 8003b6e:	bdf0      	pop	{r4, r5, r6, r7, pc}
 8003b70:	20013020 	.word	0x20013020
 8003b74:	200130c0 	.word	0x200130c0

08003b78 <_cbGetTime>:
 8003b78:	b5f0      	push	{r4, r5, r6, r7, lr}
 8003b7a:	b083      	sub	sp, #12
 8003b7c:	af00      	add	r7, sp, #0
 8003b7e:	f7ff f895 	bl	8002cac <xTaskGetTickCountFromISR>
 8003b82:	4603      	mov	r3, r0
 8003b84:	f04f 0400 	mov.w	r4, #0
 8003b88:	e9c7 3400 	strd	r3, r4, [r7]
 8003b8c:	e9d7 5600 	ldrd	r5, r6, [r7]
 8003b90:	462b      	mov	r3, r5
 8003b92:	4634      	mov	r4, r6
 8003b94:	f04f 0100 	mov.w	r1, #0
 8003b98:	f04f 0200 	mov.w	r2, #0
 8003b9c:	0162      	lsls	r2, r4, #5
 8003b9e:	ea42 62d3 	orr.w	r2, r2, r3, lsr #27
 8003ba2:	0159      	lsls	r1, r3, #5
 8003ba4:	460b      	mov	r3, r1
 8003ba6:	4614      	mov	r4, r2
 8003ba8:	1b5b      	subs	r3, r3, r5
 8003baa:	eb64 0406 	sbc.w	r4, r4, r6
 8003bae:	f04f 0100 	mov.w	r1, #0
 8003bb2:	f04f 0200 	mov.w	r2, #0
 8003bb6:	00a2      	lsls	r2, r4, #2
 8003bb8:	ea42 7293 	orr.w	r2, r2, r3, lsr #30
 8003bbc:	0099      	lsls	r1, r3, #2
 8003bbe:	460b      	mov	r3, r1
 8003bc0:	4614      	mov	r4, r2
 8003bc2:	195b      	adds	r3, r3, r5
 8003bc4:	eb44 0406 	adc.w	r4, r4, r6
 8003bc8:	f04f 0100 	mov.w	r1, #0
 8003bcc:	f04f 0200 	mov.w	r2, #0
 8003bd0:	00e2      	lsls	r2, r4, #3
 8003bd2:	ea42 7253 	orr.w	r2, r2, r3, lsr #29
 8003bd6:	00d9      	lsls	r1, r3, #3
 8003bd8:	460b      	mov	r3, r1
 8003bda:	4614      	mov	r4, r2
 8003bdc:	e9c7 3400 	strd	r3, r4, [r7]
 8003be0:	e9d7 3400 	ldrd	r3, r4, [r7]
 8003be4:	4618      	mov	r0, r3
 8003be6:	4621      	mov	r1, r4
 8003be8:	370c      	adds	r7, #12
 8003bea:	46bd      	mov	sp, r7
 8003bec:	bdf0      	pop	{r4, r5, r6, r7, pc}
	...

08003bf0 <SYSVIEW_AddTask>:
 8003bf0:	b580      	push	{r7, lr}
 8003bf2:	b086      	sub	sp, #24
 8003bf4:	af02      	add	r7, sp, #8
 8003bf6:	60f8      	str	r0, [r7, #12]
 8003bf8:	60b9      	str	r1, [r7, #8]
 8003bfa:	607a      	str	r2, [r7, #4]
 8003bfc:	603b      	str	r3, [r7, #0]
 8003bfe:	2205      	movs	r2, #5
 8003c00:	492b      	ldr	r1, [pc, #172]	; (8003cb0 <SYSVIEW_AddTask+0xc0>)
 8003c02:	68b8      	ldr	r0, [r7, #8]
 8003c04:	f001 fb0c 	bl	8005220 <memcmp>
 8003c08:	4603      	mov	r3, r0
 8003c0a:	2b00      	cmp	r3, #0
 8003c0c:	d04b      	beq.n	8003ca6 <SYSVIEW_AddTask+0xb6>
 8003c0e:	4b29      	ldr	r3, [pc, #164]	; (8003cb4 <SYSVIEW_AddTask+0xc4>)
 8003c10:	681b      	ldr	r3, [r3, #0]
 8003c12:	2b07      	cmp	r3, #7
 8003c14:	d903      	bls.n	8003c1e <SYSVIEW_AddTask+0x2e>
 8003c16:	4828      	ldr	r0, [pc, #160]	; (8003cb8 <SYSVIEW_AddTask+0xc8>)
 8003c18:	f001 fa7c 	bl	8005114 <SEGGER_SYSVIEW_Warn>
 8003c1c:	e044      	b.n	8003ca8 <SYSVIEW_AddTask+0xb8>
 8003c1e:	4b25      	ldr	r3, [pc, #148]	; (8003cb4 <SYSVIEW_AddTask+0xc4>)
 8003c20:	681a      	ldr	r2, [r3, #0]
 8003c22:	4926      	ldr	r1, [pc, #152]	; (8003cbc <SYSVIEW_AddTask+0xcc>)
 8003c24:	4613      	mov	r3, r2
 8003c26:	009b      	lsls	r3, r3, #2
 8003c28:	4413      	add	r3, r2
 8003c2a:	009b      	lsls	r3, r3, #2
 8003c2c:	440b      	add	r3, r1
 8003c2e:	68fa      	ldr	r2, [r7, #12]
 8003c30:	601a      	str	r2, [r3, #0]
 8003c32:	4b20      	ldr	r3, [pc, #128]	; (8003cb4 <SYSVIEW_AddTask+0xc4>)
 8003c34:	681a      	ldr	r2, [r3, #0]
 8003c36:	4921      	ldr	r1, [pc, #132]	; (8003cbc <SYSVIEW_AddTask+0xcc>)
 8003c38:	4613      	mov	r3, r2
 8003c3a:	009b      	lsls	r3, r3, #2
 8003c3c:	4413      	add	r3, r2
 8003c3e:	009b      	lsls	r3, r3, #2
 8003c40:	440b      	add	r3, r1
 8003c42:	3304      	adds	r3, #4
 8003c44:	68ba      	ldr	r2, [r7, #8]
 8003c46:	601a      	str	r2, [r3, #0]
 8003c48:	4b1a      	ldr	r3, [pc, #104]	; (8003cb4 <SYSVIEW_AddTask+0xc4>)
 8003c4a:	681a      	ldr	r2, [r3, #0]
 8003c4c:	491b      	ldr	r1, [pc, #108]	; (8003cbc <SYSVIEW_AddTask+0xcc>)
 8003c4e:	4613      	mov	r3, r2
 8003c50:	009b      	lsls	r3, r3, #2
 8003c52:	4413      	add	r3, r2
 8003c54:	009b      	lsls	r3, r3, #2
 8003c56:	440b      	add	r3, r1
 8003c58:	3308      	adds	r3, #8
 8003c5a:	687a      	ldr	r2, [r7, #4]
 8003c5c:	601a      	str	r2, [r3, #0]
 8003c5e:	4b15      	ldr	r3, [pc, #84]	; (8003cb4 <SYSVIEW_AddTask+0xc4>)
 8003c60:	681a      	ldr	r2, [r3, #0]
 8003c62:	4916      	ldr	r1, [pc, #88]	; (8003cbc <SYSVIEW_AddTask+0xcc>)
 8003c64:	4613      	mov	r3, r2
 8003c66:	009b      	lsls	r3, r3, #2
 8003c68:	4413      	add	r3, r2
 8003c6a:	009b      	lsls	r3, r3, #2
 8003c6c:	440b      	add	r3, r1
 8003c6e:	330c      	adds	r3, #12
 8003c70:	683a      	ldr	r2, [r7, #0]
 8003c72:	601a      	str	r2, [r3, #0]
 8003c74:	4b0f      	ldr	r3, [pc, #60]	; (8003cb4 <SYSVIEW_AddTask+0xc4>)
 8003c76:	681a      	ldr	r2, [r3, #0]
 8003c78:	4910      	ldr	r1, [pc, #64]	; (8003cbc <SYSVIEW_AddTask+0xcc>)
 8003c7a:	4613      	mov	r3, r2
 8003c7c:	009b      	lsls	r3, r3, #2
 8003c7e:	4413      	add	r3, r2
 8003c80:	009b      	lsls	r3, r3, #2
 8003c82:	440b      	add	r3, r1
 8003c84:	3310      	adds	r3, #16
 8003c86:	69ba      	ldr	r2, [r7, #24]
 8003c88:	601a      	str	r2, [r3, #0]
 8003c8a:	4b0a      	ldr	r3, [pc, #40]	; (8003cb4 <SYSVIEW_AddTask+0xc4>)
 8003c8c:	681b      	ldr	r3, [r3, #0]
 8003c8e:	3301      	adds	r3, #1
 8003c90:	4a08      	ldr	r2, [pc, #32]	; (8003cb4 <SYSVIEW_AddTask+0xc4>)
 8003c92:	6013      	str	r3, [r2, #0]
 8003c94:	69bb      	ldr	r3, [r7, #24]
 8003c96:	9300      	str	r3, [sp, #0]
 8003c98:	683b      	ldr	r3, [r7, #0]
 8003c9a:	687a      	ldr	r2, [r7, #4]
 8003c9c:	68b9      	ldr	r1, [r7, #8]
 8003c9e:	68f8      	ldr	r0, [r7, #12]
 8003ca0:	f000 f80e 	bl	8003cc0 <SYSVIEW_SendTaskInfo>
 8003ca4:	e000      	b.n	8003ca8 <SYSVIEW_AddTask+0xb8>
 8003ca6:	bf00      	nop
 8003ca8:	3710      	adds	r7, #16
 8003caa:	46bd      	mov	sp, r7
 8003cac:	bd80      	pop	{r7, pc}
 8003cae:	bf00      	nop
 8003cb0:	08005af8 	.word	0x08005af8
 8003cb4:	200130c0 	.word	0x200130c0
 8003cb8:	08005b00 	.word	0x08005b00
 8003cbc:	20013020 	.word	0x20013020

08003cc0 <SYSVIEW_SendTaskInfo>:
 8003cc0:	b580      	push	{r7, lr}
 8003cc2:	b08a      	sub	sp, #40	; 0x28
 8003cc4:	af00      	add	r7, sp, #0
 8003cc6:	60f8      	str	r0, [r7, #12]
 8003cc8:	60b9      	str	r1, [r7, #8]
 8003cca:	607a      	str	r2, [r7, #4]
 8003ccc:	603b      	str	r3, [r7, #0]
 8003cce:	f107 0314 	add.w	r3, r7, #20
 8003cd2:	2214      	movs	r2, #20
 8003cd4:	2100      	movs	r1, #0
 8003cd6:	4618      	mov	r0, r3
 8003cd8:	f001 fabc 	bl	8005254 <memset>
 8003cdc:	68fb      	ldr	r3, [r7, #12]
 8003cde:	617b      	str	r3, [r7, #20]
 8003ce0:	68bb      	ldr	r3, [r7, #8]
 8003ce2:	61bb      	str	r3, [r7, #24]
 8003ce4:	687b      	ldr	r3, [r7, #4]
 8003ce6:	61fb      	str	r3, [r7, #28]
 8003ce8:	683b      	ldr	r3, [r7, #0]
 8003cea:	623b      	str	r3, [r7, #32]
 8003cec:	6b3b      	ldr	r3, [r7, #48]	; 0x30
 8003cee:	627b      	str	r3, [r7, #36]	; 0x24
 8003cf0:	f107 0314 	add.w	r3, r7, #20
 8003cf4:	4618      	mov	r0, r3
 8003cf6:	f000 fe21 	bl	800493c <SEGGER_SYSVIEW_SendTaskInfo>
 8003cfa:	bf00      	nop
 8003cfc:	3728      	adds	r7, #40	; 0x28
 8003cfe:	46bd      	mov	sp, r7
 8003d00:	bd80      	pop	{r7, pc}
	...

08003d04 <_DoInit>:
 8003d04:	b480      	push	{r7}
 8003d06:	b083      	sub	sp, #12
 8003d08:	af00      	add	r7, sp, #0
 8003d0a:	4b21      	ldr	r3, [pc, #132]	; (8003d90 <_DoInit+0x8c>)
 8003d0c:	607b      	str	r3, [r7, #4]
 8003d0e:	687b      	ldr	r3, [r7, #4]
 8003d10:	2203      	movs	r2, #3
 8003d12:	611a      	str	r2, [r3, #16]
 8003d14:	687b      	ldr	r3, [r7, #4]
 8003d16:	2203      	movs	r2, #3
 8003d18:	615a      	str	r2, [r3, #20]
 8003d1a:	687b      	ldr	r3, [r7, #4]
 8003d1c:	4a1d      	ldr	r2, [pc, #116]	; (8003d94 <_DoInit+0x90>)
 8003d1e:	619a      	str	r2, [r3, #24]
 8003d20:	687b      	ldr	r3, [r7, #4]
 8003d22:	4a1d      	ldr	r2, [pc, #116]	; (8003d98 <_DoInit+0x94>)
 8003d24:	61da      	str	r2, [r3, #28]
 8003d26:	687b      	ldr	r3, [r7, #4]
 8003d28:	f44f 6280 	mov.w	r2, #1024	; 0x400
 8003d2c:	621a      	str	r2, [r3, #32]
 8003d2e:	687b      	ldr	r3, [r7, #4]
 8003d30:	2200      	movs	r2, #0
 8003d32:	629a      	str	r2, [r3, #40]	; 0x28
 8003d34:	687b      	ldr	r3, [r7, #4]
 8003d36:	2200      	movs	r2, #0
 8003d38:	625a      	str	r2, [r3, #36]	; 0x24
 8003d3a:	687b      	ldr	r3, [r7, #4]
 8003d3c:	2200      	movs	r2, #0
 8003d3e:	62da      	str	r2, [r3, #44]	; 0x2c
 8003d40:	687b      	ldr	r3, [r7, #4]
 8003d42:	4a14      	ldr	r2, [pc, #80]	; (8003d94 <_DoInit+0x90>)
 8003d44:	661a      	str	r2, [r3, #96]	; 0x60
 8003d46:	687b      	ldr	r3, [r7, #4]
 8003d48:	4a14      	ldr	r2, [pc, #80]	; (8003d9c <_DoInit+0x98>)
 8003d4a:	665a      	str	r2, [r3, #100]	; 0x64
 8003d4c:	687b      	ldr	r3, [r7, #4]
 8003d4e:	2210      	movs	r2, #16
 8003d50:	669a      	str	r2, [r3, #104]	; 0x68
 8003d52:	687b      	ldr	r3, [r7, #4]
 8003d54:	2200      	movs	r2, #0
 8003d56:	671a      	str	r2, [r3, #112]	; 0x70
 8003d58:	687b      	ldr	r3, [r7, #4]
 8003d5a:	2200      	movs	r2, #0
 8003d5c:	66da      	str	r2, [r3, #108]	; 0x6c
 8003d5e:	687b      	ldr	r3, [r7, #4]
 8003d60:	2200      	movs	r2, #0
 8003d62:	675a      	str	r2, [r3, #116]	; 0x74
 8003d64:	687b      	ldr	r3, [r7, #4]
 8003d66:	3307      	adds	r3, #7
 8003d68:	4a0d      	ldr	r2, [pc, #52]	; (8003da0 <_DoInit+0x9c>)
 8003d6a:	6810      	ldr	r0, [r2, #0]
 8003d6c:	6018      	str	r0, [r3, #0]
 8003d6e:	687b      	ldr	r3, [r7, #4]
 8003d70:	4a0c      	ldr	r2, [pc, #48]	; (8003da4 <_DoInit+0xa0>)
 8003d72:	6810      	ldr	r0, [r2, #0]
 8003d74:	6018      	str	r0, [r3, #0]
 8003d76:	8891      	ldrh	r1, [r2, #4]
 8003d78:	7992      	ldrb	r2, [r2, #6]
 8003d7a:	8099      	strh	r1, [r3, #4]
 8003d7c:	719a      	strb	r2, [r3, #6]
 8003d7e:	687b      	ldr	r3, [r7, #4]
 8003d80:	2220      	movs	r2, #32
 8003d82:	719a      	strb	r2, [r3, #6]
 8003d84:	bf00      	nop
 8003d86:	370c      	adds	r7, #12
 8003d88:	46bd      	mov	sp, r7
 8003d8a:	f85d 7b04 	ldr.w	r7, [sp], #4
 8003d8e:	4770      	bx	lr
 8003d90:	200156a0 	.word	0x200156a0
 8003d94:	08005b50 	.word	0x08005b50
 8003d98:	200130c4 	.word	0x200130c4
 8003d9c:	200134c4 	.word	0x200134c4
 8003da0:	08005b5c 	.word	0x08005b5c
 8003da4:	08005b60 	.word	0x08005b60

08003da8 <SEGGER_RTT_ReadNoLock>:
 8003da8:	b580      	push	{r7, lr}
 8003daa:	b08a      	sub	sp, #40	; 0x28
 8003dac:	af00      	add	r7, sp, #0
 8003dae:	60f8      	str	r0, [r7, #12]
 8003db0:	60b9      	str	r1, [r7, #8]
 8003db2:	607a      	str	r2, [r7, #4]
 8003db4:	4b3c      	ldr	r3, [pc, #240]	; (8003ea8 <SEGGER_RTT_ReadNoLock+0x100>)
 8003db6:	781b      	ldrb	r3, [r3, #0]
 8003db8:	2b00      	cmp	r3, #0
 8003dba:	d101      	bne.n	8003dc0 <SEGGER_RTT_ReadNoLock+0x18>
 8003dbc:	f7ff ffa2 	bl	8003d04 <_DoInit>
 8003dc0:	68fa      	ldr	r2, [r7, #12]
 8003dc2:	4613      	mov	r3, r2
 8003dc4:	005b      	lsls	r3, r3, #1
 8003dc6:	4413      	add	r3, r2
 8003dc8:	00db      	lsls	r3, r3, #3
 8003dca:	3360      	adds	r3, #96	; 0x60
 8003dcc:	4a36      	ldr	r2, [pc, #216]	; (8003ea8 <SEGGER_RTT_ReadNoLock+0x100>)
 8003dce:	4413      	add	r3, r2
 8003dd0:	61bb      	str	r3, [r7, #24]
 8003dd2:	68bb      	ldr	r3, [r7, #8]
 8003dd4:	61fb      	str	r3, [r7, #28]
 8003dd6:	69bb      	ldr	r3, [r7, #24]
 8003dd8:	691b      	ldr	r3, [r3, #16]
 8003dda:	623b      	str	r3, [r7, #32]
 8003ddc:	69bb      	ldr	r3, [r7, #24]
 8003dde:	68db      	ldr	r3, [r3, #12]
 8003de0:	617b      	str	r3, [r7, #20]
 8003de2:	2300      	movs	r3, #0
 8003de4:	627b      	str	r3, [r7, #36]	; 0x24
 8003de6:	6a3a      	ldr	r2, [r7, #32]
 8003de8:	697b      	ldr	r3, [r7, #20]
 8003dea:	429a      	cmp	r2, r3
 8003dec:	d92a      	bls.n	8003e44 <SEGGER_RTT_ReadNoLock+0x9c>
 8003dee:	69bb      	ldr	r3, [r7, #24]
 8003df0:	689a      	ldr	r2, [r3, #8]
 8003df2:	6a3b      	ldr	r3, [r7, #32]
 8003df4:	1ad3      	subs	r3, r2, r3
 8003df6:	613b      	str	r3, [r7, #16]
 8003df8:	693a      	ldr	r2, [r7, #16]
 8003dfa:	687b      	ldr	r3, [r7, #4]
 8003dfc:	4293      	cmp	r3, r2
 8003dfe:	bf28      	it	cs
 8003e00:	4613      	movcs	r3, r2
 8003e02:	613b      	str	r3, [r7, #16]
 8003e04:	69bb      	ldr	r3, [r7, #24]
 8003e06:	685a      	ldr	r2, [r3, #4]
 8003e08:	6a3b      	ldr	r3, [r7, #32]
 8003e0a:	4413      	add	r3, r2
 8003e0c:	693a      	ldr	r2, [r7, #16]
 8003e0e:	4619      	mov	r1, r3
 8003e10:	69f8      	ldr	r0, [r7, #28]
 8003e12:	f001 fa14 	bl	800523e <memcpy>
 8003e16:	6a7a      	ldr	r2, [r7, #36]	; 0x24
 8003e18:	693b      	ldr	r3, [r7, #16]
 8003e1a:	4413      	add	r3, r2
 8003e1c:	627b      	str	r3, [r7, #36]	; 0x24
 8003e1e:	69fa      	ldr	r2, [r7, #28]
 8003e20:	693b      	ldr	r3, [r7, #16]
 8003e22:	4413      	add	r3, r2
 8003e24:	61fb      	str	r3, [r7, #28]
 8003e26:	687a      	ldr	r2, [r7, #4]
 8003e28:	693b      	ldr	r3, [r7, #16]
 8003e2a:	1ad3      	subs	r3, r2, r3
 8003e2c:	607b      	str	r3, [r7, #4]
 8003e2e:	6a3a      	ldr	r2, [r7, #32]
 8003e30:	693b      	ldr	r3, [r7, #16]
 8003e32:	4413      	add	r3, r2
 8003e34:	623b      	str	r3, [r7, #32]
 8003e36:	69bb      	ldr	r3, [r7, #24]
 8003e38:	689b      	ldr	r3, [r3, #8]
 8003e3a:	6a3a      	ldr	r2, [r7, #32]
 8003e3c:	429a      	cmp	r2, r3
 8003e3e:	d101      	bne.n	8003e44 <SEGGER_RTT_ReadNoLock+0x9c>
 8003e40:	2300      	movs	r3, #0
 8003e42:	623b      	str	r3, [r7, #32]
 8003e44:	697a      	ldr	r2, [r7, #20]
 8003e46:	6a3b      	ldr	r3, [r7, #32]
 8003e48:	1ad3      	subs	r3, r2, r3
 8003e4a:	613b      	str	r3, [r7, #16]
 8003e4c:	693a      	ldr	r2, [r7, #16]
 8003e4e:	687b      	ldr	r3, [r7, #4]
 8003e50:	4293      	cmp	r3, r2
 8003e52:	bf28      	it	cs
 8003e54:	4613      	movcs	r3, r2
 8003e56:	613b      	str	r3, [r7, #16]
 8003e58:	693b      	ldr	r3, [r7, #16]
 8003e5a:	2b00      	cmp	r3, #0
 8003e5c:	d018      	beq.n	8003e90 <SEGGER_RTT_ReadNoLock+0xe8>
 8003e5e:	69bb      	ldr	r3, [r7, #24]
 8003e60:	685a      	ldr	r2, [r3, #4]
 8003e62:	6a3b      	ldr	r3, [r7, #32]
 8003e64:	4413      	add	r3, r2
 8003e66:	693a      	ldr	r2, [r7, #16]
 8003e68:	4619      	mov	r1, r3
 8003e6a:	69f8      	ldr	r0, [r7, #28]
 8003e6c:	f001 f9e7 	bl	800523e <memcpy>
 8003e70:	6a7a      	ldr	r2, [r7, #36]	; 0x24
 8003e72:	693b      	ldr	r3, [r7, #16]
 8003e74:	4413      	add	r3, r2
 8003e76:	627b      	str	r3, [r7, #36]	; 0x24
 8003e78:	69fa      	ldr	r2, [r7, #28]
 8003e7a:	693b      	ldr	r3, [r7, #16]
 8003e7c:	4413      	add	r3, r2
 8003e7e:	61fb      	str	r3, [r7, #28]
 8003e80:	687a      	ldr	r2, [r7, #4]
 8003e82:	693b      	ldr	r3, [r7, #16]
 8003e84:	1ad3      	subs	r3, r2, r3
 8003e86:	607b      	str	r3, [r7, #4]
 8003e88:	6a3a      	ldr	r2, [r7, #32]
 8003e8a:	693b      	ldr	r3, [r7, #16]
 8003e8c:	4413      	add	r3, r2
 8003e8e:	623b      	str	r3, [r7, #32]
 8003e90:	6a7b      	ldr	r3, [r7, #36]	; 0x24
 8003e92:	2b00      	cmp	r3, #0
 8003e94:	d002      	beq.n	8003e9c <SEGGER_RTT_ReadNoLock+0xf4>
 8003e96:	69bb      	ldr	r3, [r7, #24]
 8003e98:	6a3a      	ldr	r2, [r7, #32]
 8003e9a:	611a      	str	r2, [r3, #16]
 8003e9c:	6a7b      	ldr	r3, [r7, #36]	; 0x24
 8003e9e:	4618      	mov	r0, r3
 8003ea0:	3728      	adds	r7, #40	; 0x28
 8003ea2:	46bd      	mov	sp, r7
 8003ea4:	bd80      	pop	{r7, pc}
 8003ea6:	bf00      	nop
 8003ea8:	200156a0 	.word	0x200156a0

08003eac <SEGGER_RTT_ConfigUpBuffer>:
 8003eac:	b580      	push	{r7, lr}
 8003eae:	b086      	sub	sp, #24
 8003eb0:	af00      	add	r7, sp, #0
 8003eb2:	60f8      	str	r0, [r7, #12]
 8003eb4:	60b9      	str	r1, [r7, #8]
 8003eb6:	607a      	str	r2, [r7, #4]
 8003eb8:	603b      	str	r3, [r7, #0]
 8003eba:	4b30      	ldr	r3, [pc, #192]	; (8003f7c <SEGGER_RTT_ConfigUpBuffer+0xd0>)
 8003ebc:	781b      	ldrb	r3, [r3, #0]
 8003ebe:	2b00      	cmp	r3, #0
 8003ec0:	d101      	bne.n	8003ec6 <SEGGER_RTT_ConfigUpBuffer+0x1a>
 8003ec2:	f7ff ff1f 	bl	8003d04 <_DoInit>
 8003ec6:	4b2d      	ldr	r3, [pc, #180]	; (8003f7c <SEGGER_RTT_ConfigUpBuffer+0xd0>)
 8003ec8:	691b      	ldr	r3, [r3, #16]
 8003eca:	461a      	mov	r2, r3
 8003ecc:	68fb      	ldr	r3, [r7, #12]
 8003ece:	4293      	cmp	r3, r2
 8003ed0:	d24c      	bcs.n	8003f6c <SEGGER_RTT_ConfigUpBuffer+0xc0>
 8003ed2:	f3ef 8311 	mrs	r3, BASEPRI
 8003ed6:	f04f 0120 	mov.w	r1, #32
 8003eda:	f381 8811 	msr	BASEPRI, r1
 8003ede:	613b      	str	r3, [r7, #16]
 8003ee0:	68fb      	ldr	r3, [r7, #12]
 8003ee2:	2b00      	cmp	r3, #0
 8003ee4:	d032      	beq.n	8003f4c <SEGGER_RTT_ConfigUpBuffer+0xa0>
 8003ee6:	4925      	ldr	r1, [pc, #148]	; (8003f7c <SEGGER_RTT_ConfigUpBuffer+0xd0>)
 8003ee8:	68fb      	ldr	r3, [r7, #12]
 8003eea:	1c5a      	adds	r2, r3, #1
 8003eec:	4613      	mov	r3, r2
 8003eee:	005b      	lsls	r3, r3, #1
 8003ef0:	4413      	add	r3, r2
 8003ef2:	00db      	lsls	r3, r3, #3
 8003ef4:	440b      	add	r3, r1
 8003ef6:	68ba      	ldr	r2, [r7, #8]
 8003ef8:	601a      	str	r2, [r3, #0]
 8003efa:	4920      	ldr	r1, [pc, #128]	; (8003f7c <SEGGER_RTT_ConfigUpBuffer+0xd0>)
 8003efc:	68fb      	ldr	r3, [r7, #12]
 8003efe:	1c5a      	adds	r2, r3, #1
 8003f00:	4613      	mov	r3, r2
 8003f02:	005b      	lsls	r3, r3, #1
 8003f04:	4413      	add	r3, r2
 8003f06:	00db      	lsls	r3, r3, #3
 8003f08:	440b      	add	r3, r1
 8003f0a:	3304      	adds	r3, #4
 8003f0c:	687a      	ldr	r2, [r7, #4]
 8003f0e:	601a      	str	r2, [r3, #0]
 8003f10:	491a      	ldr	r1, [pc, #104]	; (8003f7c <SEGGER_RTT_ConfigUpBuffer+0xd0>)
 8003f12:	68fa      	ldr	r2, [r7, #12]
 8003f14:	4613      	mov	r3, r2
 8003f16:	005b      	lsls	r3, r3, #1
 8003f18:	4413      	add	r3, r2
 8003f1a:	00db      	lsls	r3, r3, #3
 8003f1c:	440b      	add	r3, r1
 8003f1e:	3320      	adds	r3, #32
 8003f20:	683a      	ldr	r2, [r7, #0]
 8003f22:	601a      	str	r2, [r3, #0]
 8003f24:	4915      	ldr	r1, [pc, #84]	; (8003f7c <SEGGER_RTT_ConfigUpBuffer+0xd0>)
 8003f26:	68fa      	ldr	r2, [r7, #12]
 8003f28:	4613      	mov	r3, r2
 8003f2a:	005b      	lsls	r3, r3, #1
 8003f2c:	4413      	add	r3, r2
 8003f2e:	00db      	lsls	r3, r3, #3
 8003f30:	440b      	add	r3, r1
 8003f32:	3328      	adds	r3, #40	; 0x28
 8003f34:	2200      	movs	r2, #0
 8003f36:	601a      	str	r2, [r3, #0]
 8003f38:	4910      	ldr	r1, [pc, #64]	; (8003f7c <SEGGER_RTT_ConfigUpBuffer+0xd0>)
 8003f3a:	68fa      	ldr	r2, [r7, #12]
 8003f3c:	4613      	mov	r3, r2
 8003f3e:	005b      	lsls	r3, r3, #1
 8003f40:	4413      	add	r3, r2
 8003f42:	00db      	lsls	r3, r3, #3
 8003f44:	440b      	add	r3, r1
 8003f46:	3324      	adds	r3, #36	; 0x24
 8003f48:	2200      	movs	r2, #0
 8003f4a:	601a      	str	r2, [r3, #0]
 8003f4c:	490b      	ldr	r1, [pc, #44]	; (8003f7c <SEGGER_RTT_ConfigUpBuffer+0xd0>)
 8003f4e:	68fa      	ldr	r2, [r7, #12]
 8003f50:	4613      	mov	r3, r2
 8003f52:	005b      	lsls	r3, r3, #1
 8003f54:	4413      	add	r3, r2
 8003f56:	00db      	lsls	r3, r3, #3
 8003f58:	440b      	add	r3, r1
 8003f5a:	332c      	adds	r3, #44	; 0x2c
 8003f5c:	6a3a      	ldr	r2, [r7, #32]
 8003f5e:	601a      	str	r2, [r3, #0]
 8003f60:	693b      	ldr	r3, [r7, #16]
 8003f62:	f383 8811 	msr	BASEPRI, r3
 8003f66:	2300      	movs	r3, #0
 8003f68:	617b      	str	r3, [r7, #20]
 8003f6a:	e002      	b.n	8003f72 <SEGGER_RTT_ConfigUpBuffer+0xc6>
 8003f6c:	f04f 33ff 	mov.w	r3, #4294967295
 8003f70:	617b      	str	r3, [r7, #20]
 8003f72:	697b      	ldr	r3, [r7, #20]
 8003f74:	4618      	mov	r0, r3
 8003f76:	3718      	adds	r7, #24
 8003f78:	46bd      	mov	sp, r7
 8003f7a:	bd80      	pop	{r7, pc}
 8003f7c:	200156a0 	.word	0x200156a0

08003f80 <SEGGER_RTT_ConfigDownBuffer>:
 8003f80:	b580      	push	{r7, lr}
 8003f82:	b086      	sub	sp, #24
 8003f84:	af00      	add	r7, sp, #0
 8003f86:	60f8      	str	r0, [r7, #12]
 8003f88:	60b9      	str	r1, [r7, #8]
 8003f8a:	607a      	str	r2, [r7, #4]
 8003f8c:	603b      	str	r3, [r7, #0]
 8003f8e:	4b30      	ldr	r3, [pc, #192]	; (8004050 <SEGGER_RTT_ConfigDownBuffer+0xd0>)
 8003f90:	781b      	ldrb	r3, [r3, #0]
 8003f92:	2b00      	cmp	r3, #0
 8003f94:	d101      	bne.n	8003f9a <SEGGER_RTT_ConfigDownBuffer+0x1a>
 8003f96:	f7ff feb5 	bl	8003d04 <_DoInit>
 8003f9a:	4b2d      	ldr	r3, [pc, #180]	; (8004050 <SEGGER_RTT_ConfigDownBuffer+0xd0>)
 8003f9c:	695b      	ldr	r3, [r3, #20]
 8003f9e:	461a      	mov	r2, r3
 8003fa0:	68fb      	ldr	r3, [r7, #12]
 8003fa2:	4293      	cmp	r3, r2
 8003fa4:	d24b      	bcs.n	800403e <SEGGER_RTT_ConfigDownBuffer+0xbe>
 8003fa6:	f3ef 8311 	mrs	r3, BASEPRI
 8003faa:	f04f 0120 	mov.w	r1, #32
 8003fae:	f381 8811 	msr	BASEPRI, r1
 8003fb2:	613b      	str	r3, [r7, #16]
 8003fb4:	68fb      	ldr	r3, [r7, #12]
 8003fb6:	2b00      	cmp	r3, #0
 8003fb8:	d031      	beq.n	800401e <SEGGER_RTT_ConfigDownBuffer+0x9e>
 8003fba:	4925      	ldr	r1, [pc, #148]	; (8004050 <SEGGER_RTT_ConfigDownBuffer+0xd0>)
 8003fbc:	68fa      	ldr	r2, [r7, #12]
 8003fbe:	4613      	mov	r3, r2
 8003fc0:	005b      	lsls	r3, r3, #1
 8003fc2:	4413      	add	r3, r2
 8003fc4:	00db      	lsls	r3, r3, #3
 8003fc6:	440b      	add	r3, r1
 8003fc8:	3360      	adds	r3, #96	; 0x60
 8003fca:	68ba      	ldr	r2, [r7, #8]
 8003fcc:	601a      	str	r2, [r3, #0]
 8003fce:	4920      	ldr	r1, [pc, #128]	; (8004050 <SEGGER_RTT_ConfigDownBuffer+0xd0>)
 8003fd0:	68fa      	ldr	r2, [r7, #12]
 8003fd2:	4613      	mov	r3, r2
 8003fd4:	005b      	lsls	r3, r3, #1
 8003fd6:	4413      	add	r3, r2
 8003fd8:	00db      	lsls	r3, r3, #3
 8003fda:	440b      	add	r3, r1
 8003fdc:	3364      	adds	r3, #100	; 0x64
 8003fde:	687a      	ldr	r2, [r7, #4]
 8003fe0:	601a      	str	r2, [r3, #0]
 8003fe2:	491b      	ldr	r1, [pc, #108]	; (8004050 <SEGGER_RTT_ConfigDownBuffer+0xd0>)
 8003fe4:	68fa      	ldr	r2, [r7, #12]
 8003fe6:	4613      	mov	r3, r2
 8003fe8:	005b      	lsls	r3, r3, #1
 8003fea:	4413      	add	r3, r2
 8003fec:	00db      	lsls	r3, r3, #3
 8003fee:	440b      	add	r3, r1
 8003ff0:	3368      	adds	r3, #104	; 0x68
 8003ff2:	683a      	ldr	r2, [r7, #0]
 8003ff4:	601a      	str	r2, [r3, #0]
 8003ff6:	4916      	ldr	r1, [pc, #88]	; (8004050 <SEGGER_RTT_ConfigDownBuffer+0xd0>)
 8003ff8:	68fa      	ldr	r2, [r7, #12]
 8003ffa:	4613      	mov	r3, r2
 8003ffc:	005b      	lsls	r3, r3, #1
 8003ffe:	4413      	add	r3, r2
 8004000:	00db      	lsls	r3, r3, #3
 8004002:	440b      	add	r3, r1
 8004004:	3370      	adds	r3, #112	; 0x70
 8004006:	2200      	movs	r2, #0
 8004008:	601a      	str	r2, [r3, #0]
 800400a:	4911      	ldr	r1, [pc, #68]	; (8004050 <SEGGER_RTT_ConfigDownBuffer+0xd0>)
 800400c:	68fa      	ldr	r2, [r7, #12]
 800400e:	4613      	mov	r3, r2
 8004010:	005b      	lsls	r3, r3, #1
 8004012:	4413      	add	r3, r2
 8004014:	00db      	lsls	r3, r3, #3
 8004016:	440b      	add	r3, r1
 8004018:	336c      	adds	r3, #108	; 0x6c
 800401a:	2200      	movs	r2, #0
 800401c:	601a      	str	r2, [r3, #0]
 800401e:	490c      	ldr	r1, [pc, #48]	; (8004050 <SEGGER_RTT_ConfigDownBuffer+0xd0>)
 8004020:	68fa      	ldr	r2, [r7, #12]
 8004022:	4613      	mov	r3, r2
 8004024:	005b      	lsls	r3, r3, #1
 8004026:	4413      	add	r3, r2
 8004028:	00db      	lsls	r3, r3, #3
 800402a:	440b      	add	r3, r1
 800402c:	3374      	adds	r3, #116	; 0x74
 800402e:	6a3a      	ldr	r2, [r7, #32]
 8004030:	601a      	str	r2, [r3, #0]
 8004032:	693b      	ldr	r3, [r7, #16]
 8004034:	f383 8811 	msr	BASEPRI, r3
 8004038:	2300      	movs	r3, #0
 800403a:	617b      	str	r3, [r7, #20]
 800403c:	e002      	b.n	8004044 <SEGGER_RTT_ConfigDownBuffer+0xc4>
 800403e:	f04f 33ff 	mov.w	r3, #4294967295
 8004042:	617b      	str	r3, [r7, #20]
 8004044:	697b      	ldr	r3, [r7, #20]
 8004046:	4618      	mov	r0, r3
 8004048:	3718      	adds	r7, #24
 800404a:	46bd      	mov	sp, r7
 800404c:	bd80      	pop	{r7, pc}
 800404e:	bf00      	nop
 8004050:	200156a0 	.word	0x200156a0

08004054 <_EncodeStr>:
 8004054:	b480      	push	{r7}
 8004056:	b087      	sub	sp, #28
 8004058:	af00      	add	r7, sp, #0
 800405a:	60f8      	str	r0, [r7, #12]
 800405c:	60b9      	str	r1, [r7, #8]
 800405e:	607a      	str	r2, [r7, #4]
 8004060:	2300      	movs	r3, #0
 8004062:	613b      	str	r3, [r7, #16]
 8004064:	e002      	b.n	800406c <_EncodeStr+0x18>
 8004066:	693b      	ldr	r3, [r7, #16]
 8004068:	3301      	adds	r3, #1
 800406a:	613b      	str	r3, [r7, #16]
 800406c:	68ba      	ldr	r2, [r7, #8]
 800406e:	693b      	ldr	r3, [r7, #16]
 8004070:	4413      	add	r3, r2
 8004072:	781b      	ldrb	r3, [r3, #0]
 8004074:	2b00      	cmp	r3, #0
 8004076:	d1f6      	bne.n	8004066 <_EncodeStr+0x12>
 8004078:	693a      	ldr	r2, [r7, #16]
 800407a:	687b      	ldr	r3, [r7, #4]
 800407c:	429a      	cmp	r2, r3
 800407e:	d901      	bls.n	8004084 <_EncodeStr+0x30>
 8004080:	687b      	ldr	r3, [r7, #4]
 8004082:	613b      	str	r3, [r7, #16]
 8004084:	693b      	ldr	r3, [r7, #16]
 8004086:	2bfe      	cmp	r3, #254	; 0xfe
 8004088:	d806      	bhi.n	8004098 <_EncodeStr+0x44>
 800408a:	68fb      	ldr	r3, [r7, #12]
 800408c:	1c5a      	adds	r2, r3, #1
 800408e:	60fa      	str	r2, [r7, #12]
 8004090:	693a      	ldr	r2, [r7, #16]
 8004092:	b2d2      	uxtb	r2, r2
 8004094:	701a      	strb	r2, [r3, #0]
 8004096:	e011      	b.n	80040bc <_EncodeStr+0x68>
 8004098:	68fb      	ldr	r3, [r7, #12]
 800409a:	1c5a      	adds	r2, r3, #1
 800409c:	60fa      	str	r2, [r7, #12]
 800409e:	22ff      	movs	r2, #255	; 0xff
 80040a0:	701a      	strb	r2, [r3, #0]
 80040a2:	68fb      	ldr	r3, [r7, #12]
 80040a4:	1c5a      	adds	r2, r3, #1
 80040a6:	60fa      	str	r2, [r7, #12]
 80040a8:	693a      	ldr	r2, [r7, #16]
 80040aa:	b2d2      	uxtb	r2, r2
 80040ac:	701a      	strb	r2, [r3, #0]
 80040ae:	693b      	ldr	r3, [r7, #16]
 80040b0:	0a19      	lsrs	r1, r3, #8
 80040b2:	68fb      	ldr	r3, [r7, #12]
 80040b4:	1c5a      	adds	r2, r3, #1
 80040b6:	60fa      	str	r2, [r7, #12]
 80040b8:	b2ca      	uxtb	r2, r1
 80040ba:	701a      	strb	r2, [r3, #0]
 80040bc:	2300      	movs	r3, #0
 80040be:	617b      	str	r3, [r7, #20]
 80040c0:	e00a      	b.n	80040d8 <_EncodeStr+0x84>
 80040c2:	68ba      	ldr	r2, [r7, #8]
 80040c4:	1c53      	adds	r3, r2, #1
 80040c6:	60bb      	str	r3, [r7, #8]
 80040c8:	68fb      	ldr	r3, [r7, #12]
 80040ca:	1c59      	adds	r1, r3, #1
 80040cc:	60f9      	str	r1, [r7, #12]
 80040ce:	7812      	ldrb	r2, [r2, #0]
 80040d0:	701a      	strb	r2, [r3, #0]
 80040d2:	697b      	ldr	r3, [r7, #20]
 80040d4:	3301      	adds	r3, #1
 80040d6:	617b      	str	r3, [r7, #20]
 80040d8:	697a      	ldr	r2, [r7, #20]
 80040da:	693b      	ldr	r3, [r7, #16]
 80040dc:	429a      	cmp	r2, r3
 80040de:	d3f0      	bcc.n	80040c2 <_EncodeStr+0x6e>
 80040e0:	68fb      	ldr	r3, [r7, #12]
 80040e2:	4618      	mov	r0, r3
 80040e4:	371c      	adds	r7, #28
 80040e6:	46bd      	mov	sp, r7
 80040e8:	f85d 7b04 	ldr.w	r7, [sp], #4
 80040ec:	4770      	bx	lr

080040ee <_PreparePacket>:
 80040ee:	b480      	push	{r7}
 80040f0:	b083      	sub	sp, #12
 80040f2:	af00      	add	r7, sp, #0
 80040f4:	6078      	str	r0, [r7, #4]
 80040f6:	687b      	ldr	r3, [r7, #4]
 80040f8:	3304      	adds	r3, #4
 80040fa:	4618      	mov	r0, r3
 80040fc:	370c      	adds	r7, #12
 80040fe:	46bd      	mov	sp, r7
 8004100:	f85d 7b04 	ldr.w	r7, [sp], #4
 8004104:	4770      	bx	lr

08004106 <_HandleIncomingPacket>:
 8004106:	b580      	push	{r7, lr}
 8004108:	b082      	sub	sp, #8
 800410a:	af00      	add	r7, sp, #0
 800410c:	1cfb      	adds	r3, r7, #3
 800410e:	2201      	movs	r2, #1
 8004110:	4619      	mov	r1, r3
 8004112:	2001      	movs	r0, #1
 8004114:	f7ff fe48 	bl	8003da8 <SEGGER_RTT_ReadNoLock>
 8004118:	4603      	mov	r3, r0
 800411a:	607b      	str	r3, [r7, #4]
 800411c:	687b      	ldr	r3, [r7, #4]
 800411e:	2b00      	cmp	r3, #0
 8004120:	dd44      	ble.n	80041ac <_HandleIncomingPacket+0xa6>
 8004122:	78fb      	ldrb	r3, [r7, #3]
 8004124:	2b04      	cmp	r3, #4
 8004126:	d01a      	beq.n	800415e <_HandleIncomingPacket+0x58>
 8004128:	2b04      	cmp	r3, #4
 800412a:	dc06      	bgt.n	800413a <_HandleIncomingPacket+0x34>
 800412c:	2b02      	cmp	r3, #2
 800412e:	d010      	beq.n	8004152 <_HandleIncomingPacket+0x4c>
 8004130:	2b02      	cmp	r3, #2
 8004132:	dc11      	bgt.n	8004158 <_HandleIncomingPacket+0x52>
 8004134:	2b01      	cmp	r3, #1
 8004136:	d009      	beq.n	800414c <_HandleIncomingPacket+0x46>
 8004138:	e02d      	b.n	8004196 <_HandleIncomingPacket+0x90>
 800413a:	2b06      	cmp	r3, #6
 800413c:	d015      	beq.n	800416a <_HandleIncomingPacket+0x64>
 800413e:	2b06      	cmp	r3, #6
 8004140:	db10      	blt.n	8004164 <_HandleIncomingPacket+0x5e>
 8004142:	2b07      	cmp	r3, #7
 8004144:	d014      	beq.n	8004170 <_HandleIncomingPacket+0x6a>
 8004146:	2b80      	cmp	r3, #128	; 0x80
 8004148:	d015      	beq.n	8004176 <_HandleIncomingPacket+0x70>
 800414a:	e024      	b.n	8004196 <_HandleIncomingPacket+0x90>
 800414c:	f000 fa7e 	bl	800464c <SEGGER_SYSVIEW_Start>
 8004150:	e031      	b.n	80041b6 <_HandleIncomingPacket+0xb0>
 8004152:	f000 fb33 	bl	80047bc <SEGGER_SYSVIEW_Stop>
 8004156:	e02e      	b.n	80041b6 <_HandleIncomingPacket+0xb0>
 8004158:	f000 fd0e 	bl	8004b78 <SEGGER_SYSVIEW_RecordSystime>
 800415c:	e02b      	b.n	80041b6 <_HandleIncomingPacket+0xb0>
 800415e:	f000 fcd3 	bl	8004b08 <SEGGER_SYSVIEW_SendTaskList>
 8004162:	e028      	b.n	80041b6 <_HandleIncomingPacket+0xb0>
 8004164:	f000 fb50 	bl	8004808 <SEGGER_SYSVIEW_GetSysDesc>
 8004168:	e025      	b.n	80041b6 <_HandleIncomingPacket+0xb0>
 800416a:	f000 ff95 	bl	8005098 <SEGGER_SYSVIEW_SendNumModules>
 800416e:	e022      	b.n	80041b6 <_HandleIncomingPacket+0xb0>
 8004170:	f000 ff74 	bl	800505c <SEGGER_SYSVIEW_SendModuleDescription>
 8004174:	e01f      	b.n	80041b6 <_HandleIncomingPacket+0xb0>
 8004176:	1cfb      	adds	r3, r7, #3
 8004178:	2201      	movs	r2, #1
 800417a:	4619      	mov	r1, r3
 800417c:	2001      	movs	r0, #1
 800417e:	f7ff fe13 	bl	8003da8 <SEGGER_RTT_ReadNoLock>
 8004182:	4603      	mov	r3, r0
 8004184:	607b      	str	r3, [r7, #4]
 8004186:	687b      	ldr	r3, [r7, #4]
 8004188:	2b00      	cmp	r3, #0
 800418a:	dd11      	ble.n	80041b0 <_HandleIncomingPacket+0xaa>
 800418c:	78fb      	ldrb	r3, [r7, #3]
 800418e:	4618      	mov	r0, r3
 8004190:	f000 fee4 	bl	8004f5c <SEGGER_SYSVIEW_SendModule>
 8004194:	e00c      	b.n	80041b0 <_HandleIncomingPacket+0xaa>
 8004196:	78fb      	ldrb	r3, [r7, #3]
 8004198:	b25b      	sxtb	r3, r3
 800419a:	2b00      	cmp	r3, #0
 800419c:	da0a      	bge.n	80041b4 <_HandleIncomingPacket+0xae>
 800419e:	1cfb      	adds	r3, r7, #3
 80041a0:	2201      	movs	r2, #1
 80041a2:	4619      	mov	r1, r3
 80041a4:	2001      	movs	r0, #1
 80041a6:	f7ff fdff 	bl	8003da8 <SEGGER_RTT_ReadNoLock>
 80041aa:	e003      	b.n	80041b4 <_HandleIncomingPacket+0xae>
 80041ac:	bf00      	nop
 80041ae:	e002      	b.n	80041b6 <_HandleIncomingPacket+0xb0>
 80041b0:	bf00      	nop
 80041b2:	e000      	b.n	80041b6 <_HandleIncomingPacket+0xb0>
 80041b4:	bf00      	nop
 80041b6:	bf00      	nop
 80041b8:	3708      	adds	r7, #8
 80041ba:	46bd      	mov	sp, r7
 80041bc:	bd80      	pop	{r7, pc}
	...

080041c0 <_TrySendOverflowPacket>:
 80041c0:	b580      	push	{r7, lr}
 80041c2:	b08c      	sub	sp, #48	; 0x30
 80041c4:	af00      	add	r7, sp, #0
 80041c6:	2301      	movs	r3, #1
 80041c8:	713b      	strb	r3, [r7, #4]
 80041ca:	1d3b      	adds	r3, r7, #4
 80041cc:	3301      	adds	r3, #1
 80041ce:	61fb      	str	r3, [r7, #28]
 80041d0:	69fb      	ldr	r3, [r7, #28]
 80041d2:	62fb      	str	r3, [r7, #44]	; 0x2c
 80041d4:	4b30      	ldr	r3, [pc, #192]	; (8004298 <_TrySendOverflowPacket+0xd8>)
 80041d6:	695b      	ldr	r3, [r3, #20]
 80041d8:	62bb      	str	r3, [r7, #40]	; 0x28
 80041da:	e00b      	b.n	80041f4 <_TrySendOverflowPacket+0x34>
 80041dc:	6abb      	ldr	r3, [r7, #40]	; 0x28
 80041de:	b2da      	uxtb	r2, r3
 80041e0:	6afb      	ldr	r3, [r7, #44]	; 0x2c
 80041e2:	1c59      	adds	r1, r3, #1
 80041e4:	62f9      	str	r1, [r7, #44]	; 0x2c
 80041e6:	f062 027f 	orn	r2, r2, #127	; 0x7f
 80041ea:	b2d2      	uxtb	r2, r2
 80041ec:	701a      	strb	r2, [r3, #0]
 80041ee:	6abb      	ldr	r3, [r7, #40]	; 0x28
 80041f0:	09db      	lsrs	r3, r3, #7
 80041f2:	62bb      	str	r3, [r7, #40]	; 0x28
 80041f4:	6abb      	ldr	r3, [r7, #40]	; 0x28
 80041f6:	2b7f      	cmp	r3, #127	; 0x7f
 80041f8:	d8f0      	bhi.n	80041dc <_TrySendOverflowPacket+0x1c>
 80041fa:	6afb      	ldr	r3, [r7, #44]	; 0x2c
 80041fc:	1c5a      	adds	r2, r3, #1
 80041fe:	62fa      	str	r2, [r7, #44]	; 0x2c
 8004200:	6aba      	ldr	r2, [r7, #40]	; 0x28
 8004202:	b2d2      	uxtb	r2, r2
 8004204:	701a      	strb	r2, [r3, #0]
 8004206:	6afb      	ldr	r3, [r7, #44]	; 0x2c
 8004208:	61fb      	str	r3, [r7, #28]
 800420a:	4b24      	ldr	r3, [pc, #144]	; (800429c <_TrySendOverflowPacket+0xdc>)
 800420c:	681b      	ldr	r3, [r3, #0]
 800420e:	61bb      	str	r3, [r7, #24]
 8004210:	4b21      	ldr	r3, [pc, #132]	; (8004298 <_TrySendOverflowPacket+0xd8>)
 8004212:	68db      	ldr	r3, [r3, #12]
 8004214:	69ba      	ldr	r2, [r7, #24]
 8004216:	1ad3      	subs	r3, r2, r3
 8004218:	617b      	str	r3, [r7, #20]
 800421a:	69fb      	ldr	r3, [r7, #28]
 800421c:	627b      	str	r3, [r7, #36]	; 0x24
 800421e:	697b      	ldr	r3, [r7, #20]
 8004220:	623b      	str	r3, [r7, #32]
 8004222:	e00b      	b.n	800423c <_TrySendOverflowPacket+0x7c>
 8004224:	6a3b      	ldr	r3, [r7, #32]
 8004226:	b2da      	uxtb	r2, r3
 8004228:	6a7b      	ldr	r3, [r7, #36]	; 0x24
 800422a:	1c59      	adds	r1, r3, #1
 800422c:	6279      	str	r1, [r7, #36]	; 0x24
 800422e:	f062 027f 	orn	r2, r2, #127	; 0x7f
 8004232:	b2d2      	uxtb	r2, r2
 8004234:	701a      	strb	r2, [r3, #0]
 8004236:	6a3b      	ldr	r3, [r7, #32]
 8004238:	09db      	lsrs	r3, r3, #7
 800423a:	623b      	str	r3, [r7, #32]
 800423c:	6a3b      	ldr	r3, [r7, #32]
 800423e:	2b7f      	cmp	r3, #127	; 0x7f
 8004240:	d8f0      	bhi.n	8004224 <_TrySendOverflowPacket+0x64>
 8004242:	6a7b      	ldr	r3, [r7, #36]	; 0x24
 8004244:	1c5a      	adds	r2, r3, #1
 8004246:	627a      	str	r2, [r7, #36]	; 0x24
 8004248:	6a3a      	ldr	r2, [r7, #32]
 800424a:	b2d2      	uxtb	r2, r2
 800424c:	701a      	strb	r2, [r3, #0]
 800424e:	6a7b      	ldr	r3, [r7, #36]	; 0x24
 8004250:	61fb      	str	r3, [r7, #28]
 8004252:	69fa      	ldr	r2, [r7, #28]
 8004254:	1d3b      	adds	r3, r7, #4
 8004256:	1ad3      	subs	r3, r2, r3
 8004258:	461a      	mov	r2, r3
 800425a:	1d3b      	adds	r3, r7, #4
 800425c:	4619      	mov	r1, r3
 800425e:	2001      	movs	r0, #1
 8004260:	f7fb ffc6 	bl	80001f0 <SEGGER_RTT_ASM_WriteSkipNoLock>
 8004264:	4603      	mov	r3, r0
 8004266:	613b      	str	r3, [r7, #16]
 8004268:	693b      	ldr	r3, [r7, #16]
 800426a:	2b00      	cmp	r3, #0
 800426c:	d009      	beq.n	8004282 <_TrySendOverflowPacket+0xc2>
 800426e:	4a0a      	ldr	r2, [pc, #40]	; (8004298 <_TrySendOverflowPacket+0xd8>)
 8004270:	69bb      	ldr	r3, [r7, #24]
 8004272:	60d3      	str	r3, [r2, #12]
 8004274:	4b08      	ldr	r3, [pc, #32]	; (8004298 <_TrySendOverflowPacket+0xd8>)
 8004276:	781b      	ldrb	r3, [r3, #0]
 8004278:	3b01      	subs	r3, #1
 800427a:	b2da      	uxtb	r2, r3
 800427c:	4b06      	ldr	r3, [pc, #24]	; (8004298 <_TrySendOverflowPacket+0xd8>)
 800427e:	701a      	strb	r2, [r3, #0]
 8004280:	e004      	b.n	800428c <_TrySendOverflowPacket+0xcc>
 8004282:	4b05      	ldr	r3, [pc, #20]	; (8004298 <_TrySendOverflowPacket+0xd8>)
 8004284:	695b      	ldr	r3, [r3, #20]
 8004286:	3301      	adds	r3, #1
 8004288:	4a03      	ldr	r2, [pc, #12]	; (8004298 <_TrySendOverflowPacket+0xd8>)
 800428a:	6153      	str	r3, [r2, #20]
 800428c:	693b      	ldr	r3, [r7, #16]
 800428e:	4618      	mov	r0, r3
 8004290:	3730      	adds	r7, #48	; 0x30
 8004292:	46bd      	mov	sp, r7
 8004294:	bd80      	pop	{r7, pc}
 8004296:	bf00      	nop
 8004298:	200154dc 	.word	0x200154dc
 800429c:	e0001004 	.word	0xe0001004

080042a0 <_SendPacket>:
 80042a0:	b580      	push	{r7, lr}
 80042a2:	b08a      	sub	sp, #40	; 0x28
 80042a4:	af00      	add	r7, sp, #0
 80042a6:	60f8      	str	r0, [r7, #12]
 80042a8:	60b9      	str	r1, [r7, #8]
 80042aa:	607a      	str	r2, [r7, #4]
 80042ac:	4b63      	ldr	r3, [pc, #396]	; (800443c <_SendPacket+0x19c>)
 80042ae:	781b      	ldrb	r3, [r3, #0]
 80042b0:	2b01      	cmp	r3, #1
 80042b2:	d010      	beq.n	80042d6 <_SendPacket+0x36>
 80042b4:	4b61      	ldr	r3, [pc, #388]	; (800443c <_SendPacket+0x19c>)
 80042b6:	781b      	ldrb	r3, [r3, #0]
 80042b8:	2b00      	cmp	r3, #0
 80042ba:	f000 80a1 	beq.w	8004400 <_SendPacket+0x160>
 80042be:	4b5f      	ldr	r3, [pc, #380]	; (800443c <_SendPacket+0x19c>)
 80042c0:	781b      	ldrb	r3, [r3, #0]
 80042c2:	2b02      	cmp	r3, #2
 80042c4:	d109      	bne.n	80042da <_SendPacket+0x3a>
 80042c6:	f7ff ff7b 	bl	80041c0 <_TrySendOverflowPacket>
 80042ca:	4b5c      	ldr	r3, [pc, #368]	; (800443c <_SendPacket+0x19c>)
 80042cc:	781b      	ldrb	r3, [r3, #0]
 80042ce:	2b01      	cmp	r3, #1
 80042d0:	f040 8098 	bne.w	8004404 <_SendPacket+0x164>
 80042d4:	e001      	b.n	80042da <_SendPacket+0x3a>
 80042d6:	bf00      	nop
 80042d8:	e000      	b.n	80042dc <_SendPacket+0x3c>
 80042da:	bf00      	nop
 80042dc:	687b      	ldr	r3, [r7, #4]
 80042de:	2b1f      	cmp	r3, #31
 80042e0:	d809      	bhi.n	80042f6 <_SendPacket+0x56>
 80042e2:	4b56      	ldr	r3, [pc, #344]	; (800443c <_SendPacket+0x19c>)
 80042e4:	69da      	ldr	r2, [r3, #28]
 80042e6:	687b      	ldr	r3, [r7, #4]
 80042e8:	fa22 f303 	lsr.w	r3, r2, r3
 80042ec:	f003 0301 	and.w	r3, r3, #1
 80042f0:	2b00      	cmp	r3, #0
 80042f2:	f040 8089 	bne.w	8004408 <_SendPacket+0x168>
 80042f6:	687b      	ldr	r3, [r7, #4]
 80042f8:	2b17      	cmp	r3, #23
 80042fa:	d807      	bhi.n	800430c <_SendPacket+0x6c>
 80042fc:	68fb      	ldr	r3, [r7, #12]
 80042fe:	3b01      	subs	r3, #1
 8004300:	60fb      	str	r3, [r7, #12]
 8004302:	687b      	ldr	r3, [r7, #4]
 8004304:	b2da      	uxtb	r2, r3
 8004306:	68fb      	ldr	r3, [r7, #12]
 8004308:	701a      	strb	r2, [r3, #0]
 800430a:	e03d      	b.n	8004388 <_SendPacket+0xe8>
 800430c:	68ba      	ldr	r2, [r7, #8]
 800430e:	68fb      	ldr	r3, [r7, #12]
 8004310:	1ad3      	subs	r3, r2, r3
 8004312:	61fb      	str	r3, [r7, #28]
 8004314:	69fb      	ldr	r3, [r7, #28]
 8004316:	2b7f      	cmp	r3, #127	; 0x7f
 8004318:	d912      	bls.n	8004340 <_SendPacket+0xa0>
 800431a:	69fb      	ldr	r3, [r7, #28]
 800431c:	09da      	lsrs	r2, r3, #7
 800431e:	68fb      	ldr	r3, [r7, #12]
 8004320:	3b01      	subs	r3, #1
 8004322:	60fb      	str	r3, [r7, #12]
 8004324:	b2d2      	uxtb	r2, r2
 8004326:	68fb      	ldr	r3, [r7, #12]
 8004328:	701a      	strb	r2, [r3, #0]
 800432a:	69fb      	ldr	r3, [r7, #28]
 800432c:	b2db      	uxtb	r3, r3
 800432e:	68fa      	ldr	r2, [r7, #12]
 8004330:	3a01      	subs	r2, #1
 8004332:	60fa      	str	r2, [r7, #12]
 8004334:	f063 037f 	orn	r3, r3, #127	; 0x7f
 8004338:	b2da      	uxtb	r2, r3
 800433a:	68fb      	ldr	r3, [r7, #12]
 800433c:	701a      	strb	r2, [r3, #0]
 800433e:	e006      	b.n	800434e <_SendPacket+0xae>
 8004340:	68fb      	ldr	r3, [r7, #12]
 8004342:	3b01      	subs	r3, #1
 8004344:	60fb      	str	r3, [r7, #12]
 8004346:	69fb      	ldr	r3, [r7, #28]
 8004348:	b2da      	uxtb	r2, r3
 800434a:	68fb      	ldr	r3, [r7, #12]
 800434c:	701a      	strb	r2, [r3, #0]
 800434e:	687b      	ldr	r3, [r7, #4]
 8004350:	2b7f      	cmp	r3, #127	; 0x7f
 8004352:	d912      	bls.n	800437a <_SendPacket+0xda>
 8004354:	687b      	ldr	r3, [r7, #4]
 8004356:	09da      	lsrs	r2, r3, #7
 8004358:	68fb      	ldr	r3, [r7, #12]
 800435a:	3b01      	subs	r3, #1
 800435c:	60fb      	str	r3, [r7, #12]
 800435e:	b2d2      	uxtb	r2, r2
 8004360:	68fb      	ldr	r3, [r7, #12]
 8004362:	701a      	strb	r2, [r3, #0]
 8004364:	687b      	ldr	r3, [r7, #4]
 8004366:	b2db      	uxtb	r3, r3
 8004368:	68fa      	ldr	r2, [r7, #12]
 800436a:	3a01      	subs	r2, #1
 800436c:	60fa      	str	r2, [r7, #12]
 800436e:	f063 037f 	orn	r3, r3, #127	; 0x7f
 8004372:	b2da      	uxtb	r2, r3
 8004374:	68fb      	ldr	r3, [r7, #12]
 8004376:	701a      	strb	r2, [r3, #0]
 8004378:	e006      	b.n	8004388 <_SendPacket+0xe8>
 800437a:	68fb      	ldr	r3, [r7, #12]
 800437c:	3b01      	subs	r3, #1
 800437e:	60fb      	str	r3, [r7, #12]
 8004380:	687b      	ldr	r3, [r7, #4]
 8004382:	b2da      	uxtb	r2, r3
 8004384:	68fb      	ldr	r3, [r7, #12]
 8004386:	701a      	strb	r2, [r3, #0]
 8004388:	4b2d      	ldr	r3, [pc, #180]	; (8004440 <_SendPacket+0x1a0>)
 800438a:	681b      	ldr	r3, [r3, #0]
 800438c:	61bb      	str	r3, [r7, #24]
 800438e:	4b2b      	ldr	r3, [pc, #172]	; (800443c <_SendPacket+0x19c>)
 8004390:	68db      	ldr	r3, [r3, #12]
 8004392:	69ba      	ldr	r2, [r7, #24]
 8004394:	1ad3      	subs	r3, r2, r3
 8004396:	617b      	str	r3, [r7, #20]
 8004398:	68bb      	ldr	r3, [r7, #8]
 800439a:	627b      	str	r3, [r7, #36]	; 0x24
 800439c:	697b      	ldr	r3, [r7, #20]
 800439e:	623b      	str	r3, [r7, #32]
 80043a0:	e00b      	b.n	80043ba <_SendPacket+0x11a>
 80043a2:	6a3b      	ldr	r3, [r7, #32]
 80043a4:	b2da      	uxtb	r2, r3
 80043a6:	6a7b      	ldr	r3, [r7, #36]	; 0x24
 80043a8:	1c59      	adds	r1, r3, #1
 80043aa:	6279      	str	r1, [r7, #36]	; 0x24
 80043ac:	f062 027f 	orn	r2, r2, #127	; 0x7f
 80043b0:	b2d2      	uxtb	r2, r2
 80043b2:	701a      	strb	r2, [r3, #0]
 80043b4:	6a3b      	ldr	r3, [r7, #32]
 80043b6:	09db      	lsrs	r3, r3, #7
 80043b8:	623b      	str	r3, [r7, #32]
 80043ba:	6a3b      	ldr	r3, [r7, #32]
 80043bc:	2b7f      	cmp	r3, #127	; 0x7f
 80043be:	d8f0      	bhi.n	80043a2 <_SendPacket+0x102>
 80043c0:	6a7b      	ldr	r3, [r7, #36]	; 0x24
 80043c2:	1c5a      	adds	r2, r3, #1
 80043c4:	627a      	str	r2, [r7, #36]	; 0x24
 80043c6:	6a3a      	ldr	r2, [r7, #32]
 80043c8:	b2d2      	uxtb	r2, r2
 80043ca:	701a      	strb	r2, [r3, #0]
 80043cc:	6a7b      	ldr	r3, [r7, #36]	; 0x24
 80043ce:	60bb      	str	r3, [r7, #8]
 80043d0:	68ba      	ldr	r2, [r7, #8]
 80043d2:	68fb      	ldr	r3, [r7, #12]
 80043d4:	1ad3      	subs	r3, r2, r3
 80043d6:	461a      	mov	r2, r3
 80043d8:	68f9      	ldr	r1, [r7, #12]
 80043da:	2001      	movs	r0, #1
 80043dc:	f7fb ff08 	bl	80001f0 <SEGGER_RTT_ASM_WriteSkipNoLock>
 80043e0:	4603      	mov	r3, r0
 80043e2:	613b      	str	r3, [r7, #16]
 80043e4:	693b      	ldr	r3, [r7, #16]
 80043e6:	2b00      	cmp	r3, #0
 80043e8:	d003      	beq.n	80043f2 <_SendPacket+0x152>
 80043ea:	4a14      	ldr	r2, [pc, #80]	; (800443c <_SendPacket+0x19c>)
 80043ec:	69bb      	ldr	r3, [r7, #24]
 80043ee:	60d3      	str	r3, [r2, #12]
 80043f0:	e00b      	b.n	800440a <_SendPacket+0x16a>
 80043f2:	4b12      	ldr	r3, [pc, #72]	; (800443c <_SendPacket+0x19c>)
 80043f4:	781b      	ldrb	r3, [r3, #0]
 80043f6:	3301      	adds	r3, #1
 80043f8:	b2da      	uxtb	r2, r3
 80043fa:	4b10      	ldr	r3, [pc, #64]	; (800443c <_SendPacket+0x19c>)
 80043fc:	701a      	strb	r2, [r3, #0]
 80043fe:	e004      	b.n	800440a <_SendPacket+0x16a>
 8004400:	bf00      	nop
 8004402:	e002      	b.n	800440a <_SendPacket+0x16a>
 8004404:	bf00      	nop
 8004406:	e000      	b.n	800440a <_SendPacket+0x16a>
 8004408:	bf00      	nop
 800440a:	4b0e      	ldr	r3, [pc, #56]	; (8004444 <_SendPacket+0x1a4>)
 800440c:	f8d3 2084 	ldr.w	r2, [r3, #132]	; 0x84
 8004410:	4b0c      	ldr	r3, [pc, #48]	; (8004444 <_SendPacket+0x1a4>)
 8004412:	f8d3 3088 	ldr.w	r3, [r3, #136]	; 0x88
 8004416:	429a      	cmp	r2, r3
 8004418:	d00b      	beq.n	8004432 <_SendPacket+0x192>
 800441a:	4b08      	ldr	r3, [pc, #32]	; (800443c <_SendPacket+0x19c>)
 800441c:	789b      	ldrb	r3, [r3, #2]
 800441e:	2b00      	cmp	r3, #0
 8004420:	d107      	bne.n	8004432 <_SendPacket+0x192>
 8004422:	4b06      	ldr	r3, [pc, #24]	; (800443c <_SendPacket+0x19c>)
 8004424:	2201      	movs	r2, #1
 8004426:	709a      	strb	r2, [r3, #2]
 8004428:	f7ff fe6d 	bl	8004106 <_HandleIncomingPacket>
 800442c:	4b03      	ldr	r3, [pc, #12]	; (800443c <_SendPacket+0x19c>)
 800442e:	2200      	movs	r2, #0
 8004430:	709a      	strb	r2, [r3, #2]
 8004432:	bf00      	nop
 8004434:	3728      	adds	r7, #40	; 0x28
 8004436:	46bd      	mov	sp, r7
 8004438:	bd80      	pop	{r7, pc}
 800443a:	bf00      	nop
 800443c:	200154dc 	.word	0x200154dc
 8004440:	e0001004 	.word	0xe0001004
 8004444:	200156a0 	.word	0x200156a0

08004448 <SEGGER_SYSVIEW_Init>:
 8004448:	b580      	push	{r7, lr}
 800444a:	b086      	sub	sp, #24
 800444c:	af02      	add	r7, sp, #8
 800444e:	60f8      	str	r0, [r7, #12]
 8004450:	60b9      	str	r1, [r7, #8]
 8004452:	607a      	str	r2, [r7, #4]
 8004454:	603b      	str	r3, [r7, #0]
 8004456:	2300      	movs	r3, #0
 8004458:	9300      	str	r3, [sp, #0]
 800445a:	f44f 5300 	mov.w	r3, #8192	; 0x2000
 800445e:	4a14      	ldr	r2, [pc, #80]	; (80044b0 <SEGGER_SYSVIEW_Init+0x68>)
 8004460:	4914      	ldr	r1, [pc, #80]	; (80044b4 <SEGGER_SYSVIEW_Init+0x6c>)
 8004462:	2001      	movs	r0, #1
 8004464:	f7ff fd22 	bl	8003eac <SEGGER_RTT_ConfigUpBuffer>
 8004468:	2300      	movs	r3, #0
 800446a:	9300      	str	r3, [sp, #0]
 800446c:	2308      	movs	r3, #8
 800446e:	4a12      	ldr	r2, [pc, #72]	; (80044b8 <SEGGER_SYSVIEW_Init+0x70>)
 8004470:	4910      	ldr	r1, [pc, #64]	; (80044b4 <SEGGER_SYSVIEW_Init+0x6c>)
 8004472:	2001      	movs	r0, #1
 8004474:	f7ff fd84 	bl	8003f80 <SEGGER_RTT_ConfigDownBuffer>
 8004478:	4b10      	ldr	r3, [pc, #64]	; (80044bc <SEGGER_SYSVIEW_Init+0x74>)
 800447a:	f04f 5280 	mov.w	r2, #268435456	; 0x10000000
 800447e:	611a      	str	r2, [r3, #16]
 8004480:	4b0f      	ldr	r3, [pc, #60]	; (80044c0 <SEGGER_SYSVIEW_Init+0x78>)
 8004482:	681b      	ldr	r3, [r3, #0]
 8004484:	4a0d      	ldr	r2, [pc, #52]	; (80044bc <SEGGER_SYSVIEW_Init+0x74>)
 8004486:	60d3      	str	r3, [r2, #12]
 8004488:	4a0c      	ldr	r2, [pc, #48]	; (80044bc <SEGGER_SYSVIEW_Init+0x74>)
 800448a:	687b      	ldr	r3, [r7, #4]
 800448c:	6213      	str	r3, [r2, #32]
 800448e:	4a0b      	ldr	r2, [pc, #44]	; (80044bc <SEGGER_SYSVIEW_Init+0x74>)
 8004490:	68fb      	ldr	r3, [r7, #12]
 8004492:	6053      	str	r3, [r2, #4]
 8004494:	4a09      	ldr	r2, [pc, #36]	; (80044bc <SEGGER_SYSVIEW_Init+0x74>)
 8004496:	68bb      	ldr	r3, [r7, #8]
 8004498:	6093      	str	r3, [r2, #8]
 800449a:	4a08      	ldr	r2, [pc, #32]	; (80044bc <SEGGER_SYSVIEW_Init+0x74>)
 800449c:	683b      	ldr	r3, [r7, #0]
 800449e:	6253      	str	r3, [r2, #36]	; 0x24
 80044a0:	4b06      	ldr	r3, [pc, #24]	; (80044bc <SEGGER_SYSVIEW_Init+0x74>)
 80044a2:	2200      	movs	r2, #0
 80044a4:	701a      	strb	r2, [r3, #0]
 80044a6:	bf00      	nop
 80044a8:	3710      	adds	r7, #16
 80044aa:	46bd      	mov	sp, r7
 80044ac:	bd80      	pop	{r7, pc}
 80044ae:	bf00      	nop
 80044b0:	200134d4 	.word	0x200134d4
 80044b4:	08005b68 	.word	0x08005b68
 80044b8:	200154d4 	.word	0x200154d4
 80044bc:	200154dc 	.word	0x200154dc
 80044c0:	e0001004 	.word	0xe0001004

080044c4 <SEGGER_SYSVIEW_SetRAMBase>:
 80044c4:	b480      	push	{r7}
 80044c6:	b083      	sub	sp, #12
 80044c8:	af00      	add	r7, sp, #0
 80044ca:	6078      	str	r0, [r7, #4]
 80044cc:	4a04      	ldr	r2, [pc, #16]	; (80044e0 <SEGGER_SYSVIEW_SetRAMBase+0x1c>)
 80044ce:	687b      	ldr	r3, [r7, #4]
 80044d0:	6113      	str	r3, [r2, #16]
 80044d2:	bf00      	nop
 80044d4:	370c      	adds	r7, #12
 80044d6:	46bd      	mov	sp, r7
 80044d8:	f85d 7b04 	ldr.w	r7, [sp], #4
 80044dc:	4770      	bx	lr
 80044de:	bf00      	nop
 80044e0:	200154dc 	.word	0x200154dc

080044e4 <SEGGER_SYSVIEW_RecordVoid>:
 80044e4:	b580      	push	{r7, lr}
 80044e6:	b084      	sub	sp, #16
 80044e8:	af00      	add	r7, sp, #0
 80044ea:	6078      	str	r0, [r7, #4]
 80044ec:	f3ef 8311 	mrs	r3, BASEPRI
 80044f0:	f04f 0120 	mov.w	r1, #32
 80044f4:	f381 8811 	msr	BASEPRI, r1
 80044f8:	60fb      	str	r3, [r7, #12]
 80044fa:	4808      	ldr	r0, [pc, #32]	; (800451c <SEGGER_SYSVIEW_RecordVoid+0x38>)
 80044fc:	f7ff fdf7 	bl	80040ee <_PreparePacket>
 8004500:	60b8      	str	r0, [r7, #8]
 8004502:	687a      	ldr	r2, [r7, #4]
 8004504:	68b9      	ldr	r1, [r7, #8]
 8004506:	68b8      	ldr	r0, [r7, #8]
 8004508:	f7ff feca 	bl	80042a0 <_SendPacket>
 800450c:	68fb      	ldr	r3, [r7, #12]
 800450e:	f383 8811 	msr	BASEPRI, r3
 8004512:	bf00      	nop
 8004514:	3710      	adds	r7, #16
 8004516:	46bd      	mov	sp, r7
 8004518:	bd80      	pop	{r7, pc}
 800451a:	bf00      	nop
 800451c:	2001550c 	.word	0x2001550c

08004520 <SEGGER_SYSVIEW_RecordU32>:
 8004520:	b580      	push	{r7, lr}
 8004522:	b088      	sub	sp, #32
 8004524:	af00      	add	r7, sp, #0
 8004526:	6078      	str	r0, [r7, #4]
 8004528:	6039      	str	r1, [r7, #0]
 800452a:	f3ef 8311 	mrs	r3, BASEPRI
 800452e:	f04f 0120 	mov.w	r1, #32
 8004532:	f381 8811 	msr	BASEPRI, r1
 8004536:	617b      	str	r3, [r7, #20]
 8004538:	4816      	ldr	r0, [pc, #88]	; (8004594 <SEGGER_SYSVIEW_RecordU32+0x74>)
 800453a:	f7ff fdd8 	bl	80040ee <_PreparePacket>
 800453e:	6138      	str	r0, [r7, #16]
 8004540:	693b      	ldr	r3, [r7, #16]
 8004542:	60fb      	str	r3, [r7, #12]
 8004544:	68fb      	ldr	r3, [r7, #12]
 8004546:	61fb      	str	r3, [r7, #28]
 8004548:	683b      	ldr	r3, [r7, #0]
 800454a:	61bb      	str	r3, [r7, #24]
 800454c:	e00b      	b.n	8004566 <SEGGER_SYSVIEW_RecordU32+0x46>
 800454e:	69bb      	ldr	r3, [r7, #24]
 8004550:	b2da      	uxtb	r2, r3
 8004552:	69fb      	ldr	r3, [r7, #28]
 8004554:	1c59      	adds	r1, r3, #1
 8004556:	61f9      	str	r1, [r7, #28]
 8004558:	f062 027f 	orn	r2, r2, #127	; 0x7f
 800455c:	b2d2      	uxtb	r2, r2
 800455e:	701a      	strb	r2, [r3, #0]
 8004560:	69bb      	ldr	r3, [r7, #24]
 8004562:	09db      	lsrs	r3, r3, #7
 8004564:	61bb      	str	r3, [r7, #24]
 8004566:	69bb      	ldr	r3, [r7, #24]
 8004568:	2b7f      	cmp	r3, #127	; 0x7f
 800456a:	d8f0      	bhi.n	800454e <SEGGER_SYSVIEW_RecordU32+0x2e>
 800456c:	69fb      	ldr	r3, [r7, #28]
 800456e:	1c5a      	adds	r2, r3, #1
 8004570:	61fa      	str	r2, [r7, #28]
 8004572:	69ba      	ldr	r2, [r7, #24]
 8004574:	b2d2      	uxtb	r2, r2
 8004576:	701a      	strb	r2, [r3, #0]
 8004578:	69fb      	ldr	r3, [r7, #28]
 800457a:	60fb      	str	r3, [r7, #12]
 800457c:	687a      	ldr	r2, [r7, #4]
 800457e:	68f9      	ldr	r1, [r7, #12]
 8004580:	6938      	ldr	r0, [r7, #16]
 8004582:	f7ff fe8d 	bl	80042a0 <_SendPacket>
 8004586:	697b      	ldr	r3, [r7, #20]
 8004588:	f383 8811 	msr	BASEPRI, r3
 800458c:	bf00      	nop
 800458e:	3720      	adds	r7, #32
 8004590:	46bd      	mov	sp, r7
 8004592:	bd80      	pop	{r7, pc}
 8004594:	2001550c 	.word	0x2001550c

08004598 <SEGGER_SYSVIEW_RecordU32x2>:
 8004598:	b580      	push	{r7, lr}
 800459a:	b08c      	sub	sp, #48	; 0x30
 800459c:	af00      	add	r7, sp, #0
 800459e:	60f8      	str	r0, [r7, #12]
 80045a0:	60b9      	str	r1, [r7, #8]
 80045a2:	607a      	str	r2, [r7, #4]
 80045a4:	f3ef 8311 	mrs	r3, BASEPRI
 80045a8:	f04f 0120 	mov.w	r1, #32
 80045ac:	f381 8811 	msr	BASEPRI, r1
 80045b0:	61fb      	str	r3, [r7, #28]
 80045b2:	4825      	ldr	r0, [pc, #148]	; (8004648 <SEGGER_SYSVIEW_RecordU32x2+0xb0>)
 80045b4:	f7ff fd9b 	bl	80040ee <_PreparePacket>
 80045b8:	61b8      	str	r0, [r7, #24]
 80045ba:	69bb      	ldr	r3, [r7, #24]
 80045bc:	617b      	str	r3, [r7, #20]
 80045be:	697b      	ldr	r3, [r7, #20]
 80045c0:	62fb      	str	r3, [r7, #44]	; 0x2c
 80045c2:	68bb      	ldr	r3, [r7, #8]
 80045c4:	62bb      	str	r3, [r7, #40]	; 0x28
 80045c6:	e00b      	b.n	80045e0 <SEGGER_SYSVIEW_RecordU32x2+0x48>
 80045c8:	6abb      	ldr	r3, [r7, #40]	; 0x28
 80045ca:	b2da      	uxtb	r2, r3
 80045cc:	6afb      	ldr	r3, [r7, #44]	; 0x2c
 80045ce:	1c59      	adds	r1, r3, #1
 80045d0:	62f9      	str	r1, [r7, #44]	; 0x2c
 80045d2:	f062 027f 	orn	r2, r2, #127	; 0x7f
 80045d6:	b2d2      	uxtb	r2, r2
 80045d8:	701a      	strb	r2, [r3, #0]
 80045da:	6abb      	ldr	r3, [r7, #40]	; 0x28
 80045dc:	09db      	lsrs	r3, r3, #7
 80045de:	62bb      	str	r3, [r7, #40]	; 0x28
 80045e0:	6abb      	ldr	r3, [r7, #40]	; 0x28
 80045e2:	2b7f      	cmp	r3, #127	; 0x7f
 80045e4:	d8f0      	bhi.n	80045c8 <SEGGER_SYSVIEW_RecordU32x2+0x30>
 80045e6:	6afb      	ldr	r3, [r7, #44]	; 0x2c
 80045e8:	1c5a      	adds	r2, r3, #1
 80045ea:	62fa      	str	r2, [r7, #44]	; 0x2c
 80045ec:	6aba      	ldr	r2, [r7, #40]	; 0x28
 80045ee:	b2d2      	uxtb	r2, r2
 80045f0:	701a      	strb	r2, [r3, #0]
 80045f2:	6afb      	ldr	r3, [r7, #44]	; 0x2c
 80045f4:	617b      	str	r3, [r7, #20]
 80045f6:	697b      	ldr	r3, [r7, #20]
 80045f8:	627b      	str	r3, [r7, #36]	; 0x24
 80045fa:	687b      	ldr	r3, [r7, #4]
 80045fc:	623b      	str	r3, [r7, #32]
 80045fe:	e00b      	b.n	8004618 <SEGGER_SYSVIEW_RecordU32x2+0x80>
 8004600:	6a3b      	ldr	r3, [r7, #32]
 8004602:	b2da      	uxtb	r2, r3
 8004604:	6a7b      	ldr	r3, [r7, #36]	; 0x24
 8004606:	1c59      	adds	r1, r3, #1
 8004608:	6279      	str	r1, [r7, #36]	; 0x24
 800460a:	f062 027f 	orn	r2, r2, #127	; 0x7f
 800460e:	b2d2      	uxtb	r2, r2
 8004610:	701a      	strb	r2, [r3, #0]
 8004612:	6a3b      	ldr	r3, [r7, #32]
 8004614:	09db      	lsrs	r3, r3, #7
 8004616:	623b      	str	r3, [r7, #32]
 8004618:	6a3b      	ldr	r3, [r7, #32]
 800461a:	2b7f      	cmp	r3, #127	; 0x7f
 800461c:	d8f0      	bhi.n	8004600 <SEGGER_SYSVIEW_RecordU32x2+0x68>
 800461e:	6a7b      	ldr	r3, [r7, #36]	; 0x24
 8004620:	1c5a      	adds	r2, r3, #1
 8004622:	627a      	str	r2, [r7, #36]	; 0x24
 8004624:	6a3a      	ldr	r2, [r7, #32]
 8004626:	b2d2      	uxtb	r2, r2
 8004628:	701a      	strb	r2, [r3, #0]
 800462a:	6a7b      	ldr	r3, [r7, #36]	; 0x24
 800462c:	617b      	str	r3, [r7, #20]
 800462e:	68fa      	ldr	r2, [r7, #12]
 8004630:	6979      	ldr	r1, [r7, #20]
 8004632:	69b8      	ldr	r0, [r7, #24]
 8004634:	f7ff fe34 	bl	80042a0 <_SendPacket>
 8004638:	69fb      	ldr	r3, [r7, #28]
 800463a:	f383 8811 	msr	BASEPRI, r3
 800463e:	bf00      	nop
 8004640:	3730      	adds	r7, #48	; 0x30
 8004642:	46bd      	mov	sp, r7
 8004644:	bd80      	pop	{r7, pc}
 8004646:	bf00      	nop
 8004648:	2001550c 	.word	0x2001550c

0800464c <SEGGER_SYSVIEW_Start>:
 800464c:	b580      	push	{r7, lr}
 800464e:	b08c      	sub	sp, #48	; 0x30
 8004650:	af00      	add	r7, sp, #0
 8004652:	4b57      	ldr	r3, [pc, #348]	; (80047b0 <SEGGER_SYSVIEW_Start+0x164>)
 8004654:	2201      	movs	r2, #1
 8004656:	701a      	strb	r2, [r3, #0]
 8004658:	f3ef 8311 	mrs	r3, BASEPRI
 800465c:	f04f 0120 	mov.w	r1, #32
 8004660:	f381 8811 	msr	BASEPRI, r1
 8004664:	60fb      	str	r3, [r7, #12]
 8004666:	220a      	movs	r2, #10
 8004668:	4952      	ldr	r1, [pc, #328]	; (80047b4 <SEGGER_SYSVIEW_Start+0x168>)
 800466a:	2001      	movs	r0, #1
 800466c:	f7fb fdc0 	bl	80001f0 <SEGGER_RTT_ASM_WriteSkipNoLock>
 8004670:	68fb      	ldr	r3, [r7, #12]
 8004672:	f383 8811 	msr	BASEPRI, r3
 8004676:	200a      	movs	r0, #10
 8004678:	f7ff ff34 	bl	80044e4 <SEGGER_SYSVIEW_RecordVoid>
 800467c:	f3ef 8311 	mrs	r3, BASEPRI
 8004680:	f04f 0120 	mov.w	r1, #32
 8004684:	f381 8811 	msr	BASEPRI, r1
 8004688:	60bb      	str	r3, [r7, #8]
 800468a:	484b      	ldr	r0, [pc, #300]	; (80047b8 <SEGGER_SYSVIEW_Start+0x16c>)
 800468c:	f7ff fd2f 	bl	80040ee <_PreparePacket>
 8004690:	6078      	str	r0, [r7, #4]
 8004692:	687b      	ldr	r3, [r7, #4]
 8004694:	603b      	str	r3, [r7, #0]
 8004696:	683b      	ldr	r3, [r7, #0]
 8004698:	62fb      	str	r3, [r7, #44]	; 0x2c
 800469a:	4b45      	ldr	r3, [pc, #276]	; (80047b0 <SEGGER_SYSVIEW_Start+0x164>)
 800469c:	685b      	ldr	r3, [r3, #4]
 800469e:	62bb      	str	r3, [r7, #40]	; 0x28
 80046a0:	e00b      	b.n	80046ba <SEGGER_SYSVIEW_Start+0x6e>
 80046a2:	6abb      	ldr	r3, [r7, #40]	; 0x28
 80046a4:	b2da      	uxtb	r2, r3
 80046a6:	6afb      	ldr	r3, [r7, #44]	; 0x2c
 80046a8:	1c59      	adds	r1, r3, #1
 80046aa:	62f9      	str	r1, [r7, #44]	; 0x2c
 80046ac:	f062 027f 	orn	r2, r2, #127	; 0x7f
 80046b0:	b2d2      	uxtb	r2, r2
 80046b2:	701a      	strb	r2, [r3, #0]
 80046b4:	6abb      	ldr	r3, [r7, #40]	; 0x28
 80046b6:	09db      	lsrs	r3, r3, #7
 80046b8:	62bb      	str	r3, [r7, #40]	; 0x28
 80046ba:	6abb      	ldr	r3, [r7, #40]	; 0x28
 80046bc:	2b7f      	cmp	r3, #127	; 0x7f
 80046be:	d8f0      	bhi.n	80046a2 <SEGGER_SYSVIEW_Start+0x56>
 80046c0:	6afb      	ldr	r3, [r7, #44]	; 0x2c
 80046c2:	1c5a      	adds	r2, r3, #1
 80046c4:	62fa      	str	r2, [r7, #44]	; 0x2c
 80046c6:	6aba      	ldr	r2, [r7, #40]	; 0x28
 80046c8:	b2d2      	uxtb	r2, r2
 80046ca:	701a      	strb	r2, [r3, #0]
 80046cc:	6afb      	ldr	r3, [r7, #44]	; 0x2c
 80046ce:	603b      	str	r3, [r7, #0]
 80046d0:	683b      	ldr	r3, [r7, #0]
 80046d2:	627b      	str	r3, [r7, #36]	; 0x24
 80046d4:	4b36      	ldr	r3, [pc, #216]	; (80047b0 <SEGGER_SYSVIEW_Start+0x164>)
 80046d6:	689b      	ldr	r3, [r3, #8]
 80046d8:	623b      	str	r3, [r7, #32]
 80046da:	e00b      	b.n	80046f4 <SEGGER_SYSVIEW_Start+0xa8>
 80046dc:	6a3b      	ldr	r3, [r7, #32]
 80046de:	b2da      	uxtb	r2, r3
 80046e0:	6a7b      	ldr	r3, [r7, #36]	; 0x24
 80046e2:	1c59      	adds	r1, r3, #1
 80046e4:	6279      	str	r1, [r7, #36]	; 0x24
 80046e6:	f062 027f 	orn	r2, r2, #127	; 0x7f
 80046ea:	b2d2      	uxtb	r2, r2
 80046ec:	701a      	strb	r2, [r3, #0]
 80046ee:	6a3b      	ldr	r3, [r7, #32]
 80046f0:	09db      	lsrs	r3, r3, #7
 80046f2:	623b      	str	r3, [r7, #32]
 80046f4:	6a3b      	ldr	r3, [r7, #32]
 80046f6:	2b7f      	cmp	r3, #127	; 0x7f
 80046f8:	d8f0      	bhi.n	80046dc <SEGGER_SYSVIEW_Start+0x90>
 80046fa:	6a7b      	ldr	r3, [r7, #36]	; 0x24
 80046fc:	1c5a      	adds	r2, r3, #1
 80046fe:	627a      	str	r2, [r7, #36]	; 0x24
 8004700:	6a3a      	ldr	r2, [r7, #32]
 8004702:	b2d2      	uxtb	r2, r2
 8004704:	701a      	strb	r2, [r3, #0]
 8004706:	6a7b      	ldr	r3, [r7, #36]	; 0x24
 8004708:	603b      	str	r3, [r7, #0]
 800470a:	683b      	ldr	r3, [r7, #0]
 800470c:	61fb      	str	r3, [r7, #28]
 800470e:	4b28      	ldr	r3, [pc, #160]	; (80047b0 <SEGGER_SYSVIEW_Start+0x164>)
 8004710:	691b      	ldr	r3, [r3, #16]
 8004712:	61bb      	str	r3, [r7, #24]
 8004714:	e00b      	b.n	800472e <SEGGER_SYSVIEW_Start+0xe2>
 8004716:	69bb      	ldr	r3, [r7, #24]
 8004718:	b2da      	uxtb	r2, r3
 800471a:	69fb      	ldr	r3, [r7, #28]
 800471c:	1c59      	adds	r1, r3, #1
 800471e:	61f9      	str	r1, [r7, #28]
 8004720:	f062 027f 	orn	r2, r2, #127	; 0x7f
 8004724:	b2d2      	uxtb	r2, r2
 8004726:	701a      	strb	r2, [r3, #0]
 8004728:	69bb      	ldr	r3, [r7, #24]
 800472a:	09db      	lsrs	r3, r3, #7
 800472c:	61bb      	str	r3, [r7, #24]
 800472e:	69bb      	ldr	r3, [r7, #24]
 8004730:	2b7f      	cmp	r3, #127	; 0x7f
 8004732:	d8f0      	bhi.n	8004716 <SEGGER_SYSVIEW_Start+0xca>
 8004734:	69fb      	ldr	r3, [r7, #28]
 8004736:	1c5a      	adds	r2, r3, #1
 8004738:	61fa      	str	r2, [r7, #28]
 800473a:	69ba      	ldr	r2, [r7, #24]
 800473c:	b2d2      	uxtb	r2, r2
 800473e:	701a      	strb	r2, [r3, #0]
 8004740:	69fb      	ldr	r3, [r7, #28]
 8004742:	603b      	str	r3, [r7, #0]
 8004744:	683b      	ldr	r3, [r7, #0]
 8004746:	617b      	str	r3, [r7, #20]
 8004748:	2302      	movs	r3, #2
 800474a:	613b      	str	r3, [r7, #16]
 800474c:	e00b      	b.n	8004766 <SEGGER_SYSVIEW_Start+0x11a>
 800474e:	693b      	ldr	r3, [r7, #16]
 8004750:	b2da      	uxtb	r2, r3
 8004752:	697b      	ldr	r3, [r7, #20]
 8004754:	1c59      	adds	r1, r3, #1
 8004756:	6179      	str	r1, [r7, #20]
 8004758:	f062 027f 	orn	r2, r2, #127	; 0x7f
 800475c:	b2d2      	uxtb	r2, r2
 800475e:	701a      	strb	r2, [r3, #0]
 8004760:	693b      	ldr	r3, [r7, #16]
 8004762:	09db      	lsrs	r3, r3, #7
 8004764:	613b      	str	r3, [r7, #16]
 8004766:	693b      	ldr	r3, [r7, #16]
 8004768:	2b7f      	cmp	r3, #127	; 0x7f
 800476a:	d8f0      	bhi.n	800474e <SEGGER_SYSVIEW_Start+0x102>
 800476c:	697b      	ldr	r3, [r7, #20]
 800476e:	1c5a      	adds	r2, r3, #1
 8004770:	617a      	str	r2, [r7, #20]
 8004772:	693a      	ldr	r2, [r7, #16]
 8004774:	b2d2      	uxtb	r2, r2
 8004776:	701a      	strb	r2, [r3, #0]
 8004778:	697b      	ldr	r3, [r7, #20]
 800477a:	603b      	str	r3, [r7, #0]
 800477c:	2218      	movs	r2, #24
 800477e:	6839      	ldr	r1, [r7, #0]
 8004780:	6878      	ldr	r0, [r7, #4]
 8004782:	f7ff fd8d 	bl	80042a0 <_SendPacket>
 8004786:	68bb      	ldr	r3, [r7, #8]
 8004788:	f383 8811 	msr	BASEPRI, r3
 800478c:	4b08      	ldr	r3, [pc, #32]	; (80047b0 <SEGGER_SYSVIEW_Start+0x164>)
 800478e:	6a5b      	ldr	r3, [r3, #36]	; 0x24
 8004790:	2b00      	cmp	r3, #0
 8004792:	d002      	beq.n	800479a <SEGGER_SYSVIEW_Start+0x14e>
 8004794:	4b06      	ldr	r3, [pc, #24]	; (80047b0 <SEGGER_SYSVIEW_Start+0x164>)
 8004796:	6a5b      	ldr	r3, [r3, #36]	; 0x24
 8004798:	4798      	blx	r3
 800479a:	f000 f9ed 	bl	8004b78 <SEGGER_SYSVIEW_RecordSystime>
 800479e:	f000 f9b3 	bl	8004b08 <SEGGER_SYSVIEW_SendTaskList>
 80047a2:	f000 fc79 	bl	8005098 <SEGGER_SYSVIEW_SendNumModules>
 80047a6:	bf00      	nop
 80047a8:	3730      	adds	r7, #48	; 0x30
 80047aa:	46bd      	mov	sp, r7
 80047ac:	bd80      	pop	{r7, pc}
 80047ae:	bf00      	nop
 80047b0:	200154dc 	.word	0x200154dc
 80047b4:	08005b90 	.word	0x08005b90
 80047b8:	2001550c 	.word	0x2001550c

080047bc <SEGGER_SYSVIEW_Stop>:
 80047bc:	b580      	push	{r7, lr}
 80047be:	b082      	sub	sp, #8
 80047c0:	af00      	add	r7, sp, #0
 80047c2:	f3ef 8311 	mrs	r3, BASEPRI
 80047c6:	f04f 0120 	mov.w	r1, #32
 80047ca:	f381 8811 	msr	BASEPRI, r1
 80047ce:	607b      	str	r3, [r7, #4]
 80047d0:	480b      	ldr	r0, [pc, #44]	; (8004800 <SEGGER_SYSVIEW_Stop+0x44>)
 80047d2:	f7ff fc8c 	bl	80040ee <_PreparePacket>
 80047d6:	6038      	str	r0, [r7, #0]
 80047d8:	4b0a      	ldr	r3, [pc, #40]	; (8004804 <SEGGER_SYSVIEW_Stop+0x48>)
 80047da:	781b      	ldrb	r3, [r3, #0]
 80047dc:	2b00      	cmp	r3, #0
 80047de:	d007      	beq.n	80047f0 <SEGGER_SYSVIEW_Stop+0x34>
 80047e0:	220b      	movs	r2, #11
 80047e2:	6839      	ldr	r1, [r7, #0]
 80047e4:	6838      	ldr	r0, [r7, #0]
 80047e6:	f7ff fd5b 	bl	80042a0 <_SendPacket>
 80047ea:	4b06      	ldr	r3, [pc, #24]	; (8004804 <SEGGER_SYSVIEW_Stop+0x48>)
 80047ec:	2200      	movs	r2, #0
 80047ee:	701a      	strb	r2, [r3, #0]
 80047f0:	687b      	ldr	r3, [r7, #4]
 80047f2:	f383 8811 	msr	BASEPRI, r3
 80047f6:	bf00      	nop
 80047f8:	3708      	adds	r7, #8
 80047fa:	46bd      	mov	sp, r7
 80047fc:	bd80      	pop	{r7, pc}
 80047fe:	bf00      	nop
 8004800:	2001550c 	.word	0x2001550c
 8004804:	200154dc 	.word	0x200154dc

08004808 <SEGGER_SYSVIEW_GetSysDesc>:
 8004808:	b580      	push	{r7, lr}
 800480a:	b08c      	sub	sp, #48	; 0x30
 800480c:	af00      	add	r7, sp, #0
 800480e:	f3ef 8311 	mrs	r3, BASEPRI
 8004812:	f04f 0120 	mov.w	r1, #32
 8004816:	f381 8811 	msr	BASEPRI, r1
 800481a:	60fb      	str	r3, [r7, #12]
 800481c:	4845      	ldr	r0, [pc, #276]	; (8004934 <SEGGER_SYSVIEW_GetSysDesc+0x12c>)
 800481e:	f7ff fc66 	bl	80040ee <_PreparePacket>
 8004822:	60b8      	str	r0, [r7, #8]
 8004824:	68bb      	ldr	r3, [r7, #8]
 8004826:	607b      	str	r3, [r7, #4]
 8004828:	687b      	ldr	r3, [r7, #4]
 800482a:	62fb      	str	r3, [r7, #44]	; 0x2c
 800482c:	4b42      	ldr	r3, [pc, #264]	; (8004938 <SEGGER_SYSVIEW_GetSysDesc+0x130>)
 800482e:	685b      	ldr	r3, [r3, #4]
 8004830:	62bb      	str	r3, [r7, #40]	; 0x28
 8004832:	e00b      	b.n	800484c <SEGGER_SYSVIEW_GetSysDesc+0x44>
 8004834:	6abb      	ldr	r3, [r7, #40]	; 0x28
 8004836:	b2da      	uxtb	r2, r3
 8004838:	6afb      	ldr	r3, [r7, #44]	; 0x2c
 800483a:	1c59      	adds	r1, r3, #1
 800483c:	62f9      	str	r1, [r7, #44]	; 0x2c
 800483e:	f062 027f 	orn	r2, r2, #127	; 0x7f
 8004842:	b2d2      	uxtb	r2, r2
 8004844:	701a      	strb	r2, [r3, #0]
 8004846:	6abb      	ldr	r3, [r7, #40]	; 0x28
 8004848:	09db      	lsrs	r3, r3, #7
 800484a:	62bb      	str	r3, [r7, #40]	; 0x28
 800484c:	6abb      	ldr	r3, [r7, #40]	; 0x28
 800484e:	2b7f      	cmp	r3, #127	; 0x7f
 8004850:	d8f0      	bhi.n	8004834 <SEGGER_SYSVIEW_GetSysDesc+0x2c>
 8004852:	6afb      	ldr	r3, [r7, #44]	; 0x2c
 8004854:	1c5a      	adds	r2, r3, #1
 8004856:	62fa      	str	r2, [r7, #44]	; 0x2c
 8004858:	6aba      	ldr	r2, [r7, #40]	; 0x28
 800485a:	b2d2      	uxtb	r2, r2
 800485c:	701a      	strb	r2, [r3, #0]
 800485e:	6afb      	ldr	r3, [r7, #44]	; 0x2c
 8004860:	607b      	str	r3, [r7, #4]
 8004862:	687b      	ldr	r3, [r7, #4]
 8004864:	627b      	str	r3, [r7, #36]	; 0x24
 8004866:	4b34      	ldr	r3, [pc, #208]	; (8004938 <SEGGER_SYSVIEW_GetSysDesc+0x130>)
 8004868:	689b      	ldr	r3, [r3, #8]
 800486a:	623b      	str	r3, [r7, #32]
 800486c:	e00b      	b.n	8004886 <SEGGER_SYSVIEW_GetSysDesc+0x7e>
 800486e:	6a3b      	ldr	r3, [r7, #32]
 8004870:	b2da      	uxtb	r2, r3
 8004872:	6a7b      	ldr	r3, [r7, #36]	; 0x24
 8004874:	1c59      	adds	r1, r3, #1
 8004876:	6279      	str	r1, [r7, #36]	; 0x24
 8004878:	f062 027f 	orn	r2, r2, #127	; 0x7f
 800487c:	b2d2      	uxtb	r2, r2
 800487e:	701a      	strb	r2, [r3, #0]
 8004880:	6a3b      	ldr	r3, [r7, #32]
 8004882:	09db      	lsrs	r3, r3, #7
 8004884:	623b      	str	r3, [r7, #32]
 8004886:	6a3b      	ldr	r3, [r7, #32]
 8004888:	2b7f      	cmp	r3, #127	; 0x7f
 800488a:	d8f0      	bhi.n	800486e <SEGGER_SYSVIEW_GetSysDesc+0x66>
 800488c:	6a7b      	ldr	r3, [r7, #36]	; 0x24
 800488e:	1c5a      	adds	r2, r3, #1
 8004890:	627a      	str	r2, [r7, #36]	; 0x24
 8004892:	6a3a      	ldr	r2, [r7, #32]
 8004894:	b2d2      	uxtb	r2, r2
 8004896:	701a      	strb	r2, [r3, #0]
 8004898:	6a7b      	ldr	r3, [r7, #36]	; 0x24
 800489a:	607b      	str	r3, [r7, #4]
 800489c:	687b      	ldr	r3, [r7, #4]
 800489e:	61fb      	str	r3, [r7, #28]
 80048a0:	4b25      	ldr	r3, [pc, #148]	; (8004938 <SEGGER_SYSVIEW_GetSysDesc+0x130>)
 80048a2:	691b      	ldr	r3, [r3, #16]
 80048a4:	61bb      	str	r3, [r7, #24]
 80048a6:	e00b      	b.n	80048c0 <SEGGER_SYSVIEW_GetSysDesc+0xb8>
 80048a8:	69bb      	ldr	r3, [r7, #24]
 80048aa:	b2da      	uxtb	r2, r3
 80048ac:	69fb      	ldr	r3, [r7, #28]
 80048ae:	1c59      	adds	r1, r3, #1
 80048b0:	61f9      	str	r1, [r7, #28]
 80048b2:	f062 027f 	orn	r2, r2, #127	; 0x7f
 80048b6:	b2d2      	uxtb	r2, r2
 80048b8:	701a      	strb	r2, [r3, #0]
 80048ba:	69bb      	ldr	r3, [r7, #24]
 80048bc:	09db      	lsrs	r3, r3, #7
 80048be:	61bb      	str	r3, [r7, #24]
 80048c0:	69bb      	ldr	r3, [r7, #24]
 80048c2:	2b7f      	cmp	r3, #127	; 0x7f
 80048c4:	d8f0      	bhi.n	80048a8 <SEGGER_SYSVIEW_GetSysDesc+0xa0>
 80048c6:	69fb      	ldr	r3, [r7, #28]
 80048c8:	1c5a      	adds	r2, r3, #1
 80048ca:	61fa      	str	r2, [r7, #28]
 80048cc:	69ba      	ldr	r2, [r7, #24]
 80048ce:	b2d2      	uxtb	r2, r2
 80048d0:	701a      	strb	r2, [r3, #0]
 80048d2:	69fb      	ldr	r3, [r7, #28]
 80048d4:	607b      	str	r3, [r7, #4]
 80048d6:	687b      	ldr	r3, [r7, #4]
 80048d8:	617b      	str	r3, [r7, #20]
 80048da:	2302      	movs	r3, #2
 80048dc:	613b      	str	r3, [r7, #16]
 80048de:	e00b      	b.n	80048f8 <SEGGER_SYSVIEW_GetSysDesc+0xf0>
 80048e0:	693b      	ldr	r3, [r7, #16]
 80048e2:	b2da      	uxtb	r2, r3
 80048e4:	697b      	ldr	r3, [r7, #20]
 80048e6:	1c59      	adds	r1, r3, #1
 80048e8:	6179      	str	r1, [r7, #20]
 80048ea:	f062 027f 	orn	r2, r2, #127	; 0x7f
 80048ee:	b2d2      	uxtb	r2, r2
 80048f0:	701a      	strb	r2, [r3, #0]
 80048f2:	693b      	ldr	r3, [r7, #16]
 80048f4:	09db      	lsrs	r3, r3, #7
 80048f6:	613b      	str	r3, [r7, #16]
 80048f8:	693b      	ldr	r3, [r7, #16]
 80048fa:	2b7f      	cmp	r3, #127	; 0x7f
 80048fc:	d8f0      	bhi.n	80048e0 <SEGGER_SYSVIEW_GetSysDesc+0xd8>
 80048fe:	697b      	ldr	r3, [r7, #20]
 8004900:	1c5a      	adds	r2, r3, #1
 8004902:	617a      	str	r2, [r7, #20]
 8004904:	693a      	ldr	r2, [r7, #16]
 8004906:	b2d2      	uxtb	r2, r2
 8004908:	701a      	strb	r2, [r3, #0]
 800490a:	697b      	ldr	r3, [r7, #20]
 800490c:	607b      	str	r3, [r7, #4]
 800490e:	2218      	movs	r2, #24
 8004910:	6879      	ldr	r1, [r7, #4]
 8004912:	68b8      	ldr	r0, [r7, #8]
 8004914:	f7ff fcc4 	bl	80042a0 <_SendPacket>
 8004918:	68fb      	ldr	r3, [r7, #12]
 800491a:	f383 8811 	msr	BASEPRI, r3
 800491e:	4b06      	ldr	r3, [pc, #24]	; (8004938 <SEGGER_SYSVIEW_GetSysDesc+0x130>)
 8004920:	6a5b      	ldr	r3, [r3, #36]	; 0x24
 8004922:	2b00      	cmp	r3, #0
 8004924:	d002      	beq.n	800492c <SEGGER_SYSVIEW_GetSysDesc+0x124>
 8004926:	4b04      	ldr	r3, [pc, #16]	; (8004938 <SEGGER_SYSVIEW_GetSysDesc+0x130>)
 8004928:	6a5b      	ldr	r3, [r3, #36]	; 0x24
 800492a:	4798      	blx	r3
 800492c:	bf00      	nop
 800492e:	3730      	adds	r7, #48	; 0x30
 8004930:	46bd      	mov	sp, r7
 8004932:	bd80      	pop	{r7, pc}
 8004934:	2001550c 	.word	0x2001550c
 8004938:	200154dc 	.word	0x200154dc

0800493c <SEGGER_SYSVIEW_SendTaskInfo>:
 800493c:	b580      	push	{r7, lr}
 800493e:	b092      	sub	sp, #72	; 0x48
 8004940:	af00      	add	r7, sp, #0
 8004942:	6078      	str	r0, [r7, #4]
 8004944:	f3ef 8311 	mrs	r3, BASEPRI
 8004948:	f04f 0120 	mov.w	r1, #32
 800494c:	f381 8811 	msr	BASEPRI, r1
 8004950:	617b      	str	r3, [r7, #20]
 8004952:	486b      	ldr	r0, [pc, #428]	; (8004b00 <SEGGER_SYSVIEW_SendTaskInfo+0x1c4>)
 8004954:	f7ff fbcb 	bl	80040ee <_PreparePacket>
 8004958:	6138      	str	r0, [r7, #16]
 800495a:	693b      	ldr	r3, [r7, #16]
 800495c:	60fb      	str	r3, [r7, #12]
 800495e:	68fb      	ldr	r3, [r7, #12]
 8004960:	647b      	str	r3, [r7, #68]	; 0x44
 8004962:	687b      	ldr	r3, [r7, #4]
 8004964:	681a      	ldr	r2, [r3, #0]
 8004966:	4b67      	ldr	r3, [pc, #412]	; (8004b04 <SEGGER_SYSVIEW_SendTaskInfo+0x1c8>)
 8004968:	691b      	ldr	r3, [r3, #16]
 800496a:	1ad3      	subs	r3, r2, r3
 800496c:	089b      	lsrs	r3, r3, #2
 800496e:	643b      	str	r3, [r7, #64]	; 0x40
 8004970:	e00b      	b.n	800498a <SEGGER_SYSVIEW_SendTaskInfo+0x4e>
 8004972:	6c3b      	ldr	r3, [r7, #64]	; 0x40
 8004974:	b2da      	uxtb	r2, r3
 8004976:	6c7b      	ldr	r3, [r7, #68]	; 0x44
 8004978:	1c59      	adds	r1, r3, #1
 800497a:	6479      	str	r1, [r7, #68]	; 0x44
 800497c:	f062 027f 	orn	r2, r2, #127	; 0x7f
 8004980:	b2d2      	uxtb	r2, r2
 8004982:	701a      	strb	r2, [r3, #0]
 8004984:	6c3b      	ldr	r3, [r7, #64]	; 0x40
 8004986:	09db      	lsrs	r3, r3, #7
 8004988:	643b      	str	r3, [r7, #64]	; 0x40
 800498a:	6c3b      	ldr	r3, [r7, #64]	; 0x40
 800498c:	2b7f      	cmp	r3, #127	; 0x7f
 800498e:	d8f0      	bhi.n	8004972 <SEGGER_SYSVIEW_SendTaskInfo+0x36>
 8004990:	6c7b      	ldr	r3, [r7, #68]	; 0x44
 8004992:	1c5a      	adds	r2, r3, #1
 8004994:	647a      	str	r2, [r7, #68]	; 0x44
 8004996:	6c3a      	ldr	r2, [r7, #64]	; 0x40
 8004998:	b2d2      	uxtb	r2, r2
 800499a:	701a      	strb	r2, [r3, #0]
 800499c:	6c7b      	ldr	r3, [r7, #68]	; 0x44
 800499e:	60fb      	str	r3, [r7, #12]
 80049a0:	68fb      	ldr	r3, [r7, #12]
 80049a2:	63fb      	str	r3, [r7, #60]	; 0x3c
 80049a4:	687b      	ldr	r3, [r7, #4]
 80049a6:	689b      	ldr	r3, [r3, #8]
 80049a8:	63bb      	str	r3, [r7, #56]	; 0x38
 80049aa:	e00b      	b.n	80049c4 <SEGGER_SYSVIEW_SendTaskInfo+0x88>
 80049ac:	6bbb      	ldr	r3, [r7, #56]	; 0x38
 80049ae:	b2da      	uxtb	r2, r3
 80049b0:	6bfb      	ldr	r3, [r7, #60]	; 0x3c
 80049b2:	1c59      	adds	r1, r3, #1
 80049b4:	63f9      	str	r1, [r7, #60]	; 0x3c
 80049b6:	f062 027f 	orn	r2, r2, #127	; 0x7f
 80049ba:	b2d2      	uxtb	r2, r2
 80049bc:	701a      	strb	r2, [r3, #0]
 80049be:	6bbb      	ldr	r3, [r7, #56]	; 0x38
 80049c0:	09db      	lsrs	r3, r3, #7
 80049c2:	63bb      	str	r3, [r7, #56]	; 0x38
 80049c4:	6bbb      	ldr	r3, [r7, #56]	; 0x38
 80049c6:	2b7f      	cmp	r3, #127	; 0x7f
 80049c8:	d8f0      	bhi.n	80049ac <SEGGER_SYSVIEW_SendTaskInfo+0x70>
 80049ca:	6bfb      	ldr	r3, [r7, #60]	; 0x3c
 80049cc:	1c5a      	adds	r2, r3, #1
 80049ce:	63fa      	str	r2, [r7, #60]	; 0x3c
 80049d0:	6bba      	ldr	r2, [r7, #56]	; 0x38
 80049d2:	b2d2      	uxtb	r2, r2
 80049d4:	701a      	strb	r2, [r3, #0]
 80049d6:	6bfb      	ldr	r3, [r7, #60]	; 0x3c
 80049d8:	60fb      	str	r3, [r7, #12]
 80049da:	687b      	ldr	r3, [r7, #4]
 80049dc:	685b      	ldr	r3, [r3, #4]
 80049de:	2220      	movs	r2, #32
 80049e0:	4619      	mov	r1, r3
 80049e2:	68f8      	ldr	r0, [r7, #12]
 80049e4:	f7ff fb36 	bl	8004054 <_EncodeStr>
 80049e8:	60f8      	str	r0, [r7, #12]
 80049ea:	2209      	movs	r2, #9
 80049ec:	68f9      	ldr	r1, [r7, #12]
 80049ee:	6938      	ldr	r0, [r7, #16]
 80049f0:	f7ff fc56 	bl	80042a0 <_SendPacket>
 80049f4:	693b      	ldr	r3, [r7, #16]
 80049f6:	60fb      	str	r3, [r7, #12]
 80049f8:	68fb      	ldr	r3, [r7, #12]
 80049fa:	637b      	str	r3, [r7, #52]	; 0x34
 80049fc:	687b      	ldr	r3, [r7, #4]
 80049fe:	681a      	ldr	r2, [r3, #0]
 8004a00:	4b40      	ldr	r3, [pc, #256]	; (8004b04 <SEGGER_SYSVIEW_SendTaskInfo+0x1c8>)
 8004a02:	691b      	ldr	r3, [r3, #16]
 8004a04:	1ad3      	subs	r3, r2, r3
 8004a06:	089b      	lsrs	r3, r3, #2
 8004a08:	633b      	str	r3, [r7, #48]	; 0x30
 8004a0a:	e00b      	b.n	8004a24 <SEGGER_SYSVIEW_SendTaskInfo+0xe8>
 8004a0c:	6b3b      	ldr	r3, [r7, #48]	; 0x30
 8004a0e:	b2da      	uxtb	r2, r3
 8004a10:	6b7b      	ldr	r3, [r7, #52]	; 0x34
 8004a12:	1c59      	adds	r1, r3, #1
 8004a14:	6379      	str	r1, [r7, #52]	; 0x34
 8004a16:	f062 027f 	orn	r2, r2, #127	; 0x7f
 8004a1a:	b2d2      	uxtb	r2, r2
 8004a1c:	701a      	strb	r2, [r3, #0]
 8004a1e:	6b3b      	ldr	r3, [r7, #48]	; 0x30
 8004a20:	09db      	lsrs	r3, r3, #7
 8004a22:	633b      	str	r3, [r7, #48]	; 0x30
 8004a24:	6b3b      	ldr	r3, [r7, #48]	; 0x30
 8004a26:	2b7f      	cmp	r3, #127	; 0x7f
 8004a28:	d8f0      	bhi.n	8004a0c <SEGGER_SYSVIEW_SendTaskInfo+0xd0>
 8004a2a:	6b7b      	ldr	r3, [r7, #52]	; 0x34
 8004a2c:	1c5a      	adds	r2, r3, #1
 8004a2e:	637a      	str	r2, [r7, #52]	; 0x34
 8004a30:	6b3a      	ldr	r2, [r7, #48]	; 0x30
 8004a32:	b2d2      	uxtb	r2, r2
 8004a34:	701a      	strb	r2, [r3, #0]
 8004a36:	6b7b      	ldr	r3, [r7, #52]	; 0x34
 8004a38:	60fb      	str	r3, [r7, #12]
 8004a3a:	68fb      	ldr	r3, [r7, #12]
 8004a3c:	62fb      	str	r3, [r7, #44]	; 0x2c
 8004a3e:	687b      	ldr	r3, [r7, #4]
 8004a40:	68db      	ldr	r3, [r3, #12]
 8004a42:	62bb      	str	r3, [r7, #40]	; 0x28
 8004a44:	e00b      	b.n	8004a5e <SEGGER_SYSVIEW_SendTaskInfo+0x122>
 8004a46:	6abb      	ldr	r3, [r7, #40]	; 0x28
 8004a48:	b2da      	uxtb	r2, r3
 8004a4a:	6afb      	ldr	r3, [r7, #44]	; 0x2c
 8004a4c:	1c59      	adds	r1, r3, #1
 8004a4e:	62f9      	str	r1, [r7, #44]	; 0x2c
 8004a50:	f062 027f 	orn	r2, r2, #127	; 0x7f
 8004a54:	b2d2      	uxtb	r2, r2
 8004a56:	701a      	strb	r2, [r3, #0]
 8004a58:	6abb      	ldr	r3, [r7, #40]	; 0x28
 8004a5a:	09db      	lsrs	r3, r3, #7
 8004a5c:	62bb      	str	r3, [r7, #40]	; 0x28
 8004a5e:	6abb      	ldr	r3, [r7, #40]	; 0x28
 8004a60:	2b7f      	cmp	r3, #127	; 0x7f
 8004a62:	d8f0      	bhi.n	8004a46 <SEGGER_SYSVIEW_SendTaskInfo+0x10a>
 8004a64:	6afb      	ldr	r3, [r7, #44]	; 0x2c
 8004a66:	1c5a      	adds	r2, r3, #1
 8004a68:	62fa      	str	r2, [r7, #44]	; 0x2c
 8004a6a:	6aba      	ldr	r2, [r7, #40]	; 0x28
 8004a6c:	b2d2      	uxtb	r2, r2
 8004a6e:	701a      	strb	r2, [r3, #0]
 8004a70:	6afb      	ldr	r3, [r7, #44]	; 0x2c
 8004a72:	60fb      	str	r3, [r7, #12]
 8004a74:	68fb      	ldr	r3, [r7, #12]
 8004a76:	627b      	str	r3, [r7, #36]	; 0x24
 8004a78:	687b      	ldr	r3, [r7, #4]
 8004a7a:	691b      	ldr	r3, [r3, #16]
 8004a7c:	623b      	str	r3, [r7, #32]
 8004a7e:	e00b      	b.n	8004a98 <SEGGER_SYSVIEW_SendTaskInfo+0x15c>
 8004a80:	6a3b      	ldr	r3, [r7, #32]
 8004a82:	b2da      	uxtb	r2, r3
 8004a84:	6a7b      	ldr	r3, [r7, #36]	; 0x24
 8004a86:	1c59      	adds	r1, r3, #1
 8004a88:	6279      	str	r1, [r7, #36]	; 0x24
 8004a8a:	f062 027f 	orn	r2, r2, #127	; 0x7f
 8004a8e:	b2d2      	uxtb	r2, r2
 8004a90:	701a      	strb	r2, [r3, #0]
 8004a92:	6a3b      	ldr	r3, [r7, #32]
 8004a94:	09db      	lsrs	r3, r3, #7
 8004a96:	623b      	str	r3, [r7, #32]
 8004a98:	6a3b      	ldr	r3, [r7, #32]
 8004a9a:	2b7f      	cmp	r3, #127	; 0x7f
 8004a9c:	d8f0      	bhi.n	8004a80 <SEGGER_SYSVIEW_SendTaskInfo+0x144>
 8004a9e:	6a7b      	ldr	r3, [r7, #36]	; 0x24
 8004aa0:	1c5a      	adds	r2, r3, #1
 8004aa2:	627a      	str	r2, [r7, #36]	; 0x24
 8004aa4:	6a3a      	ldr	r2, [r7, #32]
 8004aa6:	b2d2      	uxtb	r2, r2
 8004aa8:	701a      	strb	r2, [r3, #0]
 8004aaa:	6a7b      	ldr	r3, [r7, #36]	; 0x24
 8004aac:	60fb      	str	r3, [r7, #12]
 8004aae:	68fb      	ldr	r3, [r7, #12]
 8004ab0:	61fb      	str	r3, [r7, #28]
 8004ab2:	2300      	movs	r3, #0
 8004ab4:	61bb      	str	r3, [r7, #24]
 8004ab6:	e00b      	b.n	8004ad0 <SEGGER_SYSVIEW_SendTaskInfo+0x194>
 8004ab8:	69bb      	ldr	r3, [r7, #24]
 8004aba:	b2da      	uxtb	r2, r3
 8004abc:	69fb      	ldr	r3, [r7, #28]
 8004abe:	1c59      	adds	r1, r3, #1
 8004ac0:	61f9      	str	r1, [r7, #28]
 8004ac2:	f062 027f 	orn	r2, r2, #127	; 0x7f
 8004ac6:	b2d2      	uxtb	r2, r2
 8004ac8:	701a      	strb	r2, [r3, #0]
 8004aca:	69bb      	ldr	r3, [r7, #24]
 8004acc:	09db      	lsrs	r3, r3, #7
 8004ace:	61bb      	str	r3, [r7, #24]
 8004ad0:	69bb      	ldr	r3, [r7, #24]
 8004ad2:	2b7f      	cmp	r3, #127	; 0x7f
 8004ad4:	d8f0      	bhi.n	8004ab8 <SEGGER_SYSVIEW_SendTaskInfo+0x17c>
 8004ad6:	69fb      	ldr	r3, [r7, #28]
 8004ad8:	1c5a      	adds	r2, r3, #1
 8004ada:	61fa      	str	r2, [r7, #28]
 8004adc:	69ba      	ldr	r2, [r7, #24]
 8004ade:	b2d2      	uxtb	r2, r2
 8004ae0:	701a      	strb	r2, [r3, #0]
 8004ae2:	69fb      	ldr	r3, [r7, #28]
 8004ae4:	60fb      	str	r3, [r7, #12]
 8004ae6:	2215      	movs	r2, #21
 8004ae8:	68f9      	ldr	r1, [r7, #12]
 8004aea:	6938      	ldr	r0, [r7, #16]
 8004aec:	f7ff fbd8 	bl	80042a0 <_SendPacket>
 8004af0:	697b      	ldr	r3, [r7, #20]
 8004af2:	f383 8811 	msr	BASEPRI, r3
 8004af6:	bf00      	nop
 8004af8:	3748      	adds	r7, #72	; 0x48
 8004afa:	46bd      	mov	sp, r7
 8004afc:	bd80      	pop	{r7, pc}
 8004afe:	bf00      	nop
 8004b00:	2001550c 	.word	0x2001550c
 8004b04:	200154dc 	.word	0x200154dc

08004b08 <SEGGER_SYSVIEW_SendTaskList>:
 8004b08:	b580      	push	{r7, lr}
 8004b0a:	af00      	add	r7, sp, #0
 8004b0c:	4b07      	ldr	r3, [pc, #28]	; (8004b2c <SEGGER_SYSVIEW_SendTaskList+0x24>)
 8004b0e:	6a1b      	ldr	r3, [r3, #32]
 8004b10:	2b00      	cmp	r3, #0
 8004b12:	d008      	beq.n	8004b26 <SEGGER_SYSVIEW_SendTaskList+0x1e>
 8004b14:	4b05      	ldr	r3, [pc, #20]	; (8004b2c <SEGGER_SYSVIEW_SendTaskList+0x24>)
 8004b16:	6a1b      	ldr	r3, [r3, #32]
 8004b18:	685b      	ldr	r3, [r3, #4]
 8004b1a:	2b00      	cmp	r3, #0
 8004b1c:	d003      	beq.n	8004b26 <SEGGER_SYSVIEW_SendTaskList+0x1e>
 8004b1e:	4b03      	ldr	r3, [pc, #12]	; (8004b2c <SEGGER_SYSVIEW_SendTaskList+0x24>)
 8004b20:	6a1b      	ldr	r3, [r3, #32]
 8004b22:	685b      	ldr	r3, [r3, #4]
 8004b24:	4798      	blx	r3
 8004b26:	bf00      	nop
 8004b28:	bd80      	pop	{r7, pc}
 8004b2a:	bf00      	nop
 8004b2c:	200154dc 	.word	0x200154dc

08004b30 <SEGGER_SYSVIEW_SendSysDesc>:
 8004b30:	b580      	push	{r7, lr}
 8004b32:	b086      	sub	sp, #24
 8004b34:	af00      	add	r7, sp, #0
 8004b36:	6078      	str	r0, [r7, #4]
 8004b38:	f3ef 8311 	mrs	r3, BASEPRI
 8004b3c:	f04f 0120 	mov.w	r1, #32
 8004b40:	f381 8811 	msr	BASEPRI, r1
 8004b44:	617b      	str	r3, [r7, #20]
 8004b46:	480b      	ldr	r0, [pc, #44]	; (8004b74 <SEGGER_SYSVIEW_SendSysDesc+0x44>)
 8004b48:	f7ff fad1 	bl	80040ee <_PreparePacket>
 8004b4c:	6138      	str	r0, [r7, #16]
 8004b4e:	2280      	movs	r2, #128	; 0x80
 8004b50:	6879      	ldr	r1, [r7, #4]
 8004b52:	6938      	ldr	r0, [r7, #16]
 8004b54:	f7ff fa7e 	bl	8004054 <_EncodeStr>
 8004b58:	60f8      	str	r0, [r7, #12]
 8004b5a:	220e      	movs	r2, #14
 8004b5c:	68f9      	ldr	r1, [r7, #12]
 8004b5e:	6938      	ldr	r0, [r7, #16]
 8004b60:	f7ff fb9e 	bl	80042a0 <_SendPacket>
 8004b64:	697b      	ldr	r3, [r7, #20]
 8004b66:	f383 8811 	msr	BASEPRI, r3
 8004b6a:	bf00      	nop
 8004b6c:	3718      	adds	r7, #24
 8004b6e:	46bd      	mov	sp, r7
 8004b70:	bd80      	pop	{r7, pc}
 8004b72:	bf00      	nop
 8004b74:	2001550c 	.word	0x2001550c

08004b78 <SEGGER_SYSVIEW_RecordSystime>:
 8004b78:	b590      	push	{r4, r7, lr}
 8004b7a:	b083      	sub	sp, #12
 8004b7c:	af00      	add	r7, sp, #0
 8004b7e:	4b14      	ldr	r3, [pc, #80]	; (8004bd0 <SEGGER_SYSVIEW_RecordSystime+0x58>)
 8004b80:	6a1b      	ldr	r3, [r3, #32]
 8004b82:	2b00      	cmp	r3, #0
 8004b84:	d019      	beq.n	8004bba <SEGGER_SYSVIEW_RecordSystime+0x42>
 8004b86:	4b12      	ldr	r3, [pc, #72]	; (8004bd0 <SEGGER_SYSVIEW_RecordSystime+0x58>)
 8004b88:	6a1b      	ldr	r3, [r3, #32]
 8004b8a:	681b      	ldr	r3, [r3, #0]
 8004b8c:	2b00      	cmp	r3, #0
 8004b8e:	d014      	beq.n	8004bba <SEGGER_SYSVIEW_RecordSystime+0x42>
 8004b90:	4b0f      	ldr	r3, [pc, #60]	; (8004bd0 <SEGGER_SYSVIEW_RecordSystime+0x58>)
 8004b92:	6a1b      	ldr	r3, [r3, #32]
 8004b94:	681b      	ldr	r3, [r3, #0]
 8004b96:	4798      	blx	r3
 8004b98:	e9c7 0100 	strd	r0, r1, [r7]
 8004b9c:	6838      	ldr	r0, [r7, #0]
 8004b9e:	e9d7 1200 	ldrd	r1, r2, [r7]
 8004ba2:	f04f 0300 	mov.w	r3, #0
 8004ba6:	f04f 0400 	mov.w	r4, #0
 8004baa:	0013      	movs	r3, r2
 8004bac:	2400      	movs	r4, #0
 8004bae:	461a      	mov	r2, r3
 8004bb0:	4601      	mov	r1, r0
 8004bb2:	200d      	movs	r0, #13
 8004bb4:	f7ff fcf0 	bl	8004598 <SEGGER_SYSVIEW_RecordU32x2>
 8004bb8:	e005      	b.n	8004bc6 <SEGGER_SYSVIEW_RecordSystime+0x4e>
 8004bba:	4b06      	ldr	r3, [pc, #24]	; (8004bd4 <SEGGER_SYSVIEW_RecordSystime+0x5c>)
 8004bbc:	681b      	ldr	r3, [r3, #0]
 8004bbe:	4619      	mov	r1, r3
 8004bc0:	200c      	movs	r0, #12
 8004bc2:	f7ff fcad 	bl	8004520 <SEGGER_SYSVIEW_RecordU32>
 8004bc6:	bf00      	nop
 8004bc8:	370c      	adds	r7, #12
 8004bca:	46bd      	mov	sp, r7
 8004bcc:	bd90      	pop	{r4, r7, pc}
 8004bce:	bf00      	nop
 8004bd0:	200154dc 	.word	0x200154dc
 8004bd4:	e0001004 	.word	0xe0001004

08004bd8 <SEGGER_SYSVIEW_RecordEnterISR>:
 8004bd8:	b580      	push	{r7, lr}
 8004bda:	b086      	sub	sp, #24
 8004bdc:	af00      	add	r7, sp, #0
 8004bde:	f3ef 8311 	mrs	r3, BASEPRI
 8004be2:	f04f 0120 	mov.w	r1, #32
 8004be6:	f381 8811 	msr	BASEPRI, r1
 8004bea:	60fb      	str	r3, [r7, #12]
 8004bec:	4819      	ldr	r0, [pc, #100]	; (8004c54 <SEGGER_SYSVIEW_RecordEnterISR+0x7c>)
 8004bee:	f7ff fa7e 	bl	80040ee <_PreparePacket>
 8004bf2:	60b8      	str	r0, [r7, #8]
 8004bf4:	68bb      	ldr	r3, [r7, #8]
 8004bf6:	607b      	str	r3, [r7, #4]
 8004bf8:	4b17      	ldr	r3, [pc, #92]	; (8004c58 <SEGGER_SYSVIEW_RecordEnterISR+0x80>)
 8004bfa:	681b      	ldr	r3, [r3, #0]
 8004bfc:	f3c3 0308 	ubfx	r3, r3, #0, #9
 8004c00:	603b      	str	r3, [r7, #0]
 8004c02:	687b      	ldr	r3, [r7, #4]
 8004c04:	617b      	str	r3, [r7, #20]
 8004c06:	683b      	ldr	r3, [r7, #0]
 8004c08:	613b      	str	r3, [r7, #16]
 8004c0a:	e00b      	b.n	8004c24 <SEGGER_SYSVIEW_RecordEnterISR+0x4c>
 8004c0c:	693b      	ldr	r3, [r7, #16]
 8004c0e:	b2da      	uxtb	r2, r3
 8004c10:	697b      	ldr	r3, [r7, #20]
 8004c12:	1c59      	adds	r1, r3, #1
 8004c14:	6179      	str	r1, [r7, #20]
 8004c16:	f062 027f 	orn	r2, r2, #127	; 0x7f
 8004c1a:	b2d2      	uxtb	r2, r2
 8004c1c:	701a      	strb	r2, [r3, #0]
 8004c1e:	693b      	ldr	r3, [r7, #16]
 8004c20:	09db      	lsrs	r3, r3, #7
 8004c22:	613b      	str	r3, [r7, #16]
 8004c24:	693b      	ldr	r3, [r7, #16]
 8004c26:	2b7f      	cmp	r3, #127	; 0x7f
 8004c28:	d8f0      	bhi.n	8004c0c <SEGGER_SYSVIEW_RecordEnterISR+0x34>
 8004c2a:	697b      	ldr	r3, [r7, #20]
 8004c2c:	1c5a      	adds	r2, r3, #1
 8004c2e:	617a      	str	r2, [r7, #20]
 8004c30:	693a      	ldr	r2, [r7, #16]
 8004c32:	b2d2      	uxtb	r2, r2
 8004c34:	701a      	strb	r2, [r3, #0]
 8004c36:	697b      	ldr	r3, [r7, #20]
 8004c38:	607b      	str	r3, [r7, #4]
 8004c3a:	2202      	movs	r2, #2
 8004c3c:	6879      	ldr	r1, [r7, #4]
 8004c3e:	68b8      	ldr	r0, [r7, #8]
 8004c40:	f7ff fb2e 	bl	80042a0 <_SendPacket>
 8004c44:	68fb      	ldr	r3, [r7, #12]
 8004c46:	f383 8811 	msr	BASEPRI, r3
 8004c4a:	bf00      	nop
 8004c4c:	3718      	adds	r7, #24
 8004c4e:	46bd      	mov	sp, r7
 8004c50:	bd80      	pop	{r7, pc}
 8004c52:	bf00      	nop
 8004c54:	2001550c 	.word	0x2001550c
 8004c58:	e000ed04 	.word	0xe000ed04

08004c5c <SEGGER_SYSVIEW_RecordExitISR>:
 8004c5c:	b580      	push	{r7, lr}
 8004c5e:	b082      	sub	sp, #8
 8004c60:	af00      	add	r7, sp, #0
 8004c62:	f3ef 8311 	mrs	r3, BASEPRI
 8004c66:	f04f 0120 	mov.w	r1, #32
 8004c6a:	f381 8811 	msr	BASEPRI, r1
 8004c6e:	607b      	str	r3, [r7, #4]
 8004c70:	4807      	ldr	r0, [pc, #28]	; (8004c90 <SEGGER_SYSVIEW_RecordExitISR+0x34>)
 8004c72:	f7ff fa3c 	bl	80040ee <_PreparePacket>
 8004c76:	6038      	str	r0, [r7, #0]
 8004c78:	2203      	movs	r2, #3
 8004c7a:	6839      	ldr	r1, [r7, #0]
 8004c7c:	6838      	ldr	r0, [r7, #0]
 8004c7e:	f7ff fb0f 	bl	80042a0 <_SendPacket>
 8004c82:	687b      	ldr	r3, [r7, #4]
 8004c84:	f383 8811 	msr	BASEPRI, r3
 8004c88:	bf00      	nop
 8004c8a:	3708      	adds	r7, #8
 8004c8c:	46bd      	mov	sp, r7
 8004c8e:	bd80      	pop	{r7, pc}
 8004c90:	2001550c 	.word	0x2001550c

08004c94 <SEGGER_SYSVIEW_RecordExitISRToScheduler>:
 8004c94:	b580      	push	{r7, lr}
 8004c96:	b082      	sub	sp, #8
 8004c98:	af00      	add	r7, sp, #0
 8004c9a:	f3ef 8311 	mrs	r3, BASEPRI
 8004c9e:	f04f 0120 	mov.w	r1, #32
 8004ca2:	f381 8811 	msr	BASEPRI, r1
 8004ca6:	607b      	str	r3, [r7, #4]
 8004ca8:	4807      	ldr	r0, [pc, #28]	; (8004cc8 <SEGGER_SYSVIEW_RecordExitISRToScheduler+0x34>)
 8004caa:	f7ff fa20 	bl	80040ee <_PreparePacket>
 8004cae:	6038      	str	r0, [r7, #0]
 8004cb0:	2212      	movs	r2, #18
 8004cb2:	6839      	ldr	r1, [r7, #0]
 8004cb4:	6838      	ldr	r0, [r7, #0]
 8004cb6:	f7ff faf3 	bl	80042a0 <_SendPacket>
 8004cba:	687b      	ldr	r3, [r7, #4]
 8004cbc:	f383 8811 	msr	BASEPRI, r3
 8004cc0:	bf00      	nop
 8004cc2:	3708      	adds	r7, #8
 8004cc4:	46bd      	mov	sp, r7
 8004cc6:	bd80      	pop	{r7, pc}
 8004cc8:	2001550c 	.word	0x2001550c

08004ccc <SEGGER_SYSVIEW_OnIdle>:
 8004ccc:	b580      	push	{r7, lr}
 8004cce:	b082      	sub	sp, #8
 8004cd0:	af00      	add	r7, sp, #0
 8004cd2:	f3ef 8311 	mrs	r3, BASEPRI
 8004cd6:	f04f 0120 	mov.w	r1, #32
 8004cda:	f381 8811 	msr	BASEPRI, r1
 8004cde:	607b      	str	r3, [r7, #4]
 8004ce0:	4807      	ldr	r0, [pc, #28]	; (8004d00 <SEGGER_SYSVIEW_OnIdle+0x34>)
 8004ce2:	f7ff fa04 	bl	80040ee <_PreparePacket>
 8004ce6:	6038      	str	r0, [r7, #0]
 8004ce8:	2211      	movs	r2, #17
 8004cea:	6839      	ldr	r1, [r7, #0]
 8004cec:	6838      	ldr	r0, [r7, #0]
 8004cee:	f7ff fad7 	bl	80042a0 <_SendPacket>
 8004cf2:	687b      	ldr	r3, [r7, #4]
 8004cf4:	f383 8811 	msr	BASEPRI, r3
 8004cf8:	bf00      	nop
 8004cfa:	3708      	adds	r7, #8
 8004cfc:	46bd      	mov	sp, r7
 8004cfe:	bd80      	pop	{r7, pc}
 8004d00:	2001550c 	.word	0x2001550c

08004d04 <SEGGER_SYSVIEW_OnTaskCreate>:
 8004d04:	b580      	push	{r7, lr}
 8004d06:	b088      	sub	sp, #32
 8004d08:	af00      	add	r7, sp, #0
 8004d0a:	6078      	str	r0, [r7, #4]
 8004d0c:	f3ef 8311 	mrs	r3, BASEPRI
 8004d10:	f04f 0120 	mov.w	r1, #32
 8004d14:	f381 8811 	msr	BASEPRI, r1
 8004d18:	617b      	str	r3, [r7, #20]
 8004d1a:	481a      	ldr	r0, [pc, #104]	; (8004d84 <SEGGER_SYSVIEW_OnTaskCreate+0x80>)
 8004d1c:	f7ff f9e7 	bl	80040ee <_PreparePacket>
 8004d20:	6138      	str	r0, [r7, #16]
 8004d22:	693b      	ldr	r3, [r7, #16]
 8004d24:	60fb      	str	r3, [r7, #12]
 8004d26:	4b18      	ldr	r3, [pc, #96]	; (8004d88 <SEGGER_SYSVIEW_OnTaskCreate+0x84>)
 8004d28:	691b      	ldr	r3, [r3, #16]
 8004d2a:	687a      	ldr	r2, [r7, #4]
 8004d2c:	1ad3      	subs	r3, r2, r3
 8004d2e:	089b      	lsrs	r3, r3, #2
 8004d30:	607b      	str	r3, [r7, #4]
 8004d32:	68fb      	ldr	r3, [r7, #12]
 8004d34:	61fb      	str	r3, [r7, #28]
 8004d36:	687b      	ldr	r3, [r7, #4]
 8004d38:	61bb      	str	r3, [r7, #24]
 8004d3a:	e00b      	b.n	8004d54 <SEGGER_SYSVIEW_OnTaskCreate+0x50>
 8004d3c:	69bb      	ldr	r3, [r7, #24]
 8004d3e:	b2da      	uxtb	r2, r3
 8004d40:	69fb      	ldr	r3, [r7, #28]
 8004d42:	1c59      	adds	r1, r3, #1
 8004d44:	61f9      	str	r1, [r7, #28]
 8004d46:	f062 027f 	orn	r2, r2, #127	; 0x7f
 8004d4a:	b2d2      	uxtb	r2, r2
 8004d4c:	701a      	strb	r2, [r3, #0]
 8004d4e:	69bb      	ldr	r3, [r7, #24]
 8004d50:	09db      	lsrs	r3, r3, #7
 8004d52:	61bb      	str	r3, [r7, #24]
 8004d54:	69bb      	ldr	r3, [r7, #24]
 8004d56:	2b7f      	cmp	r3, #127	; 0x7f
 8004d58:	d8f0      	bhi.n	8004d3c <SEGGER_SYSVIEW_OnTaskCreate+0x38>
 8004d5a:	69fb      	ldr	r3, [r7, #28]
 8004d5c:	1c5a      	adds	r2, r3, #1
 8004d5e:	61fa      	str	r2, [r7, #28]
 8004d60:	69ba      	ldr	r2, [r7, #24]
 8004d62:	b2d2      	uxtb	r2, r2
 8004d64:	701a      	strb	r2, [r3, #0]
 8004d66:	69fb      	ldr	r3, [r7, #28]
 8004d68:	60fb      	str	r3, [r7, #12]
 8004d6a:	2208      	movs	r2, #8
 8004d6c:	68f9      	ldr	r1, [r7, #12]
 8004d6e:	6938      	ldr	r0, [r7, #16]
 8004d70:	f7ff fa96 	bl	80042a0 <_SendPacket>
 8004d74:	697b      	ldr	r3, [r7, #20]
 8004d76:	f383 8811 	msr	BASEPRI, r3
 8004d7a:	bf00      	nop
 8004d7c:	3720      	adds	r7, #32
 8004d7e:	46bd      	mov	sp, r7
 8004d80:	bd80      	pop	{r7, pc}
 8004d82:	bf00      	nop
 8004d84:	2001550c 	.word	0x2001550c
 8004d88:	200154dc 	.word	0x200154dc

08004d8c <SEGGER_SYSVIEW_OnTaskStartExec>:
 8004d8c:	b580      	push	{r7, lr}
 8004d8e:	b088      	sub	sp, #32
 8004d90:	af00      	add	r7, sp, #0
 8004d92:	6078      	str	r0, [r7, #4]
 8004d94:	f3ef 8311 	mrs	r3, BASEPRI
 8004d98:	f04f 0120 	mov.w	r1, #32
 8004d9c:	f381 8811 	msr	BASEPRI, r1
 8004da0:	617b      	str	r3, [r7, #20]
 8004da2:	481a      	ldr	r0, [pc, #104]	; (8004e0c <SEGGER_SYSVIEW_OnTaskStartExec+0x80>)
 8004da4:	f7ff f9a3 	bl	80040ee <_PreparePacket>
 8004da8:	6138      	str	r0, [r7, #16]
 8004daa:	693b      	ldr	r3, [r7, #16]
 8004dac:	60fb      	str	r3, [r7, #12]
 8004dae:	4b18      	ldr	r3, [pc, #96]	; (8004e10 <SEGGER_SYSVIEW_OnTaskStartExec+0x84>)
 8004db0:	691b      	ldr	r3, [r3, #16]
 8004db2:	687a      	ldr	r2, [r7, #4]
 8004db4:	1ad3      	subs	r3, r2, r3
 8004db6:	089b      	lsrs	r3, r3, #2
 8004db8:	607b      	str	r3, [r7, #4]
 8004dba:	68fb      	ldr	r3, [r7, #12]
 8004dbc:	61fb      	str	r3, [r7, #28]
 8004dbe:	687b      	ldr	r3, [r7, #4]
 8004dc0:	61bb      	str	r3, [r7, #24]
 8004dc2:	e00b      	b.n	8004ddc <SEGGER_SYSVIEW_OnTaskStartExec+0x50>
 8004dc4:	69bb      	ldr	r3, [r7, #24]
 8004dc6:	b2da      	uxtb	r2, r3
 8004dc8:	69fb      	ldr	r3, [r7, #28]
 8004dca:	1c59      	adds	r1, r3, #1
 8004dcc:	61f9      	str	r1, [r7, #28]
 8004dce:	f062 027f 	orn	r2, r2, #127	; 0x7f
 8004dd2:	b2d2      	uxtb	r2, r2
 8004dd4:	701a      	strb	r2, [r3, #0]
 8004dd6:	69bb      	ldr	r3, [r7, #24]
 8004dd8:	09db      	lsrs	r3, r3, #7
 8004dda:	61bb      	str	r3, [r7, #24]
 8004ddc:	69bb      	ldr	r3, [r7, #24]
 8004dde:	2b7f      	cmp	r3, #127	; 0x7f
 8004de0:	d8f0      	bhi.n	8004dc4 <SEGGER_SYSVIEW_OnTaskStartExec+0x38>
 8004de2:	69fb      	ldr	r3, [r7, #28]
 8004de4:	1c5a      	adds	r2, r3, #1
 8004de6:	61fa      	str	r2, [r7, #28]
 8004de8:	69ba      	ldr	r2, [r7, #24]
 8004dea:	b2d2      	uxtb	r2, r2
 8004dec:	701a      	strb	r2, [r3, #0]
 8004dee:	69fb      	ldr	r3, [r7, #28]
 8004df0:	60fb      	str	r3, [r7, #12]
 8004df2:	2204      	movs	r2, #4
 8004df4:	68f9      	ldr	r1, [r7, #12]
 8004df6:	6938      	ldr	r0, [r7, #16]
 8004df8:	f7ff fa52 	bl	80042a0 <_SendPacket>
 8004dfc:	697b      	ldr	r3, [r7, #20]
 8004dfe:	f383 8811 	msr	BASEPRI, r3
 8004e02:	bf00      	nop
 8004e04:	3720      	adds	r7, #32
 8004e06:	46bd      	mov	sp, r7
 8004e08:	bd80      	pop	{r7, pc}
 8004e0a:	bf00      	nop
 8004e0c:	2001550c 	.word	0x2001550c
 8004e10:	200154dc 	.word	0x200154dc

08004e14 <SEGGER_SYSVIEW_OnTaskStartReady>:
 8004e14:	b580      	push	{r7, lr}
 8004e16:	b088      	sub	sp, #32
 8004e18:	af00      	add	r7, sp, #0
 8004e1a:	6078      	str	r0, [r7, #4]
 8004e1c:	f3ef 8311 	mrs	r3, BASEPRI
 8004e20:	f04f 0120 	mov.w	r1, #32
 8004e24:	f381 8811 	msr	BASEPRI, r1
 8004e28:	617b      	str	r3, [r7, #20]
 8004e2a:	481a      	ldr	r0, [pc, #104]	; (8004e94 <SEGGER_SYSVIEW_OnTaskStartReady+0x80>)
 8004e2c:	f7ff f95f 	bl	80040ee <_PreparePacket>
 8004e30:	6138      	str	r0, [r7, #16]
 8004e32:	693b      	ldr	r3, [r7, #16]
 8004e34:	60fb      	str	r3, [r7, #12]
 8004e36:	4b18      	ldr	r3, [pc, #96]	; (8004e98 <SEGGER_SYSVIEW_OnTaskStartReady+0x84>)
 8004e38:	691b      	ldr	r3, [r3, #16]
 8004e3a:	687a      	ldr	r2, [r7, #4]
 8004e3c:	1ad3      	subs	r3, r2, r3
 8004e3e:	089b      	lsrs	r3, r3, #2
 8004e40:	607b      	str	r3, [r7, #4]
 8004e42:	68fb      	ldr	r3, [r7, #12]
 8004e44:	61fb      	str	r3, [r7, #28]
 8004e46:	687b      	ldr	r3, [r7, #4]
 8004e48:	61bb      	str	r3, [r7, #24]
 8004e4a:	e00b      	b.n	8004e64 <SEGGER_SYSVIEW_OnTaskStartReady+0x50>
 8004e4c:	69bb      	ldr	r3, [r7, #24]
 8004e4e:	b2da      	uxtb	r2, r3
 8004e50:	69fb      	ldr	r3, [r7, #28]
 8004e52:	1c59      	adds	r1, r3, #1
 8004e54:	61f9      	str	r1, [r7, #28]
 8004e56:	f062 027f 	orn	r2, r2, #127	; 0x7f
 8004e5a:	b2d2      	uxtb	r2, r2
 8004e5c:	701a      	strb	r2, [r3, #0]
 8004e5e:	69bb      	ldr	r3, [r7, #24]
 8004e60:	09db      	lsrs	r3, r3, #7
 8004e62:	61bb      	str	r3, [r7, #24]
 8004e64:	69bb      	ldr	r3, [r7, #24]
 8004e66:	2b7f      	cmp	r3, #127	; 0x7f
 8004e68:	d8f0      	bhi.n	8004e4c <SEGGER_SYSVIEW_OnTaskStartReady+0x38>
 8004e6a:	69fb      	ldr	r3, [r7, #28]
 8004e6c:	1c5a      	adds	r2, r3, #1
 8004e6e:	61fa      	str	r2, [r7, #28]
 8004e70:	69ba      	ldr	r2, [r7, #24]
 8004e72:	b2d2      	uxtb	r2, r2
 8004e74:	701a      	strb	r2, [r3, #0]
 8004e76:	69fb      	ldr	r3, [r7, #28]
 8004e78:	60fb      	str	r3, [r7, #12]
 8004e7a:	2206      	movs	r2, #6
 8004e7c:	68f9      	ldr	r1, [r7, #12]
 8004e7e:	6938      	ldr	r0, [r7, #16]
 8004e80:	f7ff fa0e 	bl	80042a0 <_SendPacket>
 8004e84:	697b      	ldr	r3, [r7, #20]
 8004e86:	f383 8811 	msr	BASEPRI, r3
 8004e8a:	bf00      	nop
 8004e8c:	3720      	adds	r7, #32
 8004e8e:	46bd      	mov	sp, r7
 8004e90:	bd80      	pop	{r7, pc}
 8004e92:	bf00      	nop
 8004e94:	2001550c 	.word	0x2001550c
 8004e98:	200154dc 	.word	0x200154dc

08004e9c <SEGGER_SYSVIEW_OnTaskStopReady>:
 8004e9c:	b580      	push	{r7, lr}
 8004e9e:	b08a      	sub	sp, #40	; 0x28
 8004ea0:	af00      	add	r7, sp, #0
 8004ea2:	6078      	str	r0, [r7, #4]
 8004ea4:	6039      	str	r1, [r7, #0]
 8004ea6:	f3ef 8311 	mrs	r3, BASEPRI
 8004eaa:	f04f 0120 	mov.w	r1, #32
 8004eae:	f381 8811 	msr	BASEPRI, r1
 8004eb2:	617b      	str	r3, [r7, #20]
 8004eb4:	4827      	ldr	r0, [pc, #156]	; (8004f54 <SEGGER_SYSVIEW_OnTaskStopReady+0xb8>)
 8004eb6:	f7ff f91a 	bl	80040ee <_PreparePacket>
 8004eba:	6138      	str	r0, [r7, #16]
 8004ebc:	693b      	ldr	r3, [r7, #16]
 8004ebe:	60fb      	str	r3, [r7, #12]
 8004ec0:	4b25      	ldr	r3, [pc, #148]	; (8004f58 <SEGGER_SYSVIEW_OnTaskStopReady+0xbc>)
 8004ec2:	691b      	ldr	r3, [r3, #16]
 8004ec4:	687a      	ldr	r2, [r7, #4]
 8004ec6:	1ad3      	subs	r3, r2, r3
 8004ec8:	089b      	lsrs	r3, r3, #2
 8004eca:	607b      	str	r3, [r7, #4]
 8004ecc:	68fb      	ldr	r3, [r7, #12]
 8004ece:	627b      	str	r3, [r7, #36]	; 0x24
 8004ed0:	687b      	ldr	r3, [r7, #4]
 8004ed2:	623b      	str	r3, [r7, #32]
 8004ed4:	e00b      	b.n	8004eee <SEGGER_SYSVIEW_OnTaskStopReady+0x52>
 8004ed6:	6a3b      	ldr	r3, [r7, #32]
 8004ed8:	b2da      	uxtb	r2, r3
 8004eda:	6a7b      	ldr	r3, [r7, #36]	; 0x24
 8004edc:	1c59      	adds	r1, r3, #1
 8004ede:	6279      	str	r1, [r7, #36]	; 0x24
 8004ee0:	f062 027f 	orn	r2, r2, #127	; 0x7f
 8004ee4:	b2d2      	uxtb	r2, r2
 8004ee6:	701a      	strb	r2, [r3, #0]
 8004ee8:	6a3b      	ldr	r3, [r7, #32]
 8004eea:	09db      	lsrs	r3, r3, #7
 8004eec:	623b      	str	r3, [r7, #32]
 8004eee:	6a3b      	ldr	r3, [r7, #32]
 8004ef0:	2b7f      	cmp	r3, #127	; 0x7f
 8004ef2:	d8f0      	bhi.n	8004ed6 <SEGGER_SYSVIEW_OnTaskStopReady+0x3a>
 8004ef4:	6a7b      	ldr	r3, [r7, #36]	; 0x24
 8004ef6:	1c5a      	adds	r2, r3, #1
 8004ef8:	627a      	str	r2, [r7, #36]	; 0x24
 8004efa:	6a3a      	ldr	r2, [r7, #32]
 8004efc:	b2d2      	uxtb	r2, r2
 8004efe:	701a      	strb	r2, [r3, #0]
 8004f00:	6a7b      	ldr	r3, [r7, #36]	; 0x24
 8004f02:	60fb      	str	r3, [r7, #12]
 8004f04:	68fb      	ldr	r3, [r7, #12]
 8004f06:	61fb      	str	r3, [r7, #28]
 8004f08:	683b      	ldr	r3, [r7, #0]
 8004f0a:	61bb      	str	r3, [r7, #24]
 8004f0c:	e00b      	b.n	8004f26 <SEGGER_SYSVIEW_OnTaskStopReady+0x8a>
 8004f0e:	69bb      	ldr	r3, [r7, #24]
 8004f10:	b2da      	uxtb	r2, r3
 8004f12:	69fb      	ldr	r3, [r7, #28]
 8004f14:	1c59      	adds	r1, r3, #1
 8004f16:	61f9      	str	r1, [r7, #28]
 8004f18:	f062 027f 	orn	r2, r2, #127	; 0x7f
 8004f1c:	b2d2      	uxtb	r2, r2
 8004f1e:	701a      	strb	r2, [r3, #0]
 8004f20:	69bb      	ldr	r3, [r7, #24]
 8004f22:	09db      	lsrs	r3, r3, #7
 8004f24:	61bb      	str	r3, [r7, #24]
 8004f26:	69bb      	ldr	r3, [r7, #24]
 8004f28:	2b7f      	cmp	r3, #127	; 0x7f
 8004f2a:	d8f0      	bhi.n	8004f0e <SEGGER_SYSVIEW_OnTaskStopReady+0x72>
 8004f2c:	69fb      	ldr	r3, [r7, #28]
 8004f2e:	1c5a      	adds	r2, r3, #1
 8004f30:	61fa      	str	r2, [r7, #28]
 8004f32:	69ba      	ldr	r2, [r7, #24]
 8004f34:	b2d2      	uxtb	r2, r2
 8004f36:	701a      	strb	r2, [r3, #0]
 8004f38:	69fb      	ldr	r3, [r7, #28]
 8004f3a:	60fb      	str	r3, [r7, #12]
 8004f3c:	2207      	movs	r2, #7
 8004f3e:	68f9      	ldr	r1, [r7, #12]
 8004f40:	6938      	ldr	r0, [r7, #16]
 8004f42:	f7ff f9ad 	bl	80042a0 <_SendPacket>
 8004f46:	697b      	ldr	r3, [r7, #20]
 8004f48:	f383 8811 	msr	BASEPRI, r3
 8004f4c:	bf00      	nop
 8004f4e:	3728      	adds	r7, #40	; 0x28
 8004f50:	46bd      	mov	sp, r7
 8004f52:	bd80      	pop	{r7, pc}
 8004f54:	2001550c 	.word	0x2001550c
 8004f58:	200154dc 	.word	0x200154dc

08004f5c <SEGGER_SYSVIEW_SendModule>:
 8004f5c:	b580      	push	{r7, lr}
 8004f5e:	b08c      	sub	sp, #48	; 0x30
 8004f60:	af00      	add	r7, sp, #0
 8004f62:	4603      	mov	r3, r0
 8004f64:	71fb      	strb	r3, [r7, #7]
 8004f66:	4b3b      	ldr	r3, [pc, #236]	; (8005054 <SEGGER_SYSVIEW_SendModule+0xf8>)
 8004f68:	681b      	ldr	r3, [r3, #0]
 8004f6a:	2b00      	cmp	r3, #0
 8004f6c:	d06d      	beq.n	800504a <SEGGER_SYSVIEW_SendModule+0xee>
 8004f6e:	4b39      	ldr	r3, [pc, #228]	; (8005054 <SEGGER_SYSVIEW_SendModule+0xf8>)
 8004f70:	681b      	ldr	r3, [r3, #0]
 8004f72:	62fb      	str	r3, [r7, #44]	; 0x2c
 8004f74:	2300      	movs	r3, #0
 8004f76:	62bb      	str	r3, [r7, #40]	; 0x28
 8004f78:	e008      	b.n	8004f8c <SEGGER_SYSVIEW_SendModule+0x30>
 8004f7a:	6afb      	ldr	r3, [r7, #44]	; 0x2c
 8004f7c:	691b      	ldr	r3, [r3, #16]
 8004f7e:	62fb      	str	r3, [r7, #44]	; 0x2c
 8004f80:	6afb      	ldr	r3, [r7, #44]	; 0x2c
 8004f82:	2b00      	cmp	r3, #0
 8004f84:	d007      	beq.n	8004f96 <SEGGER_SYSVIEW_SendModule+0x3a>
 8004f86:	6abb      	ldr	r3, [r7, #40]	; 0x28
 8004f88:	3301      	adds	r3, #1
 8004f8a:	62bb      	str	r3, [r7, #40]	; 0x28
 8004f8c:	79fb      	ldrb	r3, [r7, #7]
 8004f8e:	6aba      	ldr	r2, [r7, #40]	; 0x28
 8004f90:	429a      	cmp	r2, r3
 8004f92:	d3f2      	bcc.n	8004f7a <SEGGER_SYSVIEW_SendModule+0x1e>
 8004f94:	e000      	b.n	8004f98 <SEGGER_SYSVIEW_SendModule+0x3c>
 8004f96:	bf00      	nop
 8004f98:	6afb      	ldr	r3, [r7, #44]	; 0x2c
 8004f9a:	2b00      	cmp	r3, #0
 8004f9c:	d055      	beq.n	800504a <SEGGER_SYSVIEW_SendModule+0xee>
 8004f9e:	f3ef 8311 	mrs	r3, BASEPRI
 8004fa2:	f04f 0120 	mov.w	r1, #32
 8004fa6:	f381 8811 	msr	BASEPRI, r1
 8004faa:	617b      	str	r3, [r7, #20]
 8004fac:	482a      	ldr	r0, [pc, #168]	; (8005058 <SEGGER_SYSVIEW_SendModule+0xfc>)
 8004fae:	f7ff f89e 	bl	80040ee <_PreparePacket>
 8004fb2:	6138      	str	r0, [r7, #16]
 8004fb4:	693b      	ldr	r3, [r7, #16]
 8004fb6:	60fb      	str	r3, [r7, #12]
 8004fb8:	68fb      	ldr	r3, [r7, #12]
 8004fba:	627b      	str	r3, [r7, #36]	; 0x24
 8004fbc:	79fb      	ldrb	r3, [r7, #7]
 8004fbe:	623b      	str	r3, [r7, #32]
 8004fc0:	e00b      	b.n	8004fda <SEGGER_SYSVIEW_SendModule+0x7e>
 8004fc2:	6a3b      	ldr	r3, [r7, #32]
 8004fc4:	b2da      	uxtb	r2, r3
 8004fc6:	6a7b      	ldr	r3, [r7, #36]	; 0x24
 8004fc8:	1c59      	adds	r1, r3, #1
 8004fca:	6279      	str	r1, [r7, #36]	; 0x24
 8004fcc:	f062 027f 	orn	r2, r2, #127	; 0x7f
 8004fd0:	b2d2      	uxtb	r2, r2
 8004fd2:	701a      	strb	r2, [r3, #0]
 8004fd4:	6a3b      	ldr	r3, [r7, #32]
 8004fd6:	09db      	lsrs	r3, r3, #7
 8004fd8:	623b      	str	r3, [r7, #32]
 8004fda:	6a3b      	ldr	r3, [r7, #32]
 8004fdc:	2b7f      	cmp	r3, #127	; 0x7f
 8004fde:	d8f0      	bhi.n	8004fc2 <SEGGER_SYSVIEW_SendModule+0x66>
 8004fe0:	6a7b      	ldr	r3, [r7, #36]	; 0x24
 8004fe2:	1c5a      	adds	r2, r3, #1
 8004fe4:	627a      	str	r2, [r7, #36]	; 0x24
 8004fe6:	6a3a      	ldr	r2, [r7, #32]
 8004fe8:	b2d2      	uxtb	r2, r2
 8004fea:	701a      	strb	r2, [r3, #0]
 8004fec:	6a7b      	ldr	r3, [r7, #36]	; 0x24
 8004fee:	60fb      	str	r3, [r7, #12]
 8004ff0:	68fb      	ldr	r3, [r7, #12]
 8004ff2:	61fb      	str	r3, [r7, #28]
 8004ff4:	6afb      	ldr	r3, [r7, #44]	; 0x2c
 8004ff6:	689b      	ldr	r3, [r3, #8]
 8004ff8:	61bb      	str	r3, [r7, #24]
 8004ffa:	e00b      	b.n	8005014 <SEGGER_SYSVIEW_SendModule+0xb8>
 8004ffc:	69bb      	ldr	r3, [r7, #24]
 8004ffe:	b2da      	uxtb	r2, r3
 8005000:	69fb      	ldr	r3, [r7, #28]
 8005002:	1c59      	adds	r1, r3, #1
 8005004:	61f9      	str	r1, [r7, #28]
 8005006:	f062 027f 	orn	r2, r2, #127	; 0x7f
 800500a:	b2d2      	uxtb	r2, r2
 800500c:	701a      	strb	r2, [r3, #0]
 800500e:	69bb      	ldr	r3, [r7, #24]
 8005010:	09db      	lsrs	r3, r3, #7
 8005012:	61bb      	str	r3, [r7, #24]
 8005014:	69bb      	ldr	r3, [r7, #24]
 8005016:	2b7f      	cmp	r3, #127	; 0x7f
 8005018:	d8f0      	bhi.n	8004ffc <SEGGER_SYSVIEW_SendModule+0xa0>
 800501a:	69fb      	ldr	r3, [r7, #28]
 800501c:	1c5a      	adds	r2, r3, #1
 800501e:	61fa      	str	r2, [r7, #28]
 8005020:	69ba      	ldr	r2, [r7, #24]
 8005022:	b2d2      	uxtb	r2, r2
 8005024:	701a      	strb	r2, [r3, #0]
 8005026:	69fb      	ldr	r3, [r7, #28]
 8005028:	60fb      	str	r3, [r7, #12]
 800502a:	6afb      	ldr	r3, [r7, #44]	; 0x2c
 800502c:	681b      	ldr	r3, [r3, #0]
 800502e:	2280      	movs	r2, #128	; 0x80
 8005030:	4619      	mov	r1, r3
 8005032:	68f8      	ldr	r0, [r7, #12]
 8005034:	f7ff f80e 	bl	8004054 <_EncodeStr>
 8005038:	60f8      	str	r0, [r7, #12]
 800503a:	2216      	movs	r2, #22
 800503c:	68f9      	ldr	r1, [r7, #12]
 800503e:	6938      	ldr	r0, [r7, #16]
 8005040:	f7ff f92e 	bl	80042a0 <_SendPacket>
 8005044:	697b      	ldr	r3, [r7, #20]
 8005046:	f383 8811 	msr	BASEPRI, r3
 800504a:	bf00      	nop
 800504c:	3730      	adds	r7, #48	; 0x30
 800504e:	46bd      	mov	sp, r7
 8005050:	bd80      	pop	{r7, pc}
 8005052:	bf00      	nop
 8005054:	20015504 	.word	0x20015504
 8005058:	2001550c 	.word	0x2001550c

0800505c <SEGGER_SYSVIEW_SendModuleDescription>:
 800505c:	b580      	push	{r7, lr}
 800505e:	b082      	sub	sp, #8
 8005060:	af00      	add	r7, sp, #0
 8005062:	4b0c      	ldr	r3, [pc, #48]	; (8005094 <SEGGER_SYSVIEW_SendModuleDescription+0x38>)
 8005064:	681b      	ldr	r3, [r3, #0]
 8005066:	2b00      	cmp	r3, #0
 8005068:	d00f      	beq.n	800508a <SEGGER_SYSVIEW_SendModuleDescription+0x2e>
 800506a:	4b0a      	ldr	r3, [pc, #40]	; (8005094 <SEGGER_SYSVIEW_SendModuleDescription+0x38>)
 800506c:	681b      	ldr	r3, [r3, #0]
 800506e:	607b      	str	r3, [r7, #4]
 8005070:	687b      	ldr	r3, [r7, #4]
 8005072:	68db      	ldr	r3, [r3, #12]
 8005074:	2b00      	cmp	r3, #0
 8005076:	d002      	beq.n	800507e <SEGGER_SYSVIEW_SendModuleDescription+0x22>
 8005078:	687b      	ldr	r3, [r7, #4]
 800507a:	68db      	ldr	r3, [r3, #12]
 800507c:	4798      	blx	r3
 800507e:	687b      	ldr	r3, [r7, #4]
 8005080:	691b      	ldr	r3, [r3, #16]
 8005082:	607b      	str	r3, [r7, #4]
 8005084:	687b      	ldr	r3, [r7, #4]
 8005086:	2b00      	cmp	r3, #0
 8005088:	d1f2      	bne.n	8005070 <SEGGER_SYSVIEW_SendModuleDescription+0x14>
 800508a:	bf00      	nop
 800508c:	3708      	adds	r7, #8
 800508e:	46bd      	mov	sp, r7
 8005090:	bd80      	pop	{r7, pc}
 8005092:	bf00      	nop
 8005094:	20015504 	.word	0x20015504

08005098 <SEGGER_SYSVIEW_SendNumModules>:
 8005098:	b580      	push	{r7, lr}
 800509a:	b086      	sub	sp, #24
 800509c:	af00      	add	r7, sp, #0
 800509e:	f3ef 8311 	mrs	r3, BASEPRI
 80050a2:	f04f 0120 	mov.w	r1, #32
 80050a6:	f381 8811 	msr	BASEPRI, r1
 80050aa:	60fb      	str	r3, [r7, #12]
 80050ac:	4817      	ldr	r0, [pc, #92]	; (800510c <SEGGER_SYSVIEW_SendNumModules+0x74>)
 80050ae:	f7ff f81e 	bl	80040ee <_PreparePacket>
 80050b2:	60b8      	str	r0, [r7, #8]
 80050b4:	68bb      	ldr	r3, [r7, #8]
 80050b6:	607b      	str	r3, [r7, #4]
 80050b8:	687b      	ldr	r3, [r7, #4]
 80050ba:	617b      	str	r3, [r7, #20]
 80050bc:	4b14      	ldr	r3, [pc, #80]	; (8005110 <SEGGER_SYSVIEW_SendNumModules+0x78>)
 80050be:	781b      	ldrb	r3, [r3, #0]
 80050c0:	613b      	str	r3, [r7, #16]
 80050c2:	e00b      	b.n	80050dc <SEGGER_SYSVIEW_SendNumModules+0x44>
 80050c4:	693b      	ldr	r3, [r7, #16]
 80050c6:	b2da      	uxtb	r2, r3
 80050c8:	697b      	ldr	r3, [r7, #20]
 80050ca:	1c59      	adds	r1, r3, #1
 80050cc:	6179      	str	r1, [r7, #20]
 80050ce:	f062 027f 	orn	r2, r2, #127	; 0x7f
 80050d2:	b2d2      	uxtb	r2, r2
 80050d4:	701a      	strb	r2, [r3, #0]
 80050d6:	693b      	ldr	r3, [r7, #16]
 80050d8:	09db      	lsrs	r3, r3, #7
 80050da:	613b      	str	r3, [r7, #16]
 80050dc:	693b      	ldr	r3, [r7, #16]
 80050de:	2b7f      	cmp	r3, #127	; 0x7f
 80050e0:	d8f0      	bhi.n	80050c4 <SEGGER_SYSVIEW_SendNumModules+0x2c>
 80050e2:	697b      	ldr	r3, [r7, #20]
 80050e4:	1c5a      	adds	r2, r3, #1
 80050e6:	617a      	str	r2, [r7, #20]
 80050e8:	693a      	ldr	r2, [r7, #16]
 80050ea:	b2d2      	uxtb	r2, r2
 80050ec:	701a      	strb	r2, [r3, #0]
 80050ee:	697b      	ldr	r3, [r7, #20]
 80050f0:	607b      	str	r3, [r7, #4]
 80050f2:	221b      	movs	r2, #27
 80050f4:	6879      	ldr	r1, [r7, #4]
 80050f6:	68b8      	ldr	r0, [r7, #8]
 80050f8:	f7ff f8d2 	bl	80042a0 <_SendPacket>
 80050fc:	68fb      	ldr	r3, [r7, #12]
 80050fe:	f383 8811 	msr	BASEPRI, r3
 8005102:	bf00      	nop
 8005104:	3718      	adds	r7, #24
 8005106:	46bd      	mov	sp, r7
 8005108:	bd80      	pop	{r7, pc}
 800510a:	bf00      	nop
 800510c:	2001550c 	.word	0x2001550c
 8005110:	20015508 	.word	0x20015508

08005114 <SEGGER_SYSVIEW_Warn>:
 8005114:	b580      	push	{r7, lr}
 8005116:	b08a      	sub	sp, #40	; 0x28
 8005118:	af00      	add	r7, sp, #0
 800511a:	6078      	str	r0, [r7, #4]
 800511c:	f3ef 8311 	mrs	r3, BASEPRI
 8005120:	f04f 0120 	mov.w	r1, #32
 8005124:	f381 8811 	msr	BASEPRI, r1
 8005128:	617b      	str	r3, [r7, #20]
 800512a:	4827      	ldr	r0, [pc, #156]	; (80051c8 <SEGGER_SYSVIEW_Warn+0xb4>)
 800512c:	f7fe ffdf 	bl	80040ee <_PreparePacket>
 8005130:	6138      	str	r0, [r7, #16]
 8005132:	2280      	movs	r2, #128	; 0x80
 8005134:	6879      	ldr	r1, [r7, #4]
 8005136:	6938      	ldr	r0, [r7, #16]
 8005138:	f7fe ff8c 	bl	8004054 <_EncodeStr>
 800513c:	60f8      	str	r0, [r7, #12]
 800513e:	68fb      	ldr	r3, [r7, #12]
 8005140:	627b      	str	r3, [r7, #36]	; 0x24
 8005142:	2301      	movs	r3, #1
 8005144:	623b      	str	r3, [r7, #32]
 8005146:	e00b      	b.n	8005160 <SEGGER_SYSVIEW_Warn+0x4c>
 8005148:	6a3b      	ldr	r3, [r7, #32]
 800514a:	b2da      	uxtb	r2, r3
 800514c:	6a7b      	ldr	r3, [r7, #36]	; 0x24
 800514e:	1c59      	adds	r1, r3, #1
 8005150:	6279      	str	r1, [r7, #36]	; 0x24
 8005152:	f062 027f 	orn	r2, r2, #127	; 0x7f
 8005156:	b2d2      	uxtb	r2, r2
 8005158:	701a      	strb	r2, [r3, #0]
 800515a:	6a3b      	ldr	r3, [r7, #32]
 800515c:	09db      	lsrs	r3, r3, #7
 800515e:	623b      	str	r3, [r7, #32]
 8005160:	6a3b      	ldr	r3, [r7, #32]
 8005162:	2b7f      	cmp	r3, #127	; 0x7f
 8005164:	d8f0      	bhi.n	8005148 <SEGGER_SYSVIEW_Warn+0x34>
 8005166:	6a7b      	ldr	r3, [r7, #36]	; 0x24
 8005168:	1c5a      	adds	r2, r3, #1
 800516a:	627a      	str	r2, [r7, #36]	; 0x24
 800516c:	6a3a      	ldr	r2, [r7, #32]
 800516e:	b2d2      	uxtb	r2, r2
 8005170:	701a      	strb	r2, [r3, #0]
 8005172:	6a7b      	ldr	r3, [r7, #36]	; 0x24
 8005174:	60fb      	str	r3, [r7, #12]
 8005176:	68fb      	ldr	r3, [r7, #12]
 8005178:	61fb      	str	r3, [r7, #28]
 800517a:	2300      	movs	r3, #0
 800517c:	61bb      	str	r3, [r7, #24]
 800517e:	e00b      	b.n	8005198 <SEGGER_SYSVIEW_Warn+0x84>
 8005180:	69bb      	ldr	r3, [r7, #24]
 8005182:	b2da      	uxtb	r2, r3
 8005184:	69fb      	ldr	r3, [r7, #28]
 8005186:	1c59      	adds	r1, r3, #1
 8005188:	61f9      	str	r1, [r7, #28]
 800518a:	f062 027f 	orn	r2, r2, #127	; 0x7f
 800518e:	b2d2      	uxtb	r2, r2
 8005190:	701a      	strb	r2, [r3, #0]
 8005192:	69bb      	ldr	r3, [r7, #24]
 8005194:	09db      	lsrs	r3, r3, #7
 8005196:	61bb      	str	r3, [r7, #24]
 8005198:	69bb      	ldr	r3, [r7, #24]
 800519a:	2b7f      	cmp	r3, #127	; 0x7f
 800519c:	d8f0      	bhi.n	8005180 <SEGGER_SYSVIEW_Warn+0x6c>
 800519e:	69fb      	ldr	r3, [r7, #28]
 80051a0:	1c5a      	adds	r2, r3, #1
 80051a2:	61fa      	str	r2, [r7, #28]
 80051a4:	69ba      	ldr	r2, [r7, #24]
 80051a6:	b2d2      	uxtb	r2, r2
 80051a8:	701a      	strb	r2, [r3, #0]
 80051aa:	69fb      	ldr	r3, [r7, #28]
 80051ac:	60fb      	str	r3, [r7, #12]
 80051ae:	221a      	movs	r2, #26
 80051b0:	68f9      	ldr	r1, [r7, #12]
 80051b2:	6938      	ldr	r0, [r7, #16]
 80051b4:	f7ff f874 	bl	80042a0 <_SendPacket>
 80051b8:	697b      	ldr	r3, [r7, #20]
 80051ba:	f383 8811 	msr	BASEPRI, r3
 80051be:	bf00      	nop
 80051c0:	3728      	adds	r7, #40	; 0x28
 80051c2:	46bd      	mov	sp, r7
 80051c4:	bd80      	pop	{r7, pc}
 80051c6:	bf00      	nop
 80051c8:	2001550c 	.word	0x2001550c

080051cc <__errno>:
 80051cc:	4b01      	ldr	r3, [pc, #4]	; (80051d4 <__errno+0x8>)
 80051ce:	6818      	ldr	r0, [r3, #0]
 80051d0:	4770      	bx	lr
 80051d2:	bf00      	nop
 80051d4:	20000010 	.word	0x20000010

080051d8 <__libc_init_array>:
 80051d8:	b570      	push	{r4, r5, r6, lr}
 80051da:	4e0d      	ldr	r6, [pc, #52]	; (8005210 <__libc_init_array+0x38>)
 80051dc:	4c0d      	ldr	r4, [pc, #52]	; (8005214 <__libc_init_array+0x3c>)
 80051de:	1ba4      	subs	r4, r4, r6
 80051e0:	10a4      	asrs	r4, r4, #2
 80051e2:	2500      	movs	r5, #0
 80051e4:	42a5      	cmp	r5, r4
 80051e6:	d109      	bne.n	80051fc <__libc_init_array+0x24>
 80051e8:	4e0b      	ldr	r6, [pc, #44]	; (8005218 <__libc_init_array+0x40>)
 80051ea:	4c0c      	ldr	r4, [pc, #48]	; (800521c <__libc_init_array+0x44>)
 80051ec:	f000 fc36 	bl	8005a5c <_init>
 80051f0:	1ba4      	subs	r4, r4, r6
 80051f2:	10a4      	asrs	r4, r4, #2
 80051f4:	2500      	movs	r5, #0
 80051f6:	42a5      	cmp	r5, r4
 80051f8:	d105      	bne.n	8005206 <__libc_init_array+0x2e>
 80051fa:	bd70      	pop	{r4, r5, r6, pc}
 80051fc:	f856 3025 	ldr.w	r3, [r6, r5, lsl #2]
 8005200:	4798      	blx	r3
 8005202:	3501      	adds	r5, #1
 8005204:	e7ee      	b.n	80051e4 <__libc_init_array+0xc>
 8005206:	f856 3025 	ldr.w	r3, [r6, r5, lsl #2]
 800520a:	4798      	blx	r3
 800520c:	3501      	adds	r5, #1
 800520e:	e7f2      	b.n	80051f6 <__libc_init_array+0x1e>
 8005210:	08005bd8 	.word	0x08005bd8
 8005214:	08005bd8 	.word	0x08005bd8
 8005218:	08005bd8 	.word	0x08005bd8
 800521c:	08005bdc 	.word	0x08005bdc

08005220 <memcmp>:
 8005220:	b530      	push	{r4, r5, lr}
 8005222:	2400      	movs	r4, #0
 8005224:	42a2      	cmp	r2, r4
 8005226:	d101      	bne.n	800522c <memcmp+0xc>
 8005228:	2000      	movs	r0, #0
 800522a:	e007      	b.n	800523c <memcmp+0x1c>
 800522c:	5d03      	ldrb	r3, [r0, r4]
 800522e:	3401      	adds	r4, #1
 8005230:	190d      	adds	r5, r1, r4
 8005232:	f815 5c01 	ldrb.w	r5, [r5, #-1]
 8005236:	42ab      	cmp	r3, r5
 8005238:	d0f4      	beq.n	8005224 <memcmp+0x4>
 800523a:	1b58      	subs	r0, r3, r5
 800523c:	bd30      	pop	{r4, r5, pc}

0800523e <memcpy>:
 800523e:	b510      	push	{r4, lr}
 8005240:	1e43      	subs	r3, r0, #1
 8005242:	440a      	add	r2, r1
 8005244:	4291      	cmp	r1, r2
 8005246:	d100      	bne.n	800524a <memcpy+0xc>
 8005248:	bd10      	pop	{r4, pc}
 800524a:	f811 4b01 	ldrb.w	r4, [r1], #1
 800524e:	f803 4f01 	strb.w	r4, [r3, #1]!
 8005252:	e7f7      	b.n	8005244 <memcpy+0x6>

08005254 <memset>:
 8005254:	4402      	add	r2, r0
 8005256:	4603      	mov	r3, r0
 8005258:	4293      	cmp	r3, r2
 800525a:	d100      	bne.n	800525e <memset+0xa>
 800525c:	4770      	bx	lr
 800525e:	f803 1b01 	strb.w	r1, [r3], #1
 8005262:	e7f9      	b.n	8005258 <memset+0x4>

08005264 <siprintf>:
 8005264:	b40e      	push	{r1, r2, r3}
 8005266:	b500      	push	{lr}
 8005268:	b09c      	sub	sp, #112	; 0x70
 800526a:	ab1d      	add	r3, sp, #116	; 0x74
 800526c:	9002      	str	r0, [sp, #8]
 800526e:	9006      	str	r0, [sp, #24]
 8005270:	f06f 4100 	mvn.w	r1, #2147483648	; 0x80000000
 8005274:	4809      	ldr	r0, [pc, #36]	; (800529c <siprintf+0x38>)
 8005276:	9107      	str	r1, [sp, #28]
 8005278:	9104      	str	r1, [sp, #16]
 800527a:	4909      	ldr	r1, [pc, #36]	; (80052a0 <siprintf+0x3c>)
 800527c:	f853 2b04 	ldr.w	r2, [r3], #4
 8005280:	9105      	str	r1, [sp, #20]
 8005282:	6800      	ldr	r0, [r0, #0]
 8005284:	9301      	str	r3, [sp, #4]
 8005286:	a902      	add	r1, sp, #8
 8005288:	f000 f866 	bl	8005358 <_svfiprintf_r>
 800528c:	9b02      	ldr	r3, [sp, #8]
 800528e:	2200      	movs	r2, #0
 8005290:	701a      	strb	r2, [r3, #0]
 8005292:	b01c      	add	sp, #112	; 0x70
 8005294:	f85d eb04 	ldr.w	lr, [sp], #4
 8005298:	b003      	add	sp, #12
 800529a:	4770      	bx	lr
 800529c:	20000010 	.word	0x20000010
 80052a0:	ffff0208 	.word	0xffff0208

080052a4 <__ssputs_r>:
 80052a4:	e92d 47f0 	stmdb	sp!, {r4, r5, r6, r7, r8, r9, sl, lr}
 80052a8:	688e      	ldr	r6, [r1, #8]
 80052aa:	429e      	cmp	r6, r3
 80052ac:	4682      	mov	sl, r0
 80052ae:	460c      	mov	r4, r1
 80052b0:	4690      	mov	r8, r2
 80052b2:	4699      	mov	r9, r3
 80052b4:	d837      	bhi.n	8005326 <__ssputs_r+0x82>
 80052b6:	898a      	ldrh	r2, [r1, #12]
 80052b8:	f412 6f90 	tst.w	r2, #1152	; 0x480
 80052bc:	d031      	beq.n	8005322 <__ssputs_r+0x7e>
 80052be:	6825      	ldr	r5, [r4, #0]
 80052c0:	6909      	ldr	r1, [r1, #16]
 80052c2:	1a6f      	subs	r7, r5, r1
 80052c4:	6965      	ldr	r5, [r4, #20]
 80052c6:	2302      	movs	r3, #2
 80052c8:	eb05 0545 	add.w	r5, r5, r5, lsl #1
 80052cc:	fb95 f5f3 	sdiv	r5, r5, r3
 80052d0:	f109 0301 	add.w	r3, r9, #1
 80052d4:	443b      	add	r3, r7
 80052d6:	429d      	cmp	r5, r3
 80052d8:	bf38      	it	cc
 80052da:	461d      	movcc	r5, r3
 80052dc:	0553      	lsls	r3, r2, #21
 80052de:	d530      	bpl.n	8005342 <__ssputs_r+0x9e>
 80052e0:	4629      	mov	r1, r5
 80052e2:	f000 fb21 	bl	8005928 <_malloc_r>
 80052e6:	4606      	mov	r6, r0
 80052e8:	b950      	cbnz	r0, 8005300 <__ssputs_r+0x5c>
 80052ea:	230c      	movs	r3, #12
 80052ec:	f8ca 3000 	str.w	r3, [sl]
 80052f0:	89a3      	ldrh	r3, [r4, #12]
 80052f2:	f043 0340 	orr.w	r3, r3, #64	; 0x40
 80052f6:	81a3      	strh	r3, [r4, #12]
 80052f8:	f04f 30ff 	mov.w	r0, #4294967295
 80052fc:	e8bd 87f0 	ldmia.w	sp!, {r4, r5, r6, r7, r8, r9, sl, pc}
 8005300:	463a      	mov	r2, r7
 8005302:	6921      	ldr	r1, [r4, #16]
 8005304:	f7ff ff9b 	bl	800523e <memcpy>
 8005308:	89a3      	ldrh	r3, [r4, #12]
 800530a:	f423 6390 	bic.w	r3, r3, #1152	; 0x480
 800530e:	f043 0380 	orr.w	r3, r3, #128	; 0x80
 8005312:	81a3      	strh	r3, [r4, #12]
 8005314:	6126      	str	r6, [r4, #16]
 8005316:	6165      	str	r5, [r4, #20]
 8005318:	443e      	add	r6, r7
 800531a:	1bed      	subs	r5, r5, r7
 800531c:	6026      	str	r6, [r4, #0]
 800531e:	60a5      	str	r5, [r4, #8]
 8005320:	464e      	mov	r6, r9
 8005322:	454e      	cmp	r6, r9
 8005324:	d900      	bls.n	8005328 <__ssputs_r+0x84>
 8005326:	464e      	mov	r6, r9
 8005328:	4632      	mov	r2, r6
 800532a:	4641      	mov	r1, r8
 800532c:	6820      	ldr	r0, [r4, #0]
 800532e:	f000 fa93 	bl	8005858 <memmove>
 8005332:	68a3      	ldr	r3, [r4, #8]
 8005334:	1b9b      	subs	r3, r3, r6
 8005336:	60a3      	str	r3, [r4, #8]
 8005338:	6823      	ldr	r3, [r4, #0]
 800533a:	441e      	add	r6, r3
 800533c:	6026      	str	r6, [r4, #0]
 800533e:	2000      	movs	r0, #0
 8005340:	e7dc      	b.n	80052fc <__ssputs_r+0x58>
 8005342:	462a      	mov	r2, r5
 8005344:	f000 fb4a 	bl	80059dc <_realloc_r>
 8005348:	4606      	mov	r6, r0
 800534a:	2800      	cmp	r0, #0
 800534c:	d1e2      	bne.n	8005314 <__ssputs_r+0x70>
 800534e:	6921      	ldr	r1, [r4, #16]
 8005350:	4650      	mov	r0, sl
 8005352:	f000 fa9b 	bl	800588c <_free_r>
 8005356:	e7c8      	b.n	80052ea <__ssputs_r+0x46>

08005358 <_svfiprintf_r>:
 8005358:	e92d 4ff0 	stmdb	sp!, {r4, r5, r6, r7, r8, r9, sl, fp, lr}
 800535c:	461d      	mov	r5, r3
 800535e:	898b      	ldrh	r3, [r1, #12]
 8005360:	061f      	lsls	r7, r3, #24
 8005362:	b09d      	sub	sp, #116	; 0x74
 8005364:	4680      	mov	r8, r0
 8005366:	460c      	mov	r4, r1
 8005368:	4616      	mov	r6, r2
 800536a:	d50f      	bpl.n	800538c <_svfiprintf_r+0x34>
 800536c:	690b      	ldr	r3, [r1, #16]
 800536e:	b96b      	cbnz	r3, 800538c <_svfiprintf_r+0x34>
 8005370:	2140      	movs	r1, #64	; 0x40
 8005372:	f000 fad9 	bl	8005928 <_malloc_r>
 8005376:	6020      	str	r0, [r4, #0]
 8005378:	6120      	str	r0, [r4, #16]
 800537a:	b928      	cbnz	r0, 8005388 <_svfiprintf_r+0x30>
 800537c:	230c      	movs	r3, #12
 800537e:	f8c8 3000 	str.w	r3, [r8]
 8005382:	f04f 30ff 	mov.w	r0, #4294967295
 8005386:	e0c8      	b.n	800551a <_svfiprintf_r+0x1c2>
 8005388:	2340      	movs	r3, #64	; 0x40
 800538a:	6163      	str	r3, [r4, #20]
 800538c:	2300      	movs	r3, #0
 800538e:	9309      	str	r3, [sp, #36]	; 0x24
 8005390:	2320      	movs	r3, #32
 8005392:	f88d 3029 	strb.w	r3, [sp, #41]	; 0x29
 8005396:	2330      	movs	r3, #48	; 0x30
 8005398:	f88d 302a 	strb.w	r3, [sp, #42]	; 0x2a
 800539c:	9503      	str	r5, [sp, #12]
 800539e:	f04f 0b01 	mov.w	fp, #1
 80053a2:	4637      	mov	r7, r6
 80053a4:	463d      	mov	r5, r7
 80053a6:	f815 3b01 	ldrb.w	r3, [r5], #1
 80053aa:	b10b      	cbz	r3, 80053b0 <_svfiprintf_r+0x58>
 80053ac:	2b25      	cmp	r3, #37	; 0x25
 80053ae:	d13e      	bne.n	800542e <_svfiprintf_r+0xd6>
 80053b0:	ebb7 0a06 	subs.w	sl, r7, r6
 80053b4:	d00b      	beq.n	80053ce <_svfiprintf_r+0x76>
 80053b6:	4653      	mov	r3, sl
 80053b8:	4632      	mov	r2, r6
 80053ba:	4621      	mov	r1, r4
 80053bc:	4640      	mov	r0, r8
 80053be:	f7ff ff71 	bl	80052a4 <__ssputs_r>
 80053c2:	3001      	adds	r0, #1
 80053c4:	f000 80a4 	beq.w	8005510 <_svfiprintf_r+0x1b8>
 80053c8:	9b09      	ldr	r3, [sp, #36]	; 0x24
 80053ca:	4453      	add	r3, sl
 80053cc:	9309      	str	r3, [sp, #36]	; 0x24
 80053ce:	783b      	ldrb	r3, [r7, #0]
 80053d0:	2b00      	cmp	r3, #0
 80053d2:	f000 809d 	beq.w	8005510 <_svfiprintf_r+0x1b8>
 80053d6:	2300      	movs	r3, #0
 80053d8:	f04f 32ff 	mov.w	r2, #4294967295
 80053dc:	e9cd 2305 	strd	r2, r3, [sp, #20]
 80053e0:	9304      	str	r3, [sp, #16]
 80053e2:	9307      	str	r3, [sp, #28]
 80053e4:	f88d 3053 	strb.w	r3, [sp, #83]	; 0x53
 80053e8:	931a      	str	r3, [sp, #104]	; 0x68
 80053ea:	462f      	mov	r7, r5
 80053ec:	2205      	movs	r2, #5
 80053ee:	f817 1b01 	ldrb.w	r1, [r7], #1
 80053f2:	4850      	ldr	r0, [pc, #320]	; (8005534 <_svfiprintf_r+0x1dc>)
 80053f4:	f7fa ff4c 	bl	8000290 <memchr>
 80053f8:	9b04      	ldr	r3, [sp, #16]
 80053fa:	b9d0      	cbnz	r0, 8005432 <_svfiprintf_r+0xda>
 80053fc:	06d9      	lsls	r1, r3, #27
 80053fe:	bf44      	itt	mi
 8005400:	2220      	movmi	r2, #32
 8005402:	f88d 2053 	strbmi.w	r2, [sp, #83]	; 0x53
 8005406:	071a      	lsls	r2, r3, #28
 8005408:	bf44      	itt	mi
 800540a:	222b      	movmi	r2, #43	; 0x2b
 800540c:	f88d 2053 	strbmi.w	r2, [sp, #83]	; 0x53
 8005410:	782a      	ldrb	r2, [r5, #0]
 8005412:	2a2a      	cmp	r2, #42	; 0x2a
 8005414:	d015      	beq.n	8005442 <_svfiprintf_r+0xea>
 8005416:	9a07      	ldr	r2, [sp, #28]
 8005418:	462f      	mov	r7, r5
 800541a:	2000      	movs	r0, #0
 800541c:	250a      	movs	r5, #10
 800541e:	4639      	mov	r1, r7
 8005420:	f811 3b01 	ldrb.w	r3, [r1], #1
 8005424:	3b30      	subs	r3, #48	; 0x30
 8005426:	2b09      	cmp	r3, #9
 8005428:	d94d      	bls.n	80054c6 <_svfiprintf_r+0x16e>
 800542a:	b1b8      	cbz	r0, 800545c <_svfiprintf_r+0x104>
 800542c:	e00f      	b.n	800544e <_svfiprintf_r+0xf6>
 800542e:	462f      	mov	r7, r5
 8005430:	e7b8      	b.n	80053a4 <_svfiprintf_r+0x4c>
 8005432:	4a40      	ldr	r2, [pc, #256]	; (8005534 <_svfiprintf_r+0x1dc>)
 8005434:	1a80      	subs	r0, r0, r2
 8005436:	fa0b f000 	lsl.w	r0, fp, r0
 800543a:	4318      	orrs	r0, r3
 800543c:	9004      	str	r0, [sp, #16]
 800543e:	463d      	mov	r5, r7
 8005440:	e7d3      	b.n	80053ea <_svfiprintf_r+0x92>
 8005442:	9a03      	ldr	r2, [sp, #12]
 8005444:	1d11      	adds	r1, r2, #4
 8005446:	6812      	ldr	r2, [r2, #0]
 8005448:	9103      	str	r1, [sp, #12]
 800544a:	2a00      	cmp	r2, #0
 800544c:	db01      	blt.n	8005452 <_svfiprintf_r+0xfa>
 800544e:	9207      	str	r2, [sp, #28]
 8005450:	e004      	b.n	800545c <_svfiprintf_r+0x104>
 8005452:	4252      	negs	r2, r2
 8005454:	f043 0302 	orr.w	r3, r3, #2
 8005458:	9207      	str	r2, [sp, #28]
 800545a:	9304      	str	r3, [sp, #16]
 800545c:	783b      	ldrb	r3, [r7, #0]
 800545e:	2b2e      	cmp	r3, #46	; 0x2e
 8005460:	d10c      	bne.n	800547c <_svfiprintf_r+0x124>
 8005462:	787b      	ldrb	r3, [r7, #1]
 8005464:	2b2a      	cmp	r3, #42	; 0x2a
 8005466:	d133      	bne.n	80054d0 <_svfiprintf_r+0x178>
 8005468:	9b03      	ldr	r3, [sp, #12]
 800546a:	1d1a      	adds	r2, r3, #4
 800546c:	681b      	ldr	r3, [r3, #0]
 800546e:	9203      	str	r2, [sp, #12]
 8005470:	2b00      	cmp	r3, #0
 8005472:	bfb8      	it	lt
 8005474:	f04f 33ff 	movlt.w	r3, #4294967295
 8005478:	3702      	adds	r7, #2
 800547a:	9305      	str	r3, [sp, #20]
 800547c:	4d2e      	ldr	r5, [pc, #184]	; (8005538 <_svfiprintf_r+0x1e0>)
 800547e:	7839      	ldrb	r1, [r7, #0]
 8005480:	2203      	movs	r2, #3
 8005482:	4628      	mov	r0, r5
 8005484:	f7fa ff04 	bl	8000290 <memchr>
 8005488:	b138      	cbz	r0, 800549a <_svfiprintf_r+0x142>
 800548a:	2340      	movs	r3, #64	; 0x40
 800548c:	1b40      	subs	r0, r0, r5
 800548e:	fa03 f000 	lsl.w	r0, r3, r0
 8005492:	9b04      	ldr	r3, [sp, #16]
 8005494:	4303      	orrs	r3, r0
 8005496:	3701      	adds	r7, #1
 8005498:	9304      	str	r3, [sp, #16]
 800549a:	7839      	ldrb	r1, [r7, #0]
 800549c:	4827      	ldr	r0, [pc, #156]	; (800553c <_svfiprintf_r+0x1e4>)
 800549e:	f88d 1028 	strb.w	r1, [sp, #40]	; 0x28
 80054a2:	2206      	movs	r2, #6
 80054a4:	1c7e      	adds	r6, r7, #1
 80054a6:	f7fa fef3 	bl	8000290 <memchr>
 80054aa:	2800      	cmp	r0, #0
 80054ac:	d038      	beq.n	8005520 <_svfiprintf_r+0x1c8>
 80054ae:	4b24      	ldr	r3, [pc, #144]	; (8005540 <_svfiprintf_r+0x1e8>)
 80054b0:	bb13      	cbnz	r3, 80054f8 <_svfiprintf_r+0x1a0>
 80054b2:	9b03      	ldr	r3, [sp, #12]
 80054b4:	3307      	adds	r3, #7
 80054b6:	f023 0307 	bic.w	r3, r3, #7
 80054ba:	3308      	adds	r3, #8
 80054bc:	9303      	str	r3, [sp, #12]
 80054be:	9b09      	ldr	r3, [sp, #36]	; 0x24
 80054c0:	444b      	add	r3, r9
 80054c2:	9309      	str	r3, [sp, #36]	; 0x24
 80054c4:	e76d      	b.n	80053a2 <_svfiprintf_r+0x4a>
 80054c6:	fb05 3202 	mla	r2, r5, r2, r3
 80054ca:	2001      	movs	r0, #1
 80054cc:	460f      	mov	r7, r1
 80054ce:	e7a6      	b.n	800541e <_svfiprintf_r+0xc6>
 80054d0:	2300      	movs	r3, #0
 80054d2:	3701      	adds	r7, #1
 80054d4:	9305      	str	r3, [sp, #20]
 80054d6:	4619      	mov	r1, r3
 80054d8:	250a      	movs	r5, #10
 80054da:	4638      	mov	r0, r7
 80054dc:	f810 2b01 	ldrb.w	r2, [r0], #1
 80054e0:	3a30      	subs	r2, #48	; 0x30
 80054e2:	2a09      	cmp	r2, #9
 80054e4:	d903      	bls.n	80054ee <_svfiprintf_r+0x196>
 80054e6:	2b00      	cmp	r3, #0
 80054e8:	d0c8      	beq.n	800547c <_svfiprintf_r+0x124>
 80054ea:	9105      	str	r1, [sp, #20]
 80054ec:	e7c6      	b.n	800547c <_svfiprintf_r+0x124>
 80054ee:	fb05 2101 	mla	r1, r5, r1, r2
 80054f2:	2301      	movs	r3, #1
 80054f4:	4607      	mov	r7, r0
 80054f6:	e7f0      	b.n	80054da <_svfiprintf_r+0x182>
 80054f8:	ab03      	add	r3, sp, #12
 80054fa:	9300      	str	r3, [sp, #0]
 80054fc:	4622      	mov	r2, r4
 80054fe:	4b11      	ldr	r3, [pc, #68]	; (8005544 <_svfiprintf_r+0x1ec>)
 8005500:	a904      	add	r1, sp, #16
 8005502:	4640      	mov	r0, r8
 8005504:	f3af 8000 	nop.w
 8005508:	f1b0 3fff 	cmp.w	r0, #4294967295
 800550c:	4681      	mov	r9, r0
 800550e:	d1d6      	bne.n	80054be <_svfiprintf_r+0x166>
 8005510:	89a3      	ldrh	r3, [r4, #12]
 8005512:	065b      	lsls	r3, r3, #25
 8005514:	f53f af35 	bmi.w	8005382 <_svfiprintf_r+0x2a>
 8005518:	9809      	ldr	r0, [sp, #36]	; 0x24
 800551a:	b01d      	add	sp, #116	; 0x74
 800551c:	e8bd 8ff0 	ldmia.w	sp!, {r4, r5, r6, r7, r8, r9, sl, fp, pc}
 8005520:	ab03      	add	r3, sp, #12
 8005522:	9300      	str	r3, [sp, #0]
 8005524:	4622      	mov	r2, r4
 8005526:	4b07      	ldr	r3, [pc, #28]	; (8005544 <_svfiprintf_r+0x1ec>)
 8005528:	a904      	add	r1, sp, #16
 800552a:	4640      	mov	r0, r8
 800552c:	f000 f882 	bl	8005634 <_printf_i>
 8005530:	e7ea      	b.n	8005508 <_svfiprintf_r+0x1b0>
 8005532:	bf00      	nop
 8005534:	08005b9a 	.word	0x08005b9a
 8005538:	08005ba0 	.word	0x08005ba0
 800553c:	08005ba4 	.word	0x08005ba4
 8005540:	00000000 	.word	0x00000000
 8005544:	080052a5 	.word	0x080052a5

08005548 <_printf_common>:
 8005548:	e92d 47f0 	stmdb	sp!, {r4, r5, r6, r7, r8, r9, sl, lr}
 800554c:	4691      	mov	r9, r2
 800554e:	461f      	mov	r7, r3
 8005550:	688a      	ldr	r2, [r1, #8]
 8005552:	690b      	ldr	r3, [r1, #16]
 8005554:	f8dd 8020 	ldr.w	r8, [sp, #32]
 8005558:	4293      	cmp	r3, r2
 800555a:	bfb8      	it	lt
 800555c:	4613      	movlt	r3, r2
 800555e:	f8c9 3000 	str.w	r3, [r9]
 8005562:	f891 2043 	ldrb.w	r2, [r1, #67]	; 0x43
 8005566:	4606      	mov	r6, r0
 8005568:	460c      	mov	r4, r1
 800556a:	b112      	cbz	r2, 8005572 <_printf_common+0x2a>
 800556c:	3301      	adds	r3, #1
 800556e:	f8c9 3000 	str.w	r3, [r9]
 8005572:	6823      	ldr	r3, [r4, #0]
 8005574:	0699      	lsls	r1, r3, #26
 8005576:	bf42      	ittt	mi
 8005578:	f8d9 3000 	ldrmi.w	r3, [r9]
 800557c:	3302      	addmi	r3, #2
 800557e:	f8c9 3000 	strmi.w	r3, [r9]
 8005582:	6825      	ldr	r5, [r4, #0]
 8005584:	f015 0506 	ands.w	r5, r5, #6
 8005588:	d107      	bne.n	800559a <_printf_common+0x52>
 800558a:	f104 0a19 	add.w	sl, r4, #25
 800558e:	68e3      	ldr	r3, [r4, #12]
 8005590:	f8d9 2000 	ldr.w	r2, [r9]
 8005594:	1a9b      	subs	r3, r3, r2
 8005596:	42ab      	cmp	r3, r5
 8005598:	dc28      	bgt.n	80055ec <_printf_common+0xa4>
 800559a:	f894 3043 	ldrb.w	r3, [r4, #67]	; 0x43
 800559e:	6822      	ldr	r2, [r4, #0]
 80055a0:	3300      	adds	r3, #0
 80055a2:	bf18      	it	ne
 80055a4:	2301      	movne	r3, #1
 80055a6:	0692      	lsls	r2, r2, #26
 80055a8:	d42d      	bmi.n	8005606 <_printf_common+0xbe>
 80055aa:	f104 0243 	add.w	r2, r4, #67	; 0x43
 80055ae:	4639      	mov	r1, r7
 80055b0:	4630      	mov	r0, r6
 80055b2:	47c0      	blx	r8
 80055b4:	3001      	adds	r0, #1
 80055b6:	d020      	beq.n	80055fa <_printf_common+0xb2>
 80055b8:	6823      	ldr	r3, [r4, #0]
 80055ba:	68e5      	ldr	r5, [r4, #12]
 80055bc:	f8d9 2000 	ldr.w	r2, [r9]
 80055c0:	f003 0306 	and.w	r3, r3, #6
 80055c4:	2b04      	cmp	r3, #4
 80055c6:	bf08      	it	eq
 80055c8:	1aad      	subeq	r5, r5, r2
 80055ca:	68a3      	ldr	r3, [r4, #8]
 80055cc:	6922      	ldr	r2, [r4, #16]
 80055ce:	bf0c      	ite	eq
 80055d0:	ea25 75e5 	biceq.w	r5, r5, r5, asr #31
 80055d4:	2500      	movne	r5, #0
 80055d6:	4293      	cmp	r3, r2
 80055d8:	bfc4      	itt	gt
 80055da:	1a9b      	subgt	r3, r3, r2
 80055dc:	18ed      	addgt	r5, r5, r3
 80055de:	f04f 0900 	mov.w	r9, #0
 80055e2:	341a      	adds	r4, #26
 80055e4:	454d      	cmp	r5, r9
 80055e6:	d11a      	bne.n	800561e <_printf_common+0xd6>
 80055e8:	2000      	movs	r0, #0
 80055ea:	e008      	b.n	80055fe <_printf_common+0xb6>
 80055ec:	2301      	movs	r3, #1
 80055ee:	4652      	mov	r2, sl
 80055f0:	4639      	mov	r1, r7
 80055f2:	4630      	mov	r0, r6
 80055f4:	47c0      	blx	r8
 80055f6:	3001      	adds	r0, #1
 80055f8:	d103      	bne.n	8005602 <_printf_common+0xba>
 80055fa:	f04f 30ff 	mov.w	r0, #4294967295
 80055fe:	e8bd 87f0 	ldmia.w	sp!, {r4, r5, r6, r7, r8, r9, sl, pc}
 8005602:	3501      	adds	r5, #1
 8005604:	e7c3      	b.n	800558e <_printf_common+0x46>
 8005606:	18e1      	adds	r1, r4, r3
 8005608:	1c5a      	adds	r2, r3, #1
 800560a:	2030      	movs	r0, #48	; 0x30
 800560c:	f881 0043 	strb.w	r0, [r1, #67]	; 0x43
 8005610:	4422      	add	r2, r4
 8005612:	f894 1045 	ldrb.w	r1, [r4, #69]	; 0x45
 8005616:	f882 1043 	strb.w	r1, [r2, #67]	; 0x43
 800561a:	3302      	adds	r3, #2
 800561c:	e7c5      	b.n	80055aa <_printf_common+0x62>
 800561e:	2301      	movs	r3, #1
 8005620:	4622      	mov	r2, r4
 8005622:	4639      	mov	r1, r7
 8005624:	4630      	mov	r0, r6
 8005626:	47c0      	blx	r8
 8005628:	3001      	adds	r0, #1
 800562a:	d0e6      	beq.n	80055fa <_printf_common+0xb2>
 800562c:	f109 0901 	add.w	r9, r9, #1
 8005630:	e7d8      	b.n	80055e4 <_printf_common+0x9c>
	...

08005634 <_printf_i>:
 8005634:	e92d 43f0 	stmdb	sp!, {r4, r5, r6, r7, r8, r9, lr}
 8005638:	f101 0c43 	add.w	ip, r1, #67	; 0x43
 800563c:	460c      	mov	r4, r1
 800563e:	7e09      	ldrb	r1, [r1, #24]
 8005640:	b085      	sub	sp, #20
 8005642:	296e      	cmp	r1, #110	; 0x6e
 8005644:	4617      	mov	r7, r2
 8005646:	4606      	mov	r6, r0
 8005648:	4698      	mov	r8, r3
 800564a:	9a0c      	ldr	r2, [sp, #48]	; 0x30
 800564c:	f000 80b3 	beq.w	80057b6 <_printf_i+0x182>
 8005650:	d822      	bhi.n	8005698 <_printf_i+0x64>
 8005652:	2963      	cmp	r1, #99	; 0x63
 8005654:	d036      	beq.n	80056c4 <_printf_i+0x90>
 8005656:	d80a      	bhi.n	800566e <_printf_i+0x3a>
 8005658:	2900      	cmp	r1, #0
 800565a:	f000 80b9 	beq.w	80057d0 <_printf_i+0x19c>
 800565e:	2958      	cmp	r1, #88	; 0x58
 8005660:	f000 8083 	beq.w	800576a <_printf_i+0x136>
 8005664:	f104 0542 	add.w	r5, r4, #66	; 0x42
 8005668:	f884 1042 	strb.w	r1, [r4, #66]	; 0x42
 800566c:	e032      	b.n	80056d4 <_printf_i+0xa0>
 800566e:	2964      	cmp	r1, #100	; 0x64
 8005670:	d001      	beq.n	8005676 <_printf_i+0x42>
 8005672:	2969      	cmp	r1, #105	; 0x69
 8005674:	d1f6      	bne.n	8005664 <_printf_i+0x30>
 8005676:	6820      	ldr	r0, [r4, #0]
 8005678:	6813      	ldr	r3, [r2, #0]
 800567a:	0605      	lsls	r5, r0, #24
 800567c:	f103 0104 	add.w	r1, r3, #4
 8005680:	d52a      	bpl.n	80056d8 <_printf_i+0xa4>
 8005682:	681b      	ldr	r3, [r3, #0]
 8005684:	6011      	str	r1, [r2, #0]
 8005686:	2b00      	cmp	r3, #0
 8005688:	da03      	bge.n	8005692 <_printf_i+0x5e>
 800568a:	222d      	movs	r2, #45	; 0x2d
 800568c:	425b      	negs	r3, r3
 800568e:	f884 2043 	strb.w	r2, [r4, #67]	; 0x43
 8005692:	486f      	ldr	r0, [pc, #444]	; (8005850 <_printf_i+0x21c>)
 8005694:	220a      	movs	r2, #10
 8005696:	e039      	b.n	800570c <_printf_i+0xd8>
 8005698:	2973      	cmp	r1, #115	; 0x73
 800569a:	f000 809d 	beq.w	80057d8 <_printf_i+0x1a4>
 800569e:	d808      	bhi.n	80056b2 <_printf_i+0x7e>
 80056a0:	296f      	cmp	r1, #111	; 0x6f
 80056a2:	d020      	beq.n	80056e6 <_printf_i+0xb2>
 80056a4:	2970      	cmp	r1, #112	; 0x70
 80056a6:	d1dd      	bne.n	8005664 <_printf_i+0x30>
 80056a8:	6823      	ldr	r3, [r4, #0]
 80056aa:	f043 0320 	orr.w	r3, r3, #32
 80056ae:	6023      	str	r3, [r4, #0]
 80056b0:	e003      	b.n	80056ba <_printf_i+0x86>
 80056b2:	2975      	cmp	r1, #117	; 0x75
 80056b4:	d017      	beq.n	80056e6 <_printf_i+0xb2>
 80056b6:	2978      	cmp	r1, #120	; 0x78
 80056b8:	d1d4      	bne.n	8005664 <_printf_i+0x30>
 80056ba:	2378      	movs	r3, #120	; 0x78
 80056bc:	f884 3045 	strb.w	r3, [r4, #69]	; 0x45
 80056c0:	4864      	ldr	r0, [pc, #400]	; (8005854 <_printf_i+0x220>)
 80056c2:	e055      	b.n	8005770 <_printf_i+0x13c>
 80056c4:	6813      	ldr	r3, [r2, #0]
 80056c6:	1d19      	adds	r1, r3, #4
 80056c8:	681b      	ldr	r3, [r3, #0]
 80056ca:	6011      	str	r1, [r2, #0]
 80056cc:	f104 0542 	add.w	r5, r4, #66	; 0x42
 80056d0:	f884 3042 	strb.w	r3, [r4, #66]	; 0x42
 80056d4:	2301      	movs	r3, #1
 80056d6:	e08c      	b.n	80057f2 <_printf_i+0x1be>
 80056d8:	681b      	ldr	r3, [r3, #0]
 80056da:	6011      	str	r1, [r2, #0]
 80056dc:	f010 0f40 	tst.w	r0, #64	; 0x40
 80056e0:	bf18      	it	ne
 80056e2:	b21b      	sxthne	r3, r3
 80056e4:	e7cf      	b.n	8005686 <_printf_i+0x52>
 80056e6:	6813      	ldr	r3, [r2, #0]
 80056e8:	6825      	ldr	r5, [r4, #0]
 80056ea:	1d18      	adds	r0, r3, #4
 80056ec:	6010      	str	r0, [r2, #0]
 80056ee:	0628      	lsls	r0, r5, #24
 80056f0:	d501      	bpl.n	80056f6 <_printf_i+0xc2>
 80056f2:	681b      	ldr	r3, [r3, #0]
 80056f4:	e002      	b.n	80056fc <_printf_i+0xc8>
 80056f6:	0668      	lsls	r0, r5, #25
 80056f8:	d5fb      	bpl.n	80056f2 <_printf_i+0xbe>
 80056fa:	881b      	ldrh	r3, [r3, #0]
 80056fc:	4854      	ldr	r0, [pc, #336]	; (8005850 <_printf_i+0x21c>)
 80056fe:	296f      	cmp	r1, #111	; 0x6f
 8005700:	bf14      	ite	ne
 8005702:	220a      	movne	r2, #10
 8005704:	2208      	moveq	r2, #8
 8005706:	2100      	movs	r1, #0
 8005708:	f884 1043 	strb.w	r1, [r4, #67]	; 0x43
 800570c:	6865      	ldr	r5, [r4, #4]
 800570e:	60a5      	str	r5, [r4, #8]
 8005710:	2d00      	cmp	r5, #0
 8005712:	f2c0 8095 	blt.w	8005840 <_printf_i+0x20c>
 8005716:	6821      	ldr	r1, [r4, #0]
 8005718:	f021 0104 	bic.w	r1, r1, #4
 800571c:	6021      	str	r1, [r4, #0]
 800571e:	2b00      	cmp	r3, #0
 8005720:	d13d      	bne.n	800579e <_printf_i+0x16a>
 8005722:	2d00      	cmp	r5, #0
 8005724:	f040 808e 	bne.w	8005844 <_printf_i+0x210>
 8005728:	4665      	mov	r5, ip
 800572a:	2a08      	cmp	r2, #8
 800572c:	d10b      	bne.n	8005746 <_printf_i+0x112>
 800572e:	6823      	ldr	r3, [r4, #0]
 8005730:	07db      	lsls	r3, r3, #31
 8005732:	d508      	bpl.n	8005746 <_printf_i+0x112>
 8005734:	6923      	ldr	r3, [r4, #16]
 8005736:	6862      	ldr	r2, [r4, #4]
 8005738:	429a      	cmp	r2, r3
 800573a:	bfde      	ittt	le
 800573c:	2330      	movle	r3, #48	; 0x30
 800573e:	f805 3c01 	strble.w	r3, [r5, #-1]
 8005742:	f105 35ff 	addle.w	r5, r5, #4294967295
 8005746:	ebac 0305 	sub.w	r3, ip, r5
 800574a:	6123      	str	r3, [r4, #16]
 800574c:	f8cd 8000 	str.w	r8, [sp]
 8005750:	463b      	mov	r3, r7
 8005752:	aa03      	add	r2, sp, #12
 8005754:	4621      	mov	r1, r4
 8005756:	4630      	mov	r0, r6
 8005758:	f7ff fef6 	bl	8005548 <_printf_common>
 800575c:	3001      	adds	r0, #1
 800575e:	d14d      	bne.n	80057fc <_printf_i+0x1c8>
 8005760:	f04f 30ff 	mov.w	r0, #4294967295
 8005764:	b005      	add	sp, #20
 8005766:	e8bd 83f0 	ldmia.w	sp!, {r4, r5, r6, r7, r8, r9, pc}
 800576a:	4839      	ldr	r0, [pc, #228]	; (8005850 <_printf_i+0x21c>)
 800576c:	f884 1045 	strb.w	r1, [r4, #69]	; 0x45
 8005770:	6813      	ldr	r3, [r2, #0]
 8005772:	6821      	ldr	r1, [r4, #0]
 8005774:	1d1d      	adds	r5, r3, #4
 8005776:	681b      	ldr	r3, [r3, #0]
 8005778:	6015      	str	r5, [r2, #0]
 800577a:	060a      	lsls	r2, r1, #24
 800577c:	d50b      	bpl.n	8005796 <_printf_i+0x162>
 800577e:	07ca      	lsls	r2, r1, #31
 8005780:	bf44      	itt	mi
 8005782:	f041 0120 	orrmi.w	r1, r1, #32
 8005786:	6021      	strmi	r1, [r4, #0]
 8005788:	b91b      	cbnz	r3, 8005792 <_printf_i+0x15e>
 800578a:	6822      	ldr	r2, [r4, #0]
 800578c:	f022 0220 	bic.w	r2, r2, #32
 8005790:	6022      	str	r2, [r4, #0]
 8005792:	2210      	movs	r2, #16
 8005794:	e7b7      	b.n	8005706 <_printf_i+0xd2>
 8005796:	064d      	lsls	r5, r1, #25
 8005798:	bf48      	it	mi
 800579a:	b29b      	uxthmi	r3, r3
 800579c:	e7ef      	b.n	800577e <_printf_i+0x14a>
 800579e:	4665      	mov	r5, ip
 80057a0:	fbb3 f1f2 	udiv	r1, r3, r2
 80057a4:	fb02 3311 	mls	r3, r2, r1, r3
 80057a8:	5cc3      	ldrb	r3, [r0, r3]
 80057aa:	f805 3d01 	strb.w	r3, [r5, #-1]!
 80057ae:	460b      	mov	r3, r1
 80057b0:	2900      	cmp	r1, #0
 80057b2:	d1f5      	bne.n	80057a0 <_printf_i+0x16c>
 80057b4:	e7b9      	b.n	800572a <_printf_i+0xf6>
 80057b6:	6813      	ldr	r3, [r2, #0]
 80057b8:	6825      	ldr	r5, [r4, #0]
 80057ba:	6961      	ldr	r1, [r4, #20]
 80057bc:	1d18      	adds	r0, r3, #4
 80057be:	6010      	str	r0, [r2, #0]
 80057c0:	0628      	lsls	r0, r5, #24
 80057c2:	681b      	ldr	r3, [r3, #0]
 80057c4:	d501      	bpl.n	80057ca <_printf_i+0x196>
 80057c6:	6019      	str	r1, [r3, #0]
 80057c8:	e002      	b.n	80057d0 <_printf_i+0x19c>
 80057ca:	066a      	lsls	r2, r5, #25
 80057cc:	d5fb      	bpl.n	80057c6 <_printf_i+0x192>
 80057ce:	8019      	strh	r1, [r3, #0]
 80057d0:	2300      	movs	r3, #0
 80057d2:	6123      	str	r3, [r4, #16]
 80057d4:	4665      	mov	r5, ip
 80057d6:	e7b9      	b.n	800574c <_printf_i+0x118>
 80057d8:	6813      	ldr	r3, [r2, #0]
 80057da:	1d19      	adds	r1, r3, #4
 80057dc:	6011      	str	r1, [r2, #0]
 80057de:	681d      	ldr	r5, [r3, #0]
 80057e0:	6862      	ldr	r2, [r4, #4]
 80057e2:	2100      	movs	r1, #0
 80057e4:	4628      	mov	r0, r5
 80057e6:	f7fa fd53 	bl	8000290 <memchr>
 80057ea:	b108      	cbz	r0, 80057f0 <_printf_i+0x1bc>
 80057ec:	1b40      	subs	r0, r0, r5
 80057ee:	6060      	str	r0, [r4, #4]
 80057f0:	6863      	ldr	r3, [r4, #4]
 80057f2:	6123      	str	r3, [r4, #16]
 80057f4:	2300      	movs	r3, #0
 80057f6:	f884 3043 	strb.w	r3, [r4, #67]	; 0x43
 80057fa:	e7a7      	b.n	800574c <_printf_i+0x118>
 80057fc:	6923      	ldr	r3, [r4, #16]
 80057fe:	462a      	mov	r2, r5
 8005800:	4639      	mov	r1, r7
 8005802:	4630      	mov	r0, r6
 8005804:	47c0      	blx	r8
 8005806:	3001      	adds	r0, #1
 8005808:	d0aa      	beq.n	8005760 <_printf_i+0x12c>
 800580a:	6823      	ldr	r3, [r4, #0]
 800580c:	079b      	lsls	r3, r3, #30
 800580e:	d413      	bmi.n	8005838 <_printf_i+0x204>
 8005810:	68e0      	ldr	r0, [r4, #12]
 8005812:	9b03      	ldr	r3, [sp, #12]
 8005814:	4298      	cmp	r0, r3
 8005816:	bfb8      	it	lt
 8005818:	4618      	movlt	r0, r3
 800581a:	e7a3      	b.n	8005764 <_printf_i+0x130>
 800581c:	2301      	movs	r3, #1
 800581e:	464a      	mov	r2, r9
 8005820:	4639      	mov	r1, r7
 8005822:	4630      	mov	r0, r6
 8005824:	47c0      	blx	r8
 8005826:	3001      	adds	r0, #1
 8005828:	d09a      	beq.n	8005760 <_printf_i+0x12c>
 800582a:	3501      	adds	r5, #1
 800582c:	68e3      	ldr	r3, [r4, #12]
 800582e:	9a03      	ldr	r2, [sp, #12]
 8005830:	1a9b      	subs	r3, r3, r2
 8005832:	42ab      	cmp	r3, r5
 8005834:	dcf2      	bgt.n	800581c <_printf_i+0x1e8>
 8005836:	e7eb      	b.n	8005810 <_printf_i+0x1dc>
 8005838:	2500      	movs	r5, #0
 800583a:	f104 0919 	add.w	r9, r4, #25
 800583e:	e7f5      	b.n	800582c <_printf_i+0x1f8>
 8005840:	2b00      	cmp	r3, #0
 8005842:	d1ac      	bne.n	800579e <_printf_i+0x16a>
 8005844:	7803      	ldrb	r3, [r0, #0]
 8005846:	f884 3042 	strb.w	r3, [r4, #66]	; 0x42
 800584a:	f104 0542 	add.w	r5, r4, #66	; 0x42
 800584e:	e76c      	b.n	800572a <_printf_i+0xf6>
 8005850:	08005bab 	.word	0x08005bab
 8005854:	08005bbc 	.word	0x08005bbc

08005858 <memmove>:
 8005858:	4288      	cmp	r0, r1
 800585a:	b510      	push	{r4, lr}
 800585c:	eb01 0302 	add.w	r3, r1, r2
 8005860:	d807      	bhi.n	8005872 <memmove+0x1a>
 8005862:	1e42      	subs	r2, r0, #1
 8005864:	4299      	cmp	r1, r3
 8005866:	d00a      	beq.n	800587e <memmove+0x26>
 8005868:	f811 4b01 	ldrb.w	r4, [r1], #1
 800586c:	f802 4f01 	strb.w	r4, [r2, #1]!
 8005870:	e7f8      	b.n	8005864 <memmove+0xc>
 8005872:	4283      	cmp	r3, r0
 8005874:	d9f5      	bls.n	8005862 <memmove+0xa>
 8005876:	1881      	adds	r1, r0, r2
 8005878:	1ad2      	subs	r2, r2, r3
 800587a:	42d3      	cmn	r3, r2
 800587c:	d100      	bne.n	8005880 <memmove+0x28>
 800587e:	bd10      	pop	{r4, pc}
 8005880:	f813 4d01 	ldrb.w	r4, [r3, #-1]!
 8005884:	f801 4d01 	strb.w	r4, [r1, #-1]!
 8005888:	e7f7      	b.n	800587a <memmove+0x22>
	...

0800588c <_free_r>:
 800588c:	b538      	push	{r3, r4, r5, lr}
 800588e:	4605      	mov	r5, r0
 8005890:	2900      	cmp	r1, #0
 8005892:	d045      	beq.n	8005920 <_free_r+0x94>
 8005894:	f851 3c04 	ldr.w	r3, [r1, #-4]
 8005898:	1f0c      	subs	r4, r1, #4
 800589a:	2b00      	cmp	r3, #0
 800589c:	bfb8      	it	lt
 800589e:	18e4      	addlt	r4, r4, r3
 80058a0:	f000 f8d2 	bl	8005a48 <__malloc_lock>
 80058a4:	4a1f      	ldr	r2, [pc, #124]	; (8005924 <_free_r+0x98>)
 80058a6:	6813      	ldr	r3, [r2, #0]
 80058a8:	4610      	mov	r0, r2
 80058aa:	b933      	cbnz	r3, 80058ba <_free_r+0x2e>
 80058ac:	6063      	str	r3, [r4, #4]
 80058ae:	6014      	str	r4, [r2, #0]
 80058b0:	4628      	mov	r0, r5
 80058b2:	e8bd 4038 	ldmia.w	sp!, {r3, r4, r5, lr}
 80058b6:	f000 b8c8 	b.w	8005a4a <__malloc_unlock>
 80058ba:	42a3      	cmp	r3, r4
 80058bc:	d90c      	bls.n	80058d8 <_free_r+0x4c>
 80058be:	6821      	ldr	r1, [r4, #0]
 80058c0:	1862      	adds	r2, r4, r1
 80058c2:	4293      	cmp	r3, r2
 80058c4:	bf04      	itt	eq
 80058c6:	681a      	ldreq	r2, [r3, #0]
 80058c8:	685b      	ldreq	r3, [r3, #4]
 80058ca:	6063      	str	r3, [r4, #4]
 80058cc:	bf04      	itt	eq
 80058ce:	1852      	addeq	r2, r2, r1
 80058d0:	6022      	streq	r2, [r4, #0]
 80058d2:	6004      	str	r4, [r0, #0]
 80058d4:	e7ec      	b.n	80058b0 <_free_r+0x24>
 80058d6:	4613      	mov	r3, r2
 80058d8:	685a      	ldr	r2, [r3, #4]
 80058da:	b10a      	cbz	r2, 80058e0 <_free_r+0x54>
 80058dc:	42a2      	cmp	r2, r4
 80058de:	d9fa      	bls.n	80058d6 <_free_r+0x4a>
 80058e0:	6819      	ldr	r1, [r3, #0]
 80058e2:	1858      	adds	r0, r3, r1
 80058e4:	42a0      	cmp	r0, r4
 80058e6:	d10b      	bne.n	8005900 <_free_r+0x74>
 80058e8:	6820      	ldr	r0, [r4, #0]
 80058ea:	4401      	add	r1, r0
 80058ec:	1858      	adds	r0, r3, r1
 80058ee:	4282      	cmp	r2, r0
 80058f0:	6019      	str	r1, [r3, #0]
 80058f2:	d1dd      	bne.n	80058b0 <_free_r+0x24>
 80058f4:	6810      	ldr	r0, [r2, #0]
 80058f6:	6852      	ldr	r2, [r2, #4]
 80058f8:	605a      	str	r2, [r3, #4]
 80058fa:	4401      	add	r1, r0
 80058fc:	6019      	str	r1, [r3, #0]
 80058fe:	e7d7      	b.n	80058b0 <_free_r+0x24>
 8005900:	d902      	bls.n	8005908 <_free_r+0x7c>
 8005902:	230c      	movs	r3, #12
 8005904:	602b      	str	r3, [r5, #0]
 8005906:	e7d3      	b.n	80058b0 <_free_r+0x24>
 8005908:	6820      	ldr	r0, [r4, #0]
 800590a:	1821      	adds	r1, r4, r0
 800590c:	428a      	cmp	r2, r1
 800590e:	bf04      	itt	eq
 8005910:	6811      	ldreq	r1, [r2, #0]
 8005912:	6852      	ldreq	r2, [r2, #4]
 8005914:	6062      	str	r2, [r4, #4]
 8005916:	bf04      	itt	eq
 8005918:	1809      	addeq	r1, r1, r0
 800591a:	6021      	streq	r1, [r4, #0]
 800591c:	605c      	str	r4, [r3, #4]
 800591e:	e7c7      	b.n	80058b0 <_free_r+0x24>
 8005920:	bd38      	pop	{r3, r4, r5, pc}
 8005922:	bf00      	nop
 8005924:	200155f0 	.word	0x200155f0

08005928 <_malloc_r>:
 8005928:	b570      	push	{r4, r5, r6, lr}
 800592a:	1ccd      	adds	r5, r1, #3
 800592c:	f025 0503 	bic.w	r5, r5, #3
 8005930:	3508      	adds	r5, #8
 8005932:	2d0c      	cmp	r5, #12
 8005934:	bf38      	it	cc
 8005936:	250c      	movcc	r5, #12
 8005938:	2d00      	cmp	r5, #0
 800593a:	4606      	mov	r6, r0
 800593c:	db01      	blt.n	8005942 <_malloc_r+0x1a>
 800593e:	42a9      	cmp	r1, r5
 8005940:	d903      	bls.n	800594a <_malloc_r+0x22>
 8005942:	230c      	movs	r3, #12
 8005944:	6033      	str	r3, [r6, #0]
 8005946:	2000      	movs	r0, #0
 8005948:	bd70      	pop	{r4, r5, r6, pc}
 800594a:	f000 f87d 	bl	8005a48 <__malloc_lock>
 800594e:	4a21      	ldr	r2, [pc, #132]	; (80059d4 <_malloc_r+0xac>)
 8005950:	6814      	ldr	r4, [r2, #0]
 8005952:	4621      	mov	r1, r4
 8005954:	b991      	cbnz	r1, 800597c <_malloc_r+0x54>
 8005956:	4c20      	ldr	r4, [pc, #128]	; (80059d8 <_malloc_r+0xb0>)
 8005958:	6823      	ldr	r3, [r4, #0]
 800595a:	b91b      	cbnz	r3, 8005964 <_malloc_r+0x3c>
 800595c:	4630      	mov	r0, r6
 800595e:	f000 f863 	bl	8005a28 <_sbrk_r>
 8005962:	6020      	str	r0, [r4, #0]
 8005964:	4629      	mov	r1, r5
 8005966:	4630      	mov	r0, r6
 8005968:	f000 f85e 	bl	8005a28 <_sbrk_r>
 800596c:	1c43      	adds	r3, r0, #1
 800596e:	d124      	bne.n	80059ba <_malloc_r+0x92>
 8005970:	230c      	movs	r3, #12
 8005972:	6033      	str	r3, [r6, #0]
 8005974:	4630      	mov	r0, r6
 8005976:	f000 f868 	bl	8005a4a <__malloc_unlock>
 800597a:	e7e4      	b.n	8005946 <_malloc_r+0x1e>
 800597c:	680b      	ldr	r3, [r1, #0]
 800597e:	1b5b      	subs	r3, r3, r5
 8005980:	d418      	bmi.n	80059b4 <_malloc_r+0x8c>
 8005982:	2b0b      	cmp	r3, #11
 8005984:	d90f      	bls.n	80059a6 <_malloc_r+0x7e>
 8005986:	600b      	str	r3, [r1, #0]
 8005988:	50cd      	str	r5, [r1, r3]
 800598a:	18cc      	adds	r4, r1, r3
 800598c:	4630      	mov	r0, r6
 800598e:	f000 f85c 	bl	8005a4a <__malloc_unlock>
 8005992:	f104 000b 	add.w	r0, r4, #11
 8005996:	1d23      	adds	r3, r4, #4
 8005998:	f020 0007 	bic.w	r0, r0, #7
 800599c:	1ac3      	subs	r3, r0, r3
 800599e:	d0d3      	beq.n	8005948 <_malloc_r+0x20>
 80059a0:	425a      	negs	r2, r3
 80059a2:	50e2      	str	r2, [r4, r3]
 80059a4:	e7d0      	b.n	8005948 <_malloc_r+0x20>
 80059a6:	428c      	cmp	r4, r1
 80059a8:	684b      	ldr	r3, [r1, #4]
 80059aa:	bf16      	itet	ne
 80059ac:	6063      	strne	r3, [r4, #4]
 80059ae:	6013      	streq	r3, [r2, #0]
 80059b0:	460c      	movne	r4, r1
 80059b2:	e7eb      	b.n	800598c <_malloc_r+0x64>
 80059b4:	460c      	mov	r4, r1
 80059b6:	6849      	ldr	r1, [r1, #4]
 80059b8:	e7cc      	b.n	8005954 <_malloc_r+0x2c>
 80059ba:	1cc4      	adds	r4, r0, #3
 80059bc:	f024 0403 	bic.w	r4, r4, #3
 80059c0:	42a0      	cmp	r0, r4
 80059c2:	d005      	beq.n	80059d0 <_malloc_r+0xa8>
 80059c4:	1a21      	subs	r1, r4, r0
 80059c6:	4630      	mov	r0, r6
 80059c8:	f000 f82e 	bl	8005a28 <_sbrk_r>
 80059cc:	3001      	adds	r0, #1
 80059ce:	d0cf      	beq.n	8005970 <_malloc_r+0x48>
 80059d0:	6025      	str	r5, [r4, #0]
 80059d2:	e7db      	b.n	800598c <_malloc_r+0x64>
 80059d4:	200155f0 	.word	0x200155f0
 80059d8:	200155f4 	.word	0x200155f4

080059dc <_realloc_r>:
 80059dc:	b5f8      	push	{r3, r4, r5, r6, r7, lr}
 80059de:	4607      	mov	r7, r0
 80059e0:	4614      	mov	r4, r2
 80059e2:	460e      	mov	r6, r1
 80059e4:	b921      	cbnz	r1, 80059f0 <_realloc_r+0x14>
 80059e6:	4611      	mov	r1, r2
 80059e8:	e8bd 40f8 	ldmia.w	sp!, {r3, r4, r5, r6, r7, lr}
 80059ec:	f7ff bf9c 	b.w	8005928 <_malloc_r>
 80059f0:	b922      	cbnz	r2, 80059fc <_realloc_r+0x20>
 80059f2:	f7ff ff4b 	bl	800588c <_free_r>
 80059f6:	4625      	mov	r5, r4
 80059f8:	4628      	mov	r0, r5
 80059fa:	bdf8      	pop	{r3, r4, r5, r6, r7, pc}
 80059fc:	f000 f826 	bl	8005a4c <_malloc_usable_size_r>
 8005a00:	42a0      	cmp	r0, r4
 8005a02:	d20f      	bcs.n	8005a24 <_realloc_r+0x48>
 8005a04:	4621      	mov	r1, r4
 8005a06:	4638      	mov	r0, r7
 8005a08:	f7ff ff8e 	bl	8005928 <_malloc_r>
 8005a0c:	4605      	mov	r5, r0
 8005a0e:	2800      	cmp	r0, #0
 8005a10:	d0f2      	beq.n	80059f8 <_realloc_r+0x1c>
 8005a12:	4631      	mov	r1, r6
 8005a14:	4622      	mov	r2, r4
 8005a16:	f7ff fc12 	bl	800523e <memcpy>
 8005a1a:	4631      	mov	r1, r6
 8005a1c:	4638      	mov	r0, r7
 8005a1e:	f7ff ff35 	bl	800588c <_free_r>
 8005a22:	e7e9      	b.n	80059f8 <_realloc_r+0x1c>
 8005a24:	4635      	mov	r5, r6
 8005a26:	e7e7      	b.n	80059f8 <_realloc_r+0x1c>

08005a28 <_sbrk_r>:
 8005a28:	b538      	push	{r3, r4, r5, lr}
 8005a2a:	4c06      	ldr	r4, [pc, #24]	; (8005a44 <_sbrk_r+0x1c>)
 8005a2c:	2300      	movs	r3, #0
 8005a2e:	4605      	mov	r5, r0
 8005a30:	4608      	mov	r0, r1
 8005a32:	6023      	str	r3, [r4, #0]
 8005a34:	f7fa ffd8 	bl	80009e8 <_sbrk>
 8005a38:	1c43      	adds	r3, r0, #1
 8005a3a:	d102      	bne.n	8005a42 <_sbrk_r+0x1a>
 8005a3c:	6823      	ldr	r3, [r4, #0]
 8005a3e:	b103      	cbz	r3, 8005a42 <_sbrk_r+0x1a>
 8005a40:	602b      	str	r3, [r5, #0]
 8005a42:	bd38      	pop	{r3, r4, r5, pc}
 8005a44:	20015748 	.word	0x20015748

08005a48 <__malloc_lock>:
 8005a48:	4770      	bx	lr

08005a4a <__malloc_unlock>:
 8005a4a:	4770      	bx	lr

08005a4c <_malloc_usable_size_r>:
 8005a4c:	f851 3c04 	ldr.w	r3, [r1, #-4]
 8005a50:	1f18      	subs	r0, r3, #4
 8005a52:	2b00      	cmp	r3, #0
 8005a54:	bfbc      	itt	lt
 8005a56:	580b      	ldrlt	r3, [r1, r0]
 8005a58:	18c0      	addlt	r0, r0, r3
 8005a5a:	4770      	bx	lr

08005a5c <_init>:
 8005a5c:	b5f8      	push	{r3, r4, r5, r6, r7, lr}
 8005a5e:	bf00      	nop
 8005a60:	bcf8      	pop	{r3, r4, r5, r6, r7}
 8005a62:	bc08      	pop	{r3}
 8005a64:	469e      	mov	lr, r3
 8005a66:	4770      	bx	lr

08005a68 <_fini>:
 8005a68:	b5f8      	push	{r3, r4, r5, r6, r7, lr}
 8005a6a:	bf00      	nop
 8005a6c:	bcf8      	pop	{r3, r4, r5, r6, r7}
 8005a6e:	bc08      	pop	{r3}
 8005a70:	469e      	mov	lr, r3
 8005a72:	4770      	bx	lr
